     1 00000000                                 [FORMAT "WCOFF"]
     2 00000000                                 [INSTRSET "i486p"]
     3 00000000                                 [OPTIMIZE 1]
     4 00000000                                 [OPTION 1]
     5 00000000                                 [BITS 32]
     6 00000000                                 	EXTERN	_init_gdtidt
     7 00000000                                 	EXTERN	_init_pic
     8 00000000                                 	EXTERN	_io_sti
     9 00000000                                 	EXTERN	_fifo32_init
    10 00000000                                 	EXTERN	_init_pit
    11 00000000                                 	EXTERN	_init_keyboard
    12 00000000                                 	EXTERN	_enable_mouse
    13 00000000                                 	EXTERN	_io_out8
    14 00000000                                 	EXTERN	_memtest
    15 00000000                                 	EXTERN	_memman_init
    16 00000000                                 	EXTERN	_memman_free
    17 00000000                                 	EXTERN	_init_palette
    18 00000000                                 	EXTERN	_shtctl_init
    19 00000000                                 	EXTERN	_task_init
    20 00000000                                 	EXTERN	_task_run
    21 00000000                                 	EXTERN	_sheet_alloc
    22 00000000                                 	EXTERN	_memman_alloc_4k
    23 00000000                                 	EXTERN	_sheet_setbuf
    24 00000000                                 	EXTERN	_init_screen8
    25 00000000                                 	EXTERN	_dbg_init
    26 00000000                                 	EXTERN	_dbg_putstr0
    27 00000000                                 	EXTERN	_sprintf
    28 00000000                                 	EXTERN	_init_mouse_cursor8
    29 00000000                                 	EXTERN	_make_window8
    30 00000000                                 	EXTERN	_task_alloc
    31 00000000                                 	EXTERN	_browser_task
    32 00000000                                 	EXTERN	_brow_callback
    33 00000000                                 	EXTERN	_sheet_slide
    34 00000000                                 	EXTERN	_sheet_updown
    35 00000000                                 	EXTERN	_io_cli
    36 00000000                                 	EXTERN	_fifo32_put
    37 00000000                                 	EXTERN	_file_loadfile2
    38 00000000                                 	EXTERN	_sysclock_task
    39 00000000                                 	EXTERN	_fifo32_status
    40 00000000                                 	EXTERN	_fifo32_get
    41 00000000                                 	EXTERN	_memman_free_4k
    42 00000000                                 	EXTERN	_sheet_free
    43 00000000                                 	EXTERN	_taskctl
    44 00000000                                 	EXTERN	_mouse_decode
    45 00000000                                 	EXTERN	_set_mouse_cursorl8
    46 00000000                                 	EXTERN	_cons_putstr0
    47 00000000                                 	EXTERN	_asm_end_app
    48 00000000                                 	EXTERN	_keytable0.0
    49 00000000                                 	EXTERN	_wait_KBC_sendready
    50 00000000                                 	EXTERN	_keytable1.1
    51 00000000                                 	EXTERN	_bmp_conv
    52 00000000                                 	EXTERN	_task_sleep
    53 00000000                                 	EXTERN	_set_mouse_cursorrb8
    54 00000000                                 	EXTERN	_set_mouse_cursorlt8
    55 00000000                                 	EXTERN	_set_mouse_cursorh8
    56 00000000                                 	EXTERN	_init_mouse_cursor81
    57 00000000                                 	EXTERN	_hankaku
    58 00000000                                 	EXTERN	_change_wtitle8
    59 00000000                                 	EXTERN	_console_task
    60 00000000                                 	EXTERN	_make_textbox8
    61 00000000                                 	EXTERN	_putfonts8_asc
    62 00000000                                 	EXTERN	_taskmgr_task
    63 00000000                                 	EXTERN	_task_free
    64 00000000                                 	EXTERN	_make_menu8
    65 00000000                                 	EXTERN	_push_menu
    66 00000000                                 	EXTERN	_sheet_refresh
    67 00000000                                 	EXTERN	_pull_menu
    68 00000000                                 	EXTERN	_change_mtitle8
    69 00000000                                 	EXTERN	_strcmp
    70 00000000                                 	EXTERN	_strcpy
    71 00000000                                 [FILE "bootpack.c"]
    72                                          [SECTION .data]
    73 00000000                                 _keytable0.0:
    74 00000000 00                              	DB	0
    75 00000001 00                              	DB	0
    76 00000002 31                              	DB	49
    77 00000003 32                              	DB	50
    78 00000004 33                              	DB	51
    79 00000005 34                              	DB	52
    80 00000006 35                              	DB	53
    81 00000007 36                              	DB	54
    82 00000008 37                              	DB	55
    83 00000009 38                              	DB	56
    84 0000000A 39                              	DB	57
    85 0000000B 30                              	DB	48
    86 0000000C 2D                              	DB	45
    87 0000000D 5E                              	DB	94
    88 0000000E 08                              	DB	8
    89 0000000F 00                              	DB	0
    90 00000010 51                              	DB	81
    91 00000011 57                              	DB	87
    92 00000012 45                              	DB	69
    93 00000013 52                              	DB	82
    94 00000014 54                              	DB	84
    95 00000015 59                              	DB	89
    96 00000016 55                              	DB	85
    97 00000017 49                              	DB	73
    98 00000018 4F                              	DB	79
    99 00000019 50                              	DB	80
   100 0000001A 40                              	DB	64
   101 0000001B 5B                              	DB	91
   102 0000001C 0A                              	DB	10
   103 0000001D 00                              	DB	0
   104 0000001E 41                              	DB	65
   105 0000001F 53                              	DB	83
   106 00000020 44                              	DB	68
   107 00000021 46                              	DB	70
   108 00000022 47                              	DB	71
   109 00000023 48                              	DB	72
   110 00000024 4A                              	DB	74
   111 00000025 4B                              	DB	75
   112 00000026 4C                              	DB	76
   113 00000027 3B                              	DB	59
   114 00000028 3A                              	DB	58
   115 00000029 00                              	DB	0
   116 0000002A 00                              	DB	0
   117 0000002B 5D                              	DB	93
   118 0000002C 5A                              	DB	90
   119 0000002D 58                              	DB	88
   120 0000002E 43                              	DB	67
   121 0000002F 56                              	DB	86
   122 00000030 42                              	DB	66
   123 00000031 4E                              	DB	78
   124 00000032 4D                              	DB	77
   125 00000033 2C                              	DB	44
   126 00000034 2E                              	DB	46
   127 00000035 2F                              	DB	47
   128 00000036 00                              	DB	0
   129 00000037 2A                              	DB	42
   130 00000038 00                              	DB	0
   131 00000039 20                              	DB	32
   132 0000003A 00                              	DB	0
   133 0000003B 00                              	DB	0
   134 0000003C 00                              	DB	0
   135 0000003D 00                              	DB	0
   136 0000003E 00                              	DB	0
   137 0000003F 00                              	DB	0
   138 00000040 00                              	DB	0
   139 00000041 00                              	DB	0
   140 00000042 00                              	DB	0
   141 00000043 00                              	DB	0
   142 00000044 00                              	DB	0
   143 00000045 00                              	DB	0
   144 00000046 00                              	DB	0
   145 00000047 37                              	DB	55
   146 00000048 38                              	DB	56
   147 00000049 39                              	DB	57
   148 0000004A 2D                              	DB	45
   149 0000004B 34                              	DB	52
   150 0000004C 35                              	DB	53
   151 0000004D 36                              	DB	54
   152 0000004E 2B                              	DB	43
   153 0000004F 31                              	DB	49
   154 00000050 32                              	DB	50
   155 00000051 33                              	DB	51
   156 00000052 30                              	DB	48
   157 00000053 2E                              	DB	46
   158 00000054 00                              	DB	0
   159 00000055 00                              	DB	0
   160 00000056 00                              	DB	0
   161 00000057 00                              	DB	0
   162 00000058 00                              	DB	0
   163 00000059 00                              	DB	0
   164 0000005A 00                              	DB	0
   165 0000005B 00                              	DB	0
   166 0000005C 00                              	DB	0
   167 0000005D 00                              	DB	0
   168 0000005E 00                              	DB	0
   169 0000005F 00                              	DB	0
   170 00000060 00                              	DB	0
   171 00000061 00                              	DB	0
   172 00000062 00                              	DB	0
   173 00000063 00                              	DB	0
   174 00000064 00                              	DB	0
   175 00000065 00                              	DB	0
   176 00000066 00                              	DB	0
   177 00000067 00                              	DB	0
   178 00000068 00                              	DB	0
   179 00000069 00                              	DB	0
   180 0000006A 00                              	DB	0
   181 0000006B 00                              	DB	0
   182 0000006C 00                              	DB	0
   183 0000006D 00                              	DB	0
   184 0000006E 00                              	DB	0
   185 0000006F 00                              	DB	0
   186 00000070 00                              	DB	0
   187 00000071 00                              	DB	0
   188 00000072 00                              	DB	0
   189 00000073 5C                              	DB	92
   190 00000074 00                              	DB	0
   191 00000075 00                              	DB	0
   192 00000076 00                              	DB	0
   193 00000077 00                              	DB	0
   194 00000078 00                              	DB	0
   195 00000079 00                              	DB	0
   196 0000007A 00                              	DB	0
   197 0000007B 00                              	DB	0
   198 0000007C 00                              	DB	0
   199 0000007D 5C                              	DB	92
   200 0000007E 00                              	DB	0
   201 0000007F 00                              	DB	0
   202 00000080                                 _keytable1.1:
   203 00000080 00                              	DB	0
   204 00000081 00                              	DB	0
   205 00000082 21                              	DB	33
   206 00000083 22                              	DB	34
   207 00000084 23                              	DB	35
   208 00000085 24                              	DB	36
   209 00000086 25                              	DB	37
   210 00000087 26                              	DB	38
   211 00000088 27                              	DB	39
   212 00000089 28                              	DB	40
   213 0000008A 29                              	DB	41
   214 0000008B 7E                              	DB	126
   215 0000008C 3D                              	DB	61
   216 0000008D 7E                              	DB	126
   217 0000008E 08                              	DB	8
   218 0000008F 00                              	DB	0
   219 00000090 51                              	DB	81
   220 00000091 57                              	DB	87
   221 00000092 45                              	DB	69
   222 00000093 52                              	DB	82
   223 00000094 54                              	DB	84
   224 00000095 59                              	DB	89
   225 00000096 55                              	DB	85
   226 00000097 49                              	DB	73
   227 00000098 4F                              	DB	79
   228 00000099 50                              	DB	80
   229 0000009A 60                              	DB	96
   230 0000009B 7B                              	DB	123
   231 0000009C 0A                              	DB	10
   232 0000009D 00                              	DB	0
   233 0000009E 41                              	DB	65
   234 0000009F 53                              	DB	83
   235 000000A0 44                              	DB	68
   236 000000A1 46                              	DB	70
   237 000000A2 47                              	DB	71
   238 000000A3 48                              	DB	72
   239 000000A4 4A                              	DB	74
   240 000000A5 4B                              	DB	75
   241 000000A6 4C                              	DB	76
   242 000000A7 2B                              	DB	43
   243 000000A8 2A                              	DB	42
   244 000000A9 00                              	DB	0
   245 000000AA 00                              	DB	0
   246 000000AB 7D                              	DB	125
   247 000000AC 5A                              	DB	90
   248 000000AD 58                              	DB	88
   249 000000AE 43                              	DB	67
   250 000000AF 56                              	DB	86
   251 000000B0 42                              	DB	66
   252 000000B1 4E                              	DB	78
   253 000000B2 4D                              	DB	77
   254 000000B3 3C                              	DB	60
   255 000000B4 3E                              	DB	62
   256 000000B5 3F                              	DB	63
   257 000000B6 00                              	DB	0
   258 000000B7 2A                              	DB	42
   259 000000B8 00                              	DB	0
   260 000000B9 20                              	DB	32
   261 000000BA 00                              	DB	0
   262 000000BB 00                              	DB	0
   263 000000BC 00                              	DB	0
   264 000000BD 00                              	DB	0
   265 000000BE 00                              	DB	0
   266 000000BF 00                              	DB	0
   267 000000C0 00                              	DB	0
   268 000000C1 00                              	DB	0
   269 000000C2 00                              	DB	0
   270 000000C3 00                              	DB	0
   271 000000C4 00                              	DB	0
   272 000000C5 00                              	DB	0
   273 000000C6 00                              	DB	0
   274 000000C7 37                              	DB	55
   275 000000C8 38                              	DB	56
   276 000000C9 39                              	DB	57
   277 000000CA 2D                              	DB	45
   278 000000CB 34                              	DB	52
   279 000000CC 35                              	DB	53
   280 000000CD 36                              	DB	54
   281 000000CE 2B                              	DB	43
   282 000000CF 31                              	DB	49
   283 000000D0 32                              	DB	50
   284 000000D1 33                              	DB	51
   285 000000D2 30                              	DB	48
   286 000000D3 2E                              	DB	46
   287 000000D4 00                              	DB	0
   288 000000D5 00                              	DB	0
   289 000000D6 00                              	DB	0
   290 000000D7 00                              	DB	0
   291 000000D8 00                              	DB	0
   292 000000D9 00                              	DB	0
   293 000000DA 00                              	DB	0
   294 000000DB 00                              	DB	0
   295 000000DC 00                              	DB	0
   296 000000DD 00                              	DB	0
   297 000000DE 00                              	DB	0
   298 000000DF 00                              	DB	0
   299 000000E0 00                              	DB	0
   300 000000E1 00                              	DB	0
   301 000000E2 00                              	DB	0
   302 000000E3 00                              	DB	0
   303 000000E4 00                              	DB	0
   304 000000E5 00                              	DB	0
   305 000000E6 00                              	DB	0
   306 000000E7 00                              	DB	0
   307 000000E8 00                              	DB	0
   308 000000E9 00                              	DB	0
   309 000000EA 00                              	DB	0
   310 000000EB 00                              	DB	0
   311 000000EC 00                              	DB	0
   312 000000ED 00                              	DB	0
   313 000000EE 00                              	DB	0
   314 000000EF 00                              	DB	0
   315 000000F0 00                              	DB	0
   316 000000F1 00                              	DB	0
   317 000000F2 00                              	DB	0
   318 000000F3 5F                              	DB	95
   319 000000F4 00                              	DB	0
   320 000000F5 00                              	DB	0
   321 000000F6 00                              	DB	0
   322 000000F7 00                              	DB	0
   323 000000F8 00                              	DB	0
   324 000000F9 00                              	DB	0
   325 000000FA 00                              	DB	0
   326 000000FB 00                              	DB	0
   327 000000FC 00                              	DB	0
   328 000000FD 7C                              	DB	124
   329 000000FE 00                              	DB	0
   330 000000FF 00                              	DB	0
   331 00000100                                 LC0:
   332 00000100 0A 43 72 65 61 74 65 20 73 68   	DB	0x0A,"Create sheet",0x0A,0x00
       0000010A 65 65 74 0A 00 
   333 0000010F                                 LC2:
   334 0000010F 76 6D 6F 64 65 3C 3E 38 0A 00   	DB	"vmode<>8",0x0A,0x00
   335 00000119                                 LC3:
   336 00000119 73 74 73 6E 6F 3A 25 64 2E 0A   	DB	"stsno:%d.",0x0A,0x00
       00000123 00 
   337 00000124                                 LC4:
   338 00000124 73 74 73 74 6F 3A 25 64 2E 0A   	DB	"ststo:%d.",0x0A,0x00
       0000012E 00 
   339 0000012F                                 LC5:
   340 0000012F 70 73 65 63 3A 25 64 2E 0A 00   	DB	"psec:%d.",0x0A,0x00
   341 00000139                                 LC6:
   342 00000139 73 63 66 74 3A 25 64 2E 0A 00   	DB	"scft:%d.",0x0A,0x00
   343 00000143                                 LC7:
   344 00000143 4F 70 65 6E 20 43 6F 6E 73 6F   	DB	"Open Console",0x0A,0x00
       0000014D 6C 65 0A 00 
   345 00000151                                 LC8:
   346 00000151 62 72 6F 77 73 65 72 00         	DB	"browser",0x00
   347 00000159                                 LC9:
   348 00000159 66 6F 6E 67 20 73 69 7A 65 3A   	DB	"fong size:%d.",0x0A,0x00
       00000163 25 64 2E 0A 00 
   349 00000168                                 LC10:
   350 00000168 4C 6F 61 64 20 46 6F 6E 74 20   	DB	"Load Font from disk",0x0A,0x00
       00000172 66 72 6F 6D 20 64 69 73 6B 0A 
       0000017C 00 
   351 0000017D                                 LC12:
   352 0000017D 4C 6F 61 64 20 46 6F 6E 74 20   	DB	"Load Font End",0x0A,0x00
       00000187 45 6E 64 0A 00 
   353 0000018C                                 LC13:
   354 0000018C 49 6E 69 74 20 4D 65 6E 75 0A   	DB	"Init Menu",0x0A,0x00
       00000196 00 
   355 00000197                                 LC17:
   356 00000197 72 69 67 68 74 3A 25 64 2E 0A   	DB	"right:%d.",0x0A,0x00
       000001A1 00 
   357 000001A2                                 LC18:
   358 000001A2 6C 65 66 74 3A 25 64 2E 0A 00   	DB	"left:%d.",0x0A,0x00
   359 000001AC                                 LC19:
   360 000001AC 0A 42 72 65 61 6B 28 6D 6F 75   	DB	0x0A,"Break(mouse) :",0x0A,0x00
       000001B6 73 65 29 20 3A 0A 00 
   361 000001BD                                 LC16:
   362 000001BD 53 68 69 66 74 2B 46 32 20 4F   	DB	"Shift+F2 Open Console.",0x0A,0x00
       000001C7 70 65 6E 20 43 6F 6E 73 6F 6C 
       000001D1 65 2E 0A 00 
   363 000001D5                                 LC15:
   364 000001D5 0A 42 72 65 61 6B 28 6B 65 79   	DB	0x0A,"Break(key) :(Shift+F1)",0x0A,0x00
       000001DF 29 20 3A 28 53 68 69 66 74 2B 
       000001E9 46 31 29 0A 00 
   365 000001EE                                 LC14:
   366 000001EE 3D 3D 50 72 69 6E 74 20 53 63   	DB	"==Print Screen ==",0x0A,0x00
       000001F8 72 65 65 6E 20 3D 3D 0A 00 
   367 00000201                                 LC11:
   368 00000201 4C 6F 61 64 20 46 6F 6E 74 20   	DB	"Load Font from coding.",0x0A,0x00
       0000020B 66 72 6F 6D 20 63 6F 64 69 6E 
       00000215 67 2E 0A 00 
   369 00000219                                 LC1:
   370 00000219 76 6D 6F 64 65 3D 38 0A 00      	DB	"vmode=8",0x0A,0x00
   371                                          [SECTION .text]
   372 00000000                                 	GLOBAL	_HariMain
   373 00000000                                 _HariMain:
   374 00000000 55                              	PUSH	EBP
   375 00000001 89 E5                           	MOV	EBP,ESP
   376 00000003 57                              	PUSH	EDI
   377 00000004 56                              	PUSH	ESI
   378 00000005 53                              	PUSH	EBX
   379 00000006 8D 5D A4                        	LEA	EBX,DWORD [-92+EBP]
   380 00000009 81 EC 00000634                  	SUB	ESP,1588
   381 0000000F C7 85 FFFFFA10 FFFFFFFF         	MOV	DWORD [-1520+EBP],-1
   382 00000019 C7 85 FFFFFA0C 00000000         	MOV	DWORD [-1524+EBP],0
   383 00000023 C7 85 FFFFFA08 7FFFFFFF         	MOV	DWORD [-1528+EBP],2147483647
   384 0000002D C7 85 FFFFFA04 00000000         	MOV	DWORD [-1532+EBP],0
   385 00000037 C7 85 FFFFF9EC 00000000         	MOV	DWORD [-1556+EBP],0
   386 00000041 C7 85 FFFFF9E4 00000000         	MOV	DWORD [-1564+EBP],0
   387 0000004B A0 000005F1                     	MOV	AL,BYTE [1521]
   388 00000050 C0 F8 04                        	SAR	AL,4
   389 00000053 89 C2                           	MOV	EDX,EAX
   390 00000055 83 E2 07                        	AND	EDX,7
   391 00000058 89 95 FFFFF9E0                  	MOV	DWORD [-1568+EBP],EDX
   392 0000005E C7 85 FFFFF9DC FFFFFFFF         	MOV	DWORD [-1572+EBP],-1
   393 00000068 C7 85 FFFFF9D8 FFFFFFFF         	MOV	DWORD [-1576+EBP],-1
   394 00000072 C7 85 FFFFF9D4 FFFFFFFF         	MOV	DWORD [-1580+EBP],-1
   395 0000007C C7 85 FFFFF9D0 00000000         	MOV	DWORD [-1584+EBP],0
   396 00000086 C7 85 FFFFF9C8 FFFFFFFF         	MOV	DWORD [-1592+EBP],-1
   397 00000090 C6 05 [000002D0] 00             	MOV	BYTE [_fat_flag],0
   398 00000097 E8 [00000000]                   	CALL	_init_gdtidt
   399 0000009C E8 [00000000]                   	CALL	_init_pic
   400 000000A1 E8 [00000000]                   	CALL	_io_sti
   401 000000A6 8D 85 FFFFFDA4                  	LEA	EAX,DWORD [-604+EBP]
   402 000000AC 6A 00                           	PUSH	0
   403 000000AE 50                              	PUSH	EAX
   404 000000AF 68 00000080                     	PUSH	128
   405 000000B4 53                              	PUSH	EBX
   406 000000B5 E8 [00000000]                   	CALL	_fifo32_init
   407 000000BA 89 1D 000005EC                  	MOV	DWORD [1516],EBX
   408 000000C0 E8 [00000000]                   	CALL	_init_pit
   409 000000C5 68 00000100                     	PUSH	256
   410 000000CA 53                              	PUSH	EBX
   411 000000CB E8 [00000000]                   	CALL	_init_keyboard
   412 000000D0 8D 85 FFFFFCF4                  	LEA	EAX,DWORD [-780+EBP]
   413 000000D6 50                              	PUSH	EAX
   414 000000D7 68 00000200                     	PUSH	512
   415 000000DC 53                              	PUSH	EBX
   416 000000DD E8 [00000000]                   	CALL	_enable_mouse
   417 000000E2 83 C4 24                        	ADD	ESP,36
   418 000000E5 68 000000B8                     	PUSH	184
   419 000000EA 6A 21                           	PUSH	33
   420 000000EC E8 [00000000]                   	CALL	_io_out8
   421 000000F1 6A 2F                           	PUSH	47
   422 000000F3 68 000000A1                     	PUSH	161
   423 000000F8 E8 [00000000]                   	CALL	_io_out8
   424 000000FD 8D 85 FFFFFD04                  	LEA	EAX,DWORD [-764+EBP]
   425 00000103 6A 00                           	PUSH	0
   426 00000105 50                              	PUSH	EAX
   427 00000106 8D 85 FFFFFD84                  	LEA	EAX,DWORD [-636+EBP]
   428 0000010C 6A 20                           	PUSH	32
   429 0000010E 50                              	PUSH	EAX
   430 0000010F E8 [00000000]                   	CALL	_fifo32_init
   431 00000114 83 C4 20                        	ADD	ESP,32
   432 00000117 68 BFFFFFFF                     	PUSH	-1073741825
   433 0000011C 68 00400000                     	PUSH	4194304
   434 00000121 E8 [00000000]                   	CALL	_memtest
   435 00000126 68 003C0000                     	PUSH	3932160
   436 0000012B 89 85 FFFFFA00                  	MOV	DWORD [-1536+EBP],EAX
   437 00000131 E8 [00000000]                   	CALL	_memman_init
   438 00000136 68 0009E000                     	PUSH	647168
   439 0000013B 68 00010000                     	PUSH	65536
   440 00000140 68 003C0000                     	PUSH	3932160
   441 00000145 E8 [00000000]                   	CALL	_memman_free
   442 0000014A 8B 85 FFFFFA00                  	MOV	EAX,DWORD [-1536+EBP]
   443 00000150 2D 00400000                     	SUB	EAX,4194304
   444 00000155 50                              	PUSH	EAX
   445 00000156 68 00400000                     	PUSH	4194304
   446 0000015B 68 003C0000                     	PUSH	3932160
   447 00000160 E8 [00000000]                   	CALL	_memman_free
   448 00000165 83 C4 24                        	ADD	ESP,36
   449 00000168 E8 [00000000]                   	CALL	_init_palette
   450 0000016D 0F BF 05 000005F6               	MOVSX	EAX,WORD [1526]
   451 00000174 50                              	PUSH	EAX
   452 00000175 0F BF 05 000005F4               	MOVSX	EAX,WORD [1524]
   453 0000017C 50                              	PUSH	EAX
   454 0000017D FF 35 000005F8                  	PUSH	DWORD [1528]
   455 00000183 68 003C0000                     	PUSH	3932160
   456 00000188 E8 [00000000]                   	CALL	_shtctl_init
   457 0000018D 68 003C0000                     	PUSH	3932160
   458 00000192 89 85 FFFFF9FC                  	MOV	DWORD [-1540+EBP],EAX
   459 00000198 E8 [00000000]                   	CALL	_task_init
   460 0000019D 6A 02                           	PUSH	2
   461 0000019F 6A 01                           	PUSH	1
   462 000001A1 89 85 FFFFF9E8                  	MOV	DWORD [-1560+EBP],EAX
   463 000001A7 50                              	PUSH	EAX
   464 000001A8 89 45 BC                        	MOV	DWORD [-68+EBP],EAX
   465 000001AB E8 [00000000]                   	CALL	_task_run
   466 000001B0 83 C4 20                        	ADD	ESP,32
   467 000001B3 8B 85 FFFFF9E8                  	MOV	EAX,DWORD [-1560+EBP]
   468 000001B9 8B 8D FFFFF9FC                  	MOV	ECX,DWORD [-1540+EBP]
   469 000001BF 89 0D 000005E4                  	MOV	DWORD [1508],ECX
   470 000001C5 C6 80 000000BC 00               	MOV	BYTE [188+EAX],0
   471 000001CC 51                              	PUSH	ECX
   472 000001CD E8 [00000000]                   	CALL	_sheet_alloc
   473 000001D2 0F BF 15 000005F6               	MOVSX	EDX,WORD [1526]
   474 000001D9 89 85 FFFFF9F8                  	MOV	DWORD [-1544+EBP],EAX
   475 000001DF 0F BF 05 000005F4               	MOVSX	EAX,WORD [1524]
   476 000001E6 0F AF C2                        	IMUL	EAX,EDX
   477 000001E9 01 C0                           	ADD	EAX,EAX
   478 000001EB 50                              	PUSH	EAX
   479 000001EC 68 003C0000                     	PUSH	3932160
   480 000001F1 E8 [00000000]                   	CALL	_memman_alloc_4k
   481 000001F6 6A FF                           	PUSH	-1
   482 000001F8 89 C3                           	MOV	EBX,EAX
   483 000001FA 0F BF 05 000005F6               	MOVSX	EAX,WORD [1526]
   484 00000201 50                              	PUSH	EAX
   485 00000202 0F BF 05 000005F4               	MOVSX	EAX,WORD [1524]
   486 00000209 50                              	PUSH	EAX
   487 0000020A 53                              	PUSH	EBX
   488 0000020B FF B5 FFFFF9F8                  	PUSH	DWORD [-1544+EBP]
   489 00000211 E8 [00000000]                   	CALL	_sheet_setbuf
   490 00000216 83 C4 20                        	ADD	ESP,32
   491 00000219 0F BF 05 000005F6               	MOVSX	EAX,WORD [1526]
   492 00000220 50                              	PUSH	EAX
   493 00000221 0F BF 05 000005F4               	MOVSX	EAX,WORD [1524]
   494 00000228 50                              	PUSH	EAX
   495 00000229 53                              	PUSH	EBX
   496 0000022A E8 [00000000]                   	CALL	_init_screen8
   497 0000022F 8B 95 FFFFF9F8                  	MOV	EDX,DWORD [-1544+EBP]
   498 00000235 C7 42 28 00000000               	MOV	DWORD [40+EDX],0
   499 0000023C 52                              	PUSH	EDX
   500 0000023D E8 [00000000]                   	CALL	_dbg_init
   501 00000242 6A 07                           	PUSH	7
   502 00000244 68 [00000100]                   	PUSH	LC0
   503 00000249 E8 [00000000]                   	CALL	_dbg_putstr0
   504 0000024E 83 C4 18                        	ADD	ESP,24
   505 00000251 80 3D 000005F2 08               	CMP	BYTE [1522],8
   506 00000258 0F 84 0000127B                  	JE	L152
   507 0000025E 6A 07                           	PUSH	7
   508 00000260 68 [0000010F]                   	PUSH	LC2
   509 00000265                                 L141:
   510 00000265 8D BD FFFFFA24                  	LEA	EDI,DWORD [-1500+EBP]
   511 0000026B E8 [00000000]                   	CALL	_dbg_putstr0
   512 00000270 59                              	POP	ECX
   513 00000271 8D 95 FFFFFA24                  	LEA	EDX,DWORD [-1500+EBP]
   514 00000277 5B                              	POP	EBX
   515 00000278 B9 00000029                     	MOV	ECX,41
   516 0000027D 31 DB                           	XOR	EBX,EBX
   517 0000027F FC                              	CLD
   518 00000280 88 D8                           	MOV	AL,BL
   519 00000282 F3                              	REP
   520 00000283 AA                              	STOSB
   521 00000284 FF 35 000007C6                  	PUSH	DWORD [1990]
   522 0000028A 68 [00000119]                   	PUSH	LC3
   523 0000028F 8D BD FFFFFA24                  	LEA	EDI,DWORD [-1500+EBP]
   524 00000295 52                              	PUSH	EDX
   525 00000296 E8 [00000000]                   	CALL	_sprintf
   526 0000029B 8D 8D FFFFFA24                  	LEA	ECX,DWORD [-1500+EBP]
   527 000002A1 6A 07                           	PUSH	7
   528 000002A3 51                              	PUSH	ECX
   529 000002A4 E8 [00000000]                   	CALL	_dbg_putstr0
   530 000002A9 8D 95 FFFFFA24                  	LEA	EDX,DWORD [-1500+EBP]
   531 000002AF FC                              	CLD
   532 000002B0 88 D8                           	MOV	AL,BL
   533 000002B2 B9 00000029                     	MOV	ECX,41
   534 000002B7 F3                              	REP
   535 000002B8 AA                              	STOSB
   536 000002B9 FF 35 000007CA                  	PUSH	DWORD [1994]
   537 000002BF 68 [00000124]                   	PUSH	LC4
   538 000002C4 8D BD FFFFFA24                  	LEA	EDI,DWORD [-1500+EBP]
   539 000002CA 52                              	PUSH	EDX
   540 000002CB E8 [00000000]                   	CALL	_sprintf
   541 000002D0 8D 8D FFFFFA24                  	LEA	ECX,DWORD [-1500+EBP]
   542 000002D6 83 C4 20                        	ADD	ESP,32
   543 000002D9 6A 07                           	PUSH	7
   544 000002DB 51                              	PUSH	ECX
   545 000002DC E8 [00000000]                   	CALL	_dbg_putstr0
   546 000002E1 8D 95 FFFFFA24                  	LEA	EDX,DWORD [-1500+EBP]
   547 000002E7 FC                              	CLD
   548 000002E8 88 D8                           	MOV	AL,BL
   549 000002EA B9 00000029                     	MOV	ECX,41
   550 000002EF F3                              	REP
   551 000002F0 AA                              	STOSB
   552 000002F1 0F B7 05 00007C0B               	MOVZX	EAX,WORD [31755]
   553 000002F8 50                              	PUSH	EAX
   554 000002F9 8D BD FFFFFA24                  	LEA	EDI,DWORD [-1500+EBP]
   555 000002FF 68 [0000012F]                   	PUSH	LC5
   556 00000304 52                              	PUSH	EDX
   557 00000305 E8 [00000000]                   	CALL	_sprintf
   558 0000030A 8D 8D FFFFFA24                  	LEA	ECX,DWORD [-1500+EBP]
   559 00000310 6A 07                           	PUSH	7
   560 00000312 51                              	PUSH	ECX
   561 00000313 E8 [00000000]                   	CALL	_dbg_putstr0
   562 00000318 8D 95 FFFFFA24                  	LEA	EDX,DWORD [-1500+EBP]
   563 0000031E FC                              	CLD
   564 0000031F 88 D8                           	MOV	AL,BL
   565 00000321 B9 00000029                     	MOV	ECX,41
   566 00000326 F3                              	REP
   567 00000327 AA                              	STOSB
   568 00000328 0F B7 05 00007C16               	MOVZX	EAX,WORD [31766]
   569 0000032F 50                              	PUSH	EAX
   570 00000330 8D 9D FFFFFAF4                  	LEA	EBX,DWORD [-1292+EBP]
   571 00000336 68 [00000139]                   	PUSH	LC6
   572 0000033B 52                              	PUSH	EDX
   573 0000033C E8 [00000000]                   	CALL	_sprintf
   574 00000341 8D 8D FFFFFA24                  	LEA	ECX,DWORD [-1500+EBP]
   575 00000347 83 C4 28                        	ADD	ESP,40
   576 0000034A 6A 07                           	PUSH	7
   577 0000034C 51                              	PUSH	ECX
   578 0000034D E8 [00000000]                   	CALL	_dbg_putstr0
   579 00000352 FF B5 FFFFFA00                  	PUSH	DWORD [-1536+EBP]
   580 00000358 FF B5 FFFFF9FC                  	PUSH	DWORD [-1540+EBP]
   581 0000035E E8 000012B0                     	CALL	_open_console
   582 00000363 C7 40 28 00000000               	MOV	DWORD [40+EAX],0
   583 0000036A 6A 07                           	PUSH	7
   584 0000036C 89 85 FFFFF9F0                  	MOV	DWORD [-1552+EBP],EAX
   585 00000372 68 [00000143]                   	PUSH	LC7
   586 00000377 E8 [00000000]                   	CALL	_dbg_putstr0
   587 0000037C FF B5 FFFFF9FC                  	PUSH	DWORD [-1540+EBP]
   588 00000382 E8 [00000000]                   	CALL	_sheet_alloc
   589 00000387 6A 63                           	PUSH	99
   590 00000389 6A 10                           	PUSH	16
   591 0000038B 6A 10                           	PUSH	16
   592 0000038D 89 85 FFFFF9F4                  	MOV	DWORD [-1548+EBP],EAX
   593 00000393 53                              	PUSH	EBX
   594 00000394 50                              	PUSH	EAX
   595 00000395 E8 [00000000]                   	CALL	_sheet_setbuf
   596 0000039A 83 C4 30                        	ADD	ESP,48
   597 0000039D 6A 63                           	PUSH	99
   598 0000039F 53                              	PUSH	EBX
   599 000003A0 E8 [00000000]                   	CALL	_init_mouse_cursor8
   600 000003A5 FF B5 FFFFF9FC                  	PUSH	DWORD [-1540+EBP]
   601 000003AB E8 [00000000]                   	CALL	_sheet_alloc
   602 000003B0 68 00075300                     	PUSH	480000
   603 000003B5 68 003C0000                     	PUSH	3932160
   604 000003BA 89 C3                           	MOV	EBX,EAX
   605 000003BC E8 [00000000]                   	CALL	_memman_alloc_4k
   606 000003C1 6A 63                           	PUSH	99
   607 000003C3 68 00000190                     	PUSH	400
   608 000003C8 89 C6                           	MOV	ESI,EAX
   609 000003CA 68 00000258                     	PUSH	600
   610 000003CF 50                              	PUSH	EAX
   611 000003D0 53                              	PUSH	EBX
   612 000003D1 E8 [00000000]                   	CALL	_sheet_setbuf
   613 000003D6 83 C4 28                        	ADD	ESP,40
   614 000003D9 6A 00                           	PUSH	0
   615 000003DB 68 [00000151]                   	PUSH	LC8
   616 000003E0 68 00000190                     	PUSH	400
   617 000003E5 68 00000258                     	PUSH	600
   618 000003EA 56                              	PUSH	ESI
   619 000003EB E8 [00000000]                   	CALL	_make_window8
   620 000003F0 E8 [00000000]                   	CALL	_task_alloc
   621 000003F5 89 43 24                        	MOV	DWORD [36+EBX],EAX
   622 000003F8 68 00000200                     	PUSH	512
   623 000003FD 68 003C0000                     	PUSH	3932160
   624 00000402 E8 [00000000]                   	CALL	_memman_alloc_4k
   625 00000407 8B 73 24                        	MOV	ESI,DWORD [36+EBX]
   626 0000040A 68 00010000                     	PUSH	65536
   627 0000040F 89 C7                           	MOV	EDI,EAX
   628 00000411 68 003C0000                     	PUSH	3932160
   629 00000416 E8 [00000000]                   	CALL	_memman_alloc_4k
   630 0000041B 83 C4 24                        	ADD	ESP,36
   631 0000041E 05 0000FFF8                     	ADD	EAX,65528
   632 00000423 89 46 64                        	MOV	DWORD [100+ESI],EAX
   633 00000426 BE 00000002                     	MOV	ESI,2
   634 0000042B 8B 43 24                        	MOV	EAX,DWORD [36+EBX]
   635 0000042E C7 80 000000BE 776F7262         	MOV	DWORD [190+EAX],2003792482
   636 00000438 C7 80 000000C2 00726573         	MOV	DWORD [194+EAX],7497075
   637 00000442 8B 53 24                        	MOV	EDX,DWORD [36+EBX]
   638 00000445 C7 40 4C [00000000]             	MOV	DWORD [76+EAX],_browser_task
   639 0000044C C7 40 74 00000008               	MOV	DWORD [116+EAX],8
   640 00000453 C7 40 78 00000010               	MOV	DWORD [120+EAX],16
   641 0000045A C7 40 7C 00000008               	MOV	DWORD [124+EAX],8
   642 00000461 C7 80 00000080 00000008         	MOV	DWORD [128+EAX],8
   643 0000046B C7 80 00000084 00000008         	MOV	DWORD [132+EAX],8
   644 00000475 C7 80 00000088 00000008         	MOV	DWORD [136+EAX],8
   645 0000047F 8B 42 64                        	MOV	EAX,DWORD [100+EDX]
   646 00000482 89 58 04                        	MOV	DWORD [4+EAX],EBX
   647 00000485 8B 42 64                        	MOV	EAX,DWORD [100+EDX]
   648 00000488 8B 95 FFFFFA00                  	MOV	EDX,DWORD [-1536+EBP]
   649 0000048E 89 50 08                        	MOV	DWORD [8+EAX],EDX
   650 00000491 6A 02                           	PUSH	2
   651 00000493 6A 03                           	PUSH	3
   652 00000495 FF 73 24                        	PUSH	DWORD [36+EBX]
   653 00000498 E8 [00000000]                   	CALL	_task_run
   654 0000049D FF 73 24                        	PUSH	DWORD [36+EBX]
   655 000004A0 57                              	PUSH	EDI
   656 000004A1 68 00000080                     	PUSH	128
   657 000004A6 8B 43 24                        	MOV	EAX,DWORD [36+EBX]
   658 000004A9 83 C0 10                        	ADD	EAX,16
   659 000004AC 50                              	PUSH	EAX
   660 000004AD E8 [00000000]                   	CALL	_fifo32_init
   661 000004B2 0F BF 05 000005F4               	MOVSX	EAX,WORD [1524]
   662 000004B9 C7 43 28 [00000000]             	MOV	DWORD [40+EBX],_brow_callback
   663 000004C0 8D 48 F0                        	LEA	ECX,DWORD [-16+EAX]
   664 000004C3 89 C8                           	MOV	EAX,ECX
   665 000004C5 99                              	CDQ
   666 000004C6 F7 FE                           	IDIV	ESI
   667 000004C8 89 85 FFFFFA18                  	MOV	DWORD [-1512+EBP],EAX
   668 000004CE 0F BF 05 000005F6               	MOVSX	EAX,WORD [1526]
   669 000004D5 6A 00                           	PUSH	0
   670 000004D7 8D 48 D4                        	LEA	ECX,DWORD [-44+EAX]
   671 000004DA 6A 00                           	PUSH	0
   672 000004DC 89 C8                           	MOV	EAX,ECX
   673 000004DE 99                              	CDQ
   674 000004DF F7 FE                           	IDIV	ESI
   675 000004E1 FF B5 FFFFF9F8                  	PUSH	DWORD [-1544+EBP]
   676 000004E7 89 85 FFFFFA14                  	MOV	DWORD [-1516+EBP],EAX
   677 000004ED E8 [00000000]                   	CALL	_sheet_slide
   678 000004F2 83 C4 28                        	ADD	ESP,40
   679 000004F5 6A 10                           	PUSH	16
   680 000004F7 68 00000094                     	PUSH	148
   681 000004FC FF B5 FFFFF9F0                  	PUSH	DWORD [-1552+EBP]
   682 00000502 E8 [00000000]                   	CALL	_sheet_slide
   683 00000507 FF B5 FFFFFA14                  	PUSH	DWORD [-1516+EBP]
   684 0000050D FF B5 FFFFFA18                  	PUSH	DWORD [-1512+EBP]
   685 00000513 FF B5 FFFFF9F4                  	PUSH	DWORD [-1548+EBP]
   686 00000519 E8 [00000000]                   	CALL	_sheet_slide
   687 0000051E 6A 08                           	PUSH	8
   688 00000520 68 00000090                     	PUSH	144
   689 00000525 53                              	PUSH	EBX
   690 00000526 E8 [00000000]                   	CALL	_sheet_slide
   691 0000052B 83 C4 24                        	ADD	ESP,36
   692 0000052E 6A 00                           	PUSH	0
   693 00000530 FF B5 FFFFF9F8                  	PUSH	DWORD [-1544+EBP]
   694 00000536 E8 [00000000]                   	CALL	_sheet_updown
   695 0000053B 6A 01                           	PUSH	1
   696 0000053D 53                              	PUSH	EBX
   697 0000053E 8D 9D FFFFFD84                  	LEA	EBX,DWORD [-636+EBP]
   698 00000544 E8 [00000000]                   	CALL	_sheet_updown
   699 00000549 6A 02                           	PUSH	2
   700 0000054B FF B5 FFFFF9F0                  	PUSH	DWORD [-1552+EBP]
   701 00000551 E8 [00000000]                   	CALL	_sheet_updown
   702 00000556 6A 03                           	PUSH	3
   703 00000558 FF B5 FFFFF9F4                  	PUSH	DWORD [-1548+EBP]
   704 0000055E E8 [00000000]                   	CALL	_sheet_updown
   705 00000563 83 C4 20                        	ADD	ESP,32
   706 00000566 FF B5 FFFFF9F0                  	PUSH	DWORD [-1552+EBP]
   707 0000056C E8 00000FAE                     	CALL	_keywin_on
   708 00000571 E8 [00000000]                   	CALL	_io_cli
   709 00000576 68 000000ED                     	PUSH	237
   710 0000057B 53                              	PUSH	EBX
   711 0000057C E8 [00000000]                   	CALL	_fifo32_put
   712 00000581 FF B5 FFFFF9E0                  	PUSH	DWORD [-1568+EBP]
   713 00000587 53                              	PUSH	EBX
   714 00000588 E8 [00000000]                   	CALL	_fifo32_put
   715 0000058D E8 [00000000]                   	CALL	_io_sti
   716 00000592 31 C0                           	XOR	EAX,EAX
   717 00000594 83 C4 14                        	ADD	ESP,20
   718 00000597 85 C0                           	TEST	EAX,EAX
   719 00000599 0F 84 00000EC9                  	JE	L4
   720 0000059F 8A 15 0000000B                  	MOV	DL,BYTE [11]
   721 000005A5 83 E2 18                        	AND	EDX,24
   722 000005A8 0F 85 00000EBA                  	JNE	L4
   723 000005AE A1 0000001C                     	MOV	EAX,DWORD [28]
   724 000005B3 B9 00000029                     	MOV	ECX,41
   725 000005B8 FC                              	CLD
   726 000005B9 89 85 FFFFFA20                  	MOV	DWORD [-1504+EBP],EAX
   727 000005BF 8D BD FFFFFA24                  	LEA	EDI,DWORD [-1500+EBP]
   728 000005C5 88 D0                           	MOV	AL,DL
   729 000005C7 8D 95 FFFFFA24                  	LEA	EDX,DWORD [-1500+EBP]
   730 000005CD F3                              	REP
   731 000005CE AA                              	STOSB
   732 000005CF FF B5 FFFFFA20                  	PUSH	DWORD [-1504+EBP]
   733 000005D5 68 [00000159]                   	PUSH	LC9
   734 000005DA 52                              	PUSH	EDX
   735 000005DB E8 [00000000]                   	CALL	_sprintf
   736 000005E0 8D 8D FFFFFA24                  	LEA	ECX,DWORD [-1500+EBP]
   737 000005E6 6A 07                           	PUSH	7
   738 000005E8 51                              	PUSH	ECX
   739 000005E9 E8 [00000000]                   	CALL	_dbg_putstr0
   740 000005EE 8D 85 FFFFFA20                  	LEA	EAX,DWORD [-1504+EBP]
   741 000005F4 FF 35 [000002CC]                	PUSH	DWORD [_u_fat]
   742 000005FA 50                              	PUSH	EAX
   743 000005FB 0F B7 05 0000001A               	MOVZX	EAX,WORD [26]
   744 00000602 50                              	PUSH	EAX
   745 00000603 E8 [00000000]                   	CALL	_file_loadfile2
   746 00000608 83 C4 20                        	ADD	ESP,32
   747 0000060B 89 C3                           	MOV	EBX,EAX
   748 0000060D 6A 07                           	PUSH	7
   749 0000060F 68 [00000168]                   	PUSH	LC10
   750 00000614                                 L142:
   751 00000614 E8 [00000000]                   	CALL	_dbg_putstr0
   752 00000619 5E                              	POP	ESI
   753 0000061A 5F                              	POP	EDI
   754 0000061B 89 1D 000005E8                  	MOV	DWORD [1512],EBX
   755 00000621 6A 07                           	PUSH	7
   756 00000623 68 [0000017D]                   	PUSH	LC12
   757 00000628 E8 [00000000]                   	CALL	_dbg_putstr0
   758 0000062D 8D 85 FFFFFA1C                  	LEA	EAX,DWORD [-1508+EBP]
   759 00000633 50                              	PUSH	EAX
   760 00000634 8D 85 FFFFFA54                  	LEA	EAX,DWORD [-1452+EBP]
   761 0000063A 50                              	PUSH	EAX
   762 0000063B E8 00001739                     	CALL	_init_menu
   763 00000640 6A 07                           	PUSH	7
   764 00000642 68 [0000018C]                   	PUSH	LC13
   765 00000647 E8 [00000000]                   	CALL	_dbg_putstr0
   766 0000064C E8 [00000000]                   	CALL	_task_alloc
   767 00000651 68 00000200                     	PUSH	512
   768 00000656 68 003C0000                     	PUSH	3932160
   769 0000065B 89 C6                           	MOV	ESI,EAX
   770 0000065D E8 [00000000]                   	CALL	_memman_alloc_4k
   771 00000662 83 C4 20                        	ADD	ESP,32
   772 00000665 89 C3                           	MOV	EBX,EAX
   773 00000667 68 00010000                     	PUSH	65536
   774 0000066C 68 003C0000                     	PUSH	3932160
   775 00000671 E8 [00000000]                   	CALL	_memman_alloc_4k
   776 00000676 05 00010000                     	ADD	EAX,65536
   777 0000067B 89 46 64                        	MOV	DWORD [100+ESI],EAX
   778 0000067E C7 46 4C [00000000]             	MOV	DWORD [76+ESI],_sysclock_task
   779 00000685 C7 46 74 00000008               	MOV	DWORD [116+ESI],8
   780 0000068C C7 46 78 00000010               	MOV	DWORD [120+ESI],16
   781 00000693 C7 46 7C 00000008               	MOV	DWORD [124+ESI],8
   782 0000069A C7 86 00000080 00000008         	MOV	DWORD [128+ESI],8
   783 000006A4 C7 86 00000084 00000008         	MOV	DWORD [132+ESI],8
   784 000006AE C7 86 00000088 00000008         	MOV	DWORD [136+ESI],8
   785 000006B8 C7 86 000000BE 63737973         	MOV	DWORD [190+ESI],1668512115
   786 000006C2 C7 86 000000C2 6B636F6C         	MOV	DWORD [194+ESI],1801678700
   787 000006CC C6 86 000000C6 00               	MOV	BYTE [198+ESI],0
   788 000006D3 6A 02                           	PUSH	2
   789 000006D5 6A 01                           	PUSH	1
   790 000006D7 56                              	PUSH	ESI
   791 000006D8 E8 [00000000]                   	CALL	_task_run
   792 000006DD 8D 46 10                        	LEA	EAX,DWORD [16+ESI]
   793 000006E0 C6 86 000000BC 00               	MOV	BYTE [188+ESI],0
   794 000006E7 56                              	PUSH	ESI
   795 000006E8 53                              	PUSH	EBX
   796 000006E9 68 00000080                     	PUSH	128
   797 000006EE 50                              	PUSH	EAX
   798 000006EF E8 [00000000]                   	CALL	_fifo32_init
   799 000006F4 83 C4 24                        	ADD	ESP,36
   800 000006F7                                 L16:
   801 000006F7 8D 9D FFFFFD84                  	LEA	EBX,DWORD [-636+EBP]
   802 000006FD 53                              	PUSH	EBX
   803 000006FE E8 [00000000]                   	CALL	_fifo32_status
   804 00000703 59                              	POP	ECX
   805 00000704 85 C0                           	TEST	EAX,EAX
   806 00000706 7E 0D                           	JLE	L19
   807 00000708 83 BD FFFFF9DC 00               	CMP	DWORD [-1572+EBP],0
   808 0000070F 0F 88 00000D2D                  	JS	L153
   809 00000715                                 L19:
   810 00000715 8D 5D A4                        	LEA	EBX,DWORD [-92+EBP]
   811 00000718 E8 [00000000]                   	CALL	_io_cli
   812 0000071D 53                              	PUSH	EBX
   813 0000071E E8 [00000000]                   	CALL	_fifo32_status
   814 00000723 5A                              	POP	EDX
   815 00000724 85 C0                           	TEST	EAX,EAX
   816 00000726 0F 84 00000ADB                  	JE	L154
   817 0000072C 53                              	PUSH	EBX
   818 0000072D E8 [00000000]                   	CALL	_fifo32_get
   819 00000732 89 85 FFFFFA20                  	MOV	DWORD [-1504+EBP],EAX
   820 00000738 E8 [00000000]                   	CALL	_io_sti
   821 0000073D 5E                              	POP	ESI
   822 0000073E 83 BD FFFFF9F0 00               	CMP	DWORD [-1552+EBP],0
   823 00000745 74 3B                           	JE	L46
   824 00000747 8B 95 FFFFF9F0                  	MOV	EDX,DWORD [-1552+EBP]
   825 0000074D 83 7A 1C 00                     	CMP	DWORD [28+EDX],0
   826 00000751 75 2F                           	JNE	L46
   827 00000753 8B 8D FFFFF9FC                  	MOV	ECX,DWORD [-1540+EBP]
   828 00000759 C7 85 FFFFF9F0 00000000         	MOV	DWORD [-1552+EBP],0
   829 00000763 8B 41 10                        	MOV	EAX,DWORD [16+ECX]
   830 00000766 83 F8 01                        	CMP	EAX,1
   831 00000769 74 17                           	JE	L46
   832 0000076B 8B 95 FFFFF9FC                  	MOV	EDX,DWORD [-1540+EBP]
   833 00000771 8B 44 82 10                     	MOV	EAX,DWORD [16+EDX+EAX*4]
   834 00000775 50                              	PUSH	EAX
   835 00000776 89 85 FFFFF9F0                  	MOV	DWORD [-1552+EBP],EAX
   836 0000077C E8 00000D9E                     	CALL	_keywin_on
   837 00000781 5B                              	POP	EBX
   838 00000782                                 L46:
   839 00000782 8B 95 FFFFFA20                  	MOV	EDX,DWORD [-1504+EBP]
   840 00000788 8D 82 FFFFFF00                  	LEA	EAX,DWORD [-256+EDX]
   841 0000078E 3D 000000FF                     	CMP	EAX,255
   842 00000793 0F 86 0000065D                  	JBE	L50
   843 00000799 8D 82 FFFFEF00                  	LEA	EAX,DWORD [-4352+EDX]
   844 0000079F 3D 000000FF                     	CMP	EAX,255
   845 000007A4 0F 86 0000064C                  	JBE	L50
   846 000007AA 8D 82 FFFFFE00                  	LEA	EAX,DWORD [-512+EDX]
   847 000007B0 3D 000000FF                     	CMP	EAX,255
   848 000007B5 0F 86 000000A9                  	JBE	L155
   849 000007BB 8D 82 FFFFFD00                  	LEA	EAX,DWORD [-768+EDX]
   850 000007C1 3D 000000FF                     	CMP	EAX,255
   851 000007C6 0F 86 00000080                  	JBE	L156
   852 000007CC 8D 82 FFFFFC00                  	LEA	EAX,DWORD [-1024+EDX]
   853 000007D2 3D 000003E7                     	CMP	EAX,999
   854 000007D7 76 55                           	JBE	L157
   855 000007D9 8D 82 FFFFF818                  	LEA	EAX,DWORD [-2024+EDX]
   856 000007DF 3D 000000FF                     	CMP	EAX,255
   857 000007E4 76 16                           	JBE	L158
   858 000007E6 81 FA 000008E8                  	CMP	EDX,2280
   859 000007EC 0F 85 FFFFFF05                  	JNE	L16
   860 000007F2 E8 0000108B                     	CALL	_close_taskmgr
   861 000007F7 E9 FFFFFEFB                     	JMP	L16
   862 000007FC                                 L158:
   863 000007FC 6B C2 2C                        	IMUL	EAX,EDX,44
   864 000007FF 03 85 FFFFF9FC                  	ADD	EAX,DWORD [-1540+EBP]
   865 00000805 68 0000A500                     	PUSH	42240
   866 0000080A FF B0 FFFEA834                  	PUSH	DWORD [-88012+EAX]
   867 00000810 68 003C0000                     	PUSH	3932160
   868 00000815 8D 98 FFFEA834                  	LEA	EBX,DWORD [-88012+EAX]
   869 0000081B E8 [00000000]                   	CALL	_memman_free_4k
   870 00000820 53                              	PUSH	EBX
   871 00000821 E8 [00000000]                   	CALL	_sheet_free
   872 00000826 83 C4 10                        	ADD	ESP,16
   873 00000829 E9 FFFFFEC9                     	JMP	L16
   874 0000082E                                 L157:
   875 0000082E 69 D2 000000D2                  	IMUL	EDX,EDX,210
   876 00000834 03 15 [00000000]                	ADD	EDX,DWORD [_taskctl]
   877 0000083A 8D 82 FFFCC7F5                  	LEA	EAX,DWORD [-210955+EDX]
   878 00000840 50                              	PUSH	EAX
   879 00000841 E8 00000E58                     	CALL	_close_constask
   880 00000846                                 L143:
   881 00000846 58                              	POP	EAX
   882 00000847 E9 FFFFFEAB                     	JMP	L16
   883 0000084C                                 L156:
   884 0000084C 6B C2 2C                        	IMUL	EAX,EDX,44
   885 0000084F 8B 8D FFFFF9FC                  	MOV	ECX,DWORD [-1540+EBP]
   886 00000855 8D 84 08 FFFF8014               	LEA	EAX,DWORD [-32748+EAX+ECX*1]
   887 0000085C 50                              	PUSH	EAX
   888 0000085D E8 00000E88                     	CALL	_close_console
   889 00000862 EB E2                           	JMP	L143
   890 00000864                                 L155:
   891 00000864 0F B6 85 FFFFFA20               	MOVZX	EAX,BYTE [-1504+EBP]
   892 0000086B 50                              	PUSH	EAX
   893 0000086C 8D 85 FFFFFCF4                  	LEA	EAX,DWORD [-780+EBP]
   894 00000872 50                              	PUSH	EAX
   895 00000873 E8 [00000000]                   	CALL	_mouse_decode
   896 00000878 5A                              	POP	EDX
   897 00000879 59                              	POP	ECX
   898 0000087A 85 C0                           	TEST	EAX,EAX
   899 0000087C 0F 84 FFFFFE75                  	JE	L16
   900 00000882 8B 8D FFFFFCFC                  	MOV	ECX,DWORD [-772+EBP]
   901 00000888 8B 85 FFFFFCF8                  	MOV	EAX,DWORD [-776+EBP]
   902 0000088E 01 8D FFFFFA14                  	ADD	DWORD [-1516+EBP],ECX
   903 00000894 01 85 FFFFFA18                  	ADD	DWORD [-1512+EBP],EAX
   904 0000089A 0F 88 00000547                  	JS	L159
   905 000008A0                                 L87:
   906 000008A0 83 BD FFFFFA14 00               	CMP	DWORD [-1516+EBP],0
   907 000008A7 0F 88 0000052B                  	JS	L160
   908 000008AD                                 L88:
   909 000008AD 0F BF 05 000005F4               	MOVSX	EAX,WORD [1524]
   910 000008B4 48                              	DEC	EAX
   911 000008B5 39 85 FFFFFA18                  	CMP	DWORD [-1512+EBP],EAX
   912 000008BB 7E 06                           	JLE	L89
   913 000008BD 89 85 FFFFFA18                  	MOV	DWORD [-1512+EBP],EAX
   914 000008C3                                 L89:
   915 000008C3 0F BF 05 000005F6               	MOVSX	EAX,WORD [1526]
   916 000008CA 48                              	DEC	EAX
   917 000008CB 39 85 FFFFFA14                  	CMP	DWORD [-1516+EBP],EAX
   918 000008D1 7E 06                           	JLE	L90
   919 000008D3 89 85 FFFFFA14                  	MOV	DWORD [-1516+EBP],EAX
   920 000008D9                                 L90:
   921 000008D9 8B 95 FFFFFA18                  	MOV	EDX,DWORD [-1512+EBP]
   922 000008DF 8B 8D FFFFFA14                  	MOV	ECX,DWORD [-1516+EBP]
   923 000008E5 89 95 FFFFFA10                  	MOV	DWORD [-1520+EBP],EDX
   924 000008EB 89 8D FFFFFA0C                  	MOV	DWORD [-1524+EBP],ECX
   925 000008F1 F7 85 FFFFFD00 00000002         	TEST	DWORD [-768+EBP],2
   926 000008FB 74 7B                           	JE	L93
   927 000008FD FC                              	CLD
   928 000008FE 31 C0                           	XOR	EAX,EAX
   929 00000900 8D BD FFFFFA24                  	LEA	EDI,DWORD [-1500+EBP]
   930 00000906 B9 00000029                     	MOV	ECX,41
   931 0000090B 8D 9D FFFFFA24                  	LEA	EBX,DWORD [-1500+EBP]
   932 00000911 F3                              	REP
   933 00000912 AA                              	STOSB
   934 00000913 FF B5 FFFFFD00                  	PUSH	DWORD [-768+EBP]
   935 00000919 68 [00000197]                   	PUSH	LC17
   936 0000091E 53                              	PUSH	EBX
   937 0000091F E8 [00000000]                   	CALL	_sprintf
   938 00000924 6A 07                           	PUSH	7
   939 00000926 53                              	PUSH	EBX
   940 00000927 E8 [00000000]                   	CALL	_dbg_putstr0
   941 0000092C 83 C4 14                        	ADD	ESP,20
   942 0000092F 81 BD FFFFFA20 000001FF         	CMP	DWORD [-1504+EBP],511
   943 00000939 7E 2D                           	JLE	L92
   944 0000093B 83 BD FFFFF9F0 00               	CMP	DWORD [-1552+EBP],0
   945 00000942 74 24                           	JE	L92
   946 00000944 E8 [00000000]                   	CALL	_io_cli
   947 00000949 8B 95 FFFFF9F0                  	MOV	EDX,DWORD [-1552+EBP]
   948 0000094F FF B5 FFFFFA20                  	PUSH	DWORD [-1504+EBP]
   949 00000955 8B 42 24                        	MOV	EAX,DWORD [36+EDX]
   950 00000958 83 C0 10                        	ADD	EAX,16
   951 0000095B 50                              	PUSH	EAX
   952 0000095C E8 [00000000]                   	CALL	_fifo32_put
   953 00000961 E8 [00000000]                   	CALL	_io_sti
   954 00000966 5E                              	POP	ESI
   955 00000967 5F                              	POP	EDI
   956 00000968                                 L92:
   957 00000968 6A 63                           	PUSH	99
   958 0000096A 8D 85 FFFFFAF4                  	LEA	EAX,DWORD [-1292+EBP]
   959 00000970 50                              	PUSH	EAX
   960 00000971 E8 [00000000]                   	CALL	_set_mouse_cursorl8
   961 00000976 59                              	POP	ECX
   962 00000977 5B                              	POP	EBX
   963 00000978                                 L93:
   964 00000978 F7 85 FFFFFD00 00000001         	TEST	DWORD [-768+EBP],1
   965 00000982 75 7D                           	JNE	L161
   966 00000984 C7 85 FFFFF9D8 FFFFFFFF         	MOV	DWORD [-1576+EBP],-1
   967 0000098E 81 BD FFFFFA08 7FFFFFFF         	CMP	DWORD [-1528+EBP],2147483647
   968 00000998 75 44                           	JNE	L151
   969 0000099A 83 BD FFFFF9C8 FF               	CMP	DWORD [-1592+EBP],-1
   970 000009A1 0F 84 FFFFFD50                  	JE	L16
   971 000009A7 6B 95 FFFFF9C8 14               	IMUL	EDX,DWORD [-1592+EBP],20
   972 000009AE 8B B5 FFFFFA14                  	MOV	ESI,DWORD [-1516+EBP]
   973 000009B4 8B BD FFFFFA18                  	MOV	EDI,DWORD [-1512+EBP]
   974 000009BA 8B 84 15 FFFFFA58               	MOV	EAX,DWORD [-1448+EBP+EDX*1]
   975 000009C1 2B 70 10                        	SUB	ESI,DWORD [16+EAX]
   976 000009C4 2B 78 0C                        	SUB	EDI,DWORD [12+EAX]
   977 000009C7 56                              	PUSH	ESI
   978 000009C8 8D 84 2A FFFFFA54               	LEA	EAX,DWORD [-1452+EDX+EBP*1]
   979 000009CF 57                              	PUSH	EDI
   980 000009D0 50                              	PUSH	EAX
   981 000009D1 E8 000010BF                     	CALL	_select_menu
   982 000009D6                                 L144:
   983 000009D6 83 C4 0C                        	ADD	ESP,12
   984 000009D9 E9 FFFFFD19                     	JMP	L16
   985 000009DE                                 L151:
   986 000009DE FF B5 FFFFFA04                  	PUSH	DWORD [-1532+EBP]
   987 000009E4 FF B5 FFFFFA08                  	PUSH	DWORD [-1528+EBP]
   988 000009EA FF B5 FFFFF9EC                  	PUSH	DWORD [-1556+EBP]
   989 000009F0 E8 [00000000]                   	CALL	_sheet_slide
   990 000009F5 C7 85 FFFFFA08 7FFFFFFF         	MOV	DWORD [-1528+EBP],2147483647
   991 000009FF EB D5                           	JMP	L144
   992 00000A01                                 L161:
   993 00000A01 FC                              	CLD
   994 00000A02 31 C0                           	XOR	EAX,EAX
   995 00000A04 8D BD FFFFFA24                  	LEA	EDI,DWORD [-1500+EBP]
   996 00000A0A B9 00000029                     	MOV	ECX,41
   997 00000A0F 8D 9D FFFFFA24                  	LEA	EBX,DWORD [-1500+EBP]
   998 00000A15 F3                              	REP
   999 00000A16 AA                              	STOSB
  1000 00000A17 FF B5 FFFFFD00                  	PUSH	DWORD [-768+EBP]
  1001 00000A1D 68 [000001A2]                   	PUSH	LC18
  1002 00000A22 53                              	PUSH	EBX
  1003 00000A23 E8 [00000000]                   	CALL	_sprintf
  1004 00000A28 6A 07                           	PUSH	7
  1005 00000A2A 53                              	PUSH	EBX
  1006 00000A2B E8 [00000000]                   	CALL	_dbg_putstr0
  1007 00000A30 8D 85 FFFFFAF4                  	LEA	EAX,DWORD [-1292+EBP]
  1008 00000A36 6A 63                           	PUSH	99
  1009 00000A38 50                              	PUSH	EAX
  1010 00000A39 E8 [00000000]                   	CALL	_init_mouse_cursor8
  1011 00000A3E 83 C4 1C                        	ADD	ESP,28
  1012 00000A41 81 BD FFFFFA20 000001FF         	CMP	DWORD [-1504+EBP],511
  1013 00000A4B 7E 2D                           	JLE	L95
  1014 00000A4D 83 BD FFFFF9F0 00               	CMP	DWORD [-1552+EBP],0
  1015 00000A54 74 24                           	JE	L95
  1016 00000A56 E8 [00000000]                   	CALL	_io_cli
  1017 00000A5B 8B 8D FFFFF9F0                  	MOV	ECX,DWORD [-1552+EBP]
  1018 00000A61 FF B5 FFFFFA20                  	PUSH	DWORD [-1504+EBP]
  1019 00000A67 8B 41 24                        	MOV	EAX,DWORD [36+ECX]
  1020 00000A6A 83 C0 10                        	ADD	EAX,16
  1021 00000A6D 50                              	PUSH	EAX
  1022 00000A6E E8 [00000000]                   	CALL	_fifo32_put
  1023 00000A73 E8 [00000000]                   	CALL	_io_sti
  1024 00000A78 58                              	POP	EAX
  1025 00000A79 5A                              	POP	EDX
  1026 00000A7A                                 L95:
  1027 00000A7A 83 BD FFFFF9D8 00               	CMP	DWORD [-1576+EBP],0
  1028 00000A81 78 46                           	JS	L162
  1029 00000A83 8B BD FFFFFA18                  	MOV	EDI,DWORD [-1512+EBP]
  1030 00000A89 8B 85 FFFFF9D0                  	MOV	EAX,DWORD [-1584+EBP]
  1031 00000A8F 2B BD FFFFF9D8                  	SUB	EDI,DWORD [-1576+EBP]
  1032 00000A95 8B B5 FFFFFA14                  	MOV	ESI,DWORD [-1516+EBP]
  1033 00000A9B 2B B5 FFFFF9D4                  	SUB	ESI,DWORD [-1580+EBP]
  1034 00000AA1 8B 95 FFFFFA14                  	MOV	EDX,DWORD [-1516+EBP]
  1035 00000AA7 8D 7C 07 02                     	LEA	EDI,DWORD [2+EDI+EAX*1]
  1036 00000AAB 89 95 FFFFF9D4                  	MOV	DWORD [-1580+EBP],EDX
  1037 00000AB1 89 BD FFFFFA08                  	MOV	DWORD [-1528+EBP],EDI
  1038 00000AB7 01 B5 FFFFFA04                  	ADD	DWORD [-1532+EBP],ESI
  1039 00000ABD 83 A5 FFFFFA08 FC               	AND	DWORD [-1528+EBP],-4
  1040 00000AC4 E9 FFFFFC2E                     	JMP	L16
  1041 00000AC9                                 L162:
  1042 00000AC9 83 BD FFFFF9C8 FF               	CMP	DWORD [-1592+EBP],-1
  1043 00000AD0 0F 85 000002A1                  	JNE	L163
  1044 00000AD6 8B 95 FFFFF9FC                  	MOV	EDX,DWORD [-1540+EBP]
  1045 00000ADC C7 85 FFFFF9CC 00000000         	MOV	DWORD [-1588+EBP],0
  1046 00000AE6 8B 5A 10                        	MOV	EBX,DWORD [16+EDX]
  1047 00000AE9 8D 4B FF                        	LEA	ECX,DWORD [-1+EBX]
  1048 00000AEC 85 C9                           	TEST	ECX,ECX
  1049 00000AEE 7E 6B                           	JLE	L106
  1050 00000AF0                                 L117:
  1051 00000AF0 8B 85 FFFFF9FC                  	MOV	EAX,DWORD [-1540+EBP]
  1052 00000AF6 8B B5 FFFFFA14                  	MOV	ESI,DWORD [-1516+EBP]
  1053 00000AFC 8B BD FFFFFA18                  	MOV	EDI,DWORD [-1512+EBP]
  1054 00000B02 8B 44 88 14                     	MOV	EAX,DWORD [20+EAX+ECX*4]
  1055 00000B06 89 85 FFFFF9EC                  	MOV	DWORD [-1556+EBP],EAX
  1056 00000B0C 2B 70 10                        	SUB	ESI,DWORD [16+EAX]
  1057 00000B0F 2B 78 0C                        	SUB	EDI,DWORD [12+EAX]
  1058 00000B12 78 42                           	JS	L107
  1059 00000B14 8B 40 04                        	MOV	EAX,DWORD [4+EAX]
  1060 00000B17 39 C7                           	CMP	EDI,EAX
  1061 00000B19 7D 3B                           	JGE	L107
  1062 00000B1B 85 F6                           	TEST	ESI,ESI
  1063 00000B1D 78 37                           	JS	L107
  1064 00000B1F 8B 95 FFFFF9EC                  	MOV	EDX,DWORD [-1556+EBP]
  1065 00000B25 3B 72 08                        	CMP	ESI,DWORD [8+EDX]
  1066 00000B28 7D 2C                           	JGE	L107
  1067 00000B2A F6 42 1D 01                     	TEST	BYTE [29+EDX],1
  1068 00000B2E 75 26                           	JNE	L107
  1069 00000B30 0F AF C6                        	IMUL	EAX,ESI
  1070 00000B33 01 F8                           	ADD	EAX,EDI
  1071 00000B35 8B 12                           	MOV	EDX,DWORD [EDX]
  1072 00000B37 89 85 FFFFF9C0                  	MOV	DWORD [-1600+EBP],EAX
  1073 00000B3D 8B 85 FFFFF9C0                  	MOV	EAX,DWORD [-1600+EBP]
  1074 00000B43 0F B7 14 42                     	MOVZX	EDX,WORD [EDX+EAX*2]
  1075 00000B47 8B 85 FFFFF9EC                  	MOV	EAX,DWORD [-1556+EBP]
  1076 00000B4D 3B 50 14                        	CMP	EDX,DWORD [20+EAX]
  1077 00000B50 0F 85 00000081                  	JNE	L164
  1078 00000B56                                 L107:
  1079 00000B56 49                              	DEC	ECX
  1080 00000B57 85 C9                           	TEST	ECX,ECX
  1081 00000B59 7F 95                           	JG	L117
  1082 00000B5B                                 L106:
  1083 00000B5B 83 BD FFFFF9CC 00               	CMP	DWORD [-1588+EBP],0
  1084 00000B62 0F 85 FFFFFB8F                  	JNE	L16
  1085 00000B68 83 BD FFFFF9C8 FF               	CMP	DWORD [-1592+EBP],-1
  1086 00000B6F 0F 85 FFFFFB82                  	JNE	L16
  1087 00000B75 8B 95 FFFFF9FC                  	MOV	EDX,DWORD [-1540+EBP]
  1088 00000B7B 8B 85 FFFFFA18                  	MOV	EAX,DWORD [-1512+EBP]
  1089 00000B81 83 E8 02                        	SUB	EAX,2
  1090 00000B84 8B 52 14                        	MOV	EDX,DWORD [20+EDX]
  1091 00000B87 83 F8 3A                        	CMP	EAX,58
  1092 00000B8A 89 95 FFFFF9EC                  	MOV	DWORD [-1556+EBP],EDX
  1093 00000B90 0F 87 FFFFFB61                  	JA	L16
  1094 00000B96 89 D1                           	MOV	ECX,EDX
  1095 00000B98 8B 52 08                        	MOV	EDX,DWORD [8+EDX]
  1096 00000B9B 8D 42 E8                        	LEA	EAX,DWORD [-24+EDX]
  1097 00000B9E 3B 85 FFFFFA14                  	CMP	EAX,DWORD [-1516+EBP]
  1098 00000BA4 0F 8F FFFFFB4D                  	JG	L16
  1099 00000BAA 8D 42 FD                        	LEA	EAX,DWORD [-3+EDX]
  1100 00000BAD 39 85 FFFFFA14                  	CMP	DWORD [-1516+EBP],EAX
  1101 00000BB3 0F 8F FFFFFB3E                  	JG	L16
  1102 00000BB9 FF B5 FFFFFA1C                  	PUSH	DWORD [-1508+EBP]
  1103 00000BBF 8D 85 FFFFFA54                  	LEA	EAX,DWORD [-1452+EBP]
  1104 00000BC5 50                              	PUSH	EAX
  1105 00000BC6 51                              	PUSH	ECX
  1106 00000BC7 E8 00000CFE                     	CALL	_open_menu
  1107 00000BCC 89 85 FFFFF9C8                  	MOV	DWORD [-1592+EBP],EAX
  1108 00000BD2 E9 FFFFFDFF                     	JMP	L144
  1109 00000BD7                                 L164:
  1110 00000BD7 8D 43 FF                        	LEA	EAX,DWORD [-1+EBX]
  1111 00000BDA 50                              	PUSH	EAX
  1112 00000BDB FF B5 FFFFF9EC                  	PUSH	DWORD [-1556+EBP]
  1113 00000BE1 E8 [00000000]                   	CALL	_sheet_updown
  1114 00000BE6 58                              	POP	EAX
  1115 00000BE7 5A                              	POP	EDX
  1116 00000BE8 8B 95 FFFFF9F0                  	MOV	EDX,DWORD [-1552+EBP]
  1117 00000BEE 39 95 FFFFF9EC                  	CMP	DWORD [-1556+EBP],EDX
  1118 00000BF4 74 1A                           	JE	L111
  1119 00000BF6 52                              	PUSH	EDX
  1120 00000BF7 E8 000008E9                     	CALL	_keywin_off
  1121 00000BFC 8B 8D FFFFF9EC                  	MOV	ECX,DWORD [-1556+EBP]
  1122 00000C02 51                              	PUSH	ECX
  1123 00000C03 89 8D FFFFF9F0                  	MOV	DWORD [-1552+EBP],ECX
  1124 00000C09 E8 00000911                     	CALL	_keywin_on
  1125 00000C0E 5B                              	POP	EBX
  1126 00000C0F 58                              	POP	EAX
  1127 00000C10                                 L111:
  1128 00000C10 8B 85 FFFFF9EC                  	MOV	EAX,DWORD [-1556+EBP]
  1129 00000C16 8B 48 1C                        	MOV	ECX,DWORD [28+EAX]
  1130 00000C19 F7 C1 00000100                  	TEST	ECX,256
  1131 00000C1F 75 4F                           	JNE	L112
  1132 00000C21 83 FF 02                        	CMP	EDI,2
  1133 00000C24 7E 4A                           	JLE	L112
  1134 00000C26 8B 40 04                        	MOV	EAX,DWORD [4+EAX]
  1135 00000C29 83 E8 03                        	SUB	EAX,3
  1136 00000C2C 39 C7                           	CMP	EDI,EAX
  1137 00000C2E 7D 40                           	JGE	L112
  1138 00000C30 83 FE 02                        	CMP	ESI,2
  1139 00000C33 7E 3B                           	JLE	L112
  1140 00000C35 83 FE 14                        	CMP	ESI,20
  1141 00000C38 7F 36                           	JG	L112
  1142 00000C3A 8B 85 FFFFFA18                  	MOV	EAX,DWORD [-1512+EBP]
  1143 00000C40 8B 95 FFFFFA14                  	MOV	EDX,DWORD [-1516+EBP]
  1144 00000C46 89 85 FFFFF9D8                  	MOV	DWORD [-1576+EBP],EAX
  1145 00000C4C 89 95 FFFFF9D4                  	MOV	DWORD [-1580+EBP],EDX
  1146 00000C52 8B 85 FFFFF9EC                  	MOV	EAX,DWORD [-1556+EBP]
  1147 00000C58 8B 95 FFFFF9EC                  	MOV	EDX,DWORD [-1556+EBP]
  1148 00000C5E 8B 40 0C                        	MOV	EAX,DWORD [12+EAX]
  1149 00000C61 8B 52 10                        	MOV	EDX,DWORD [16+EDX]
  1150 00000C64 89 85 FFFFF9D0                  	MOV	DWORD [-1584+EBP],EAX
  1151 00000C6A 89 95 FFFFFA04                  	MOV	DWORD [-1532+EBP],EDX
  1152 00000C70                                 L112:
  1153 00000C70 F7 C1 00000100                  	TEST	ECX,256
  1154 00000C76 75 69                           	JNE	L113
  1155 00000C78 8B 85 FFFFF9EC                  	MOV	EAX,DWORD [-1556+EBP]
  1156 00000C7E 8B 50 04                        	MOV	EDX,DWORD [4+EAX]
  1157 00000C81 29 FA                           	SUB	EDX,EDI
  1158 00000C83 8D 42 EF                        	LEA	EAX,DWORD [-17+EDX]
  1159 00000C86 39 F0                           	CMP	EAX,ESI
  1160 00000C88 7D 57                           	JGE	L113
  1161 00000C8A 8D 42 FE                        	LEA	EAX,DWORD [-2+EDX]
  1162 00000C8D 39 C6                           	CMP	ESI,EAX
  1163 00000C8F 7D 50                           	JGE	L113
  1164 00000C91 83 FE 05                        	CMP	ESI,5
  1165 00000C94 7E 4B                           	JLE	L113
  1166 00000C96 83 FE 0F                        	CMP	ESI,15
  1167 00000C99 7F 46                           	JG	L113
  1168 00000C9B 83 E1 10                        	AND	ECX,16
  1169 00000C9E 0F 84 00000081                  	JE	L114
  1170 00000CA4 8B 95 FFFFF9EC                  	MOV	EDX,DWORD [-1556+EBP]
  1171 00000CAA 8B 5A 24                        	MOV	EBX,DWORD [36+EDX]
  1172 00000CAD 68 [000001AC]                   	PUSH	LC19
  1173 00000CB2 FF B3 000000A4                  	PUSH	DWORD [164+EBX]
  1174 00000CB8 E8 [00000000]                   	CALL	_cons_putstr0
  1175 00000CBD E8 [00000000]                   	CALL	_io_cli
  1176 00000CC2 8D 43 30                        	LEA	EAX,DWORD [48+EBX]
  1177 00000CC5 89 43 54                        	MOV	DWORD [84+EBX],EAX
  1178 00000CC8 C7 43 4C [00000000]             	MOV	DWORD [76+EBX],_asm_end_app
  1179 00000CCF E8 [00000000]                   	CALL	_io_sti
  1180 00000CD4 6A 00                           	PUSH	0
  1181 00000CD6 6A FF                           	PUSH	-1
  1182 00000CD8 53                              	PUSH	EBX
  1183 00000CD9 E8 [00000000]                   	CALL	_task_run
  1184 00000CDE 83 C4 14                        	ADD	ESP,20
  1185 00000CE1                                 L113:
  1186 00000CE1 8B 8D FFFFF9EC                  	MOV	ECX,DWORD [-1556+EBP]
  1187 00000CE7 F6 41 1D 01                     	TEST	BYTE [29+ECX],1
  1188 00000CEB 75 27                           	JNE	L116
  1189 00000CED 8B 51 04                        	MOV	EDX,DWORD [4+ECX]
  1190 00000CF0 29 FA                           	SUB	EDX,EDI
  1191 00000CF2 8D 42 E0                        	LEA	EAX,DWORD [-32+EDX]
  1192 00000CF5 39 F0                           	CMP	EAX,ESI
  1193 00000CF7 7D 1B                           	JGE	L116
  1194 00000CF9 8D 42 EF                        	LEA	EAX,DWORD [-17+EDX]
  1195 00000CFC 39 C6                           	CMP	ESI,EAX
  1196 00000CFE 7D 14                           	JGE	L116
  1197 00000D00 83 FE 05                        	CMP	ESI,5
  1198 00000D03 7E 0F                           	JLE	L116
  1199 00000D05 83 FE 0F                        	CMP	ESI,15
  1200 00000D08 7F 0A                           	JG	L116
  1201 00000D0A 6A 9C                           	PUSH	-100
  1202 00000D0C 51                              	PUSH	ECX
  1203 00000D0D E8 [00000000]                   	CALL	_sheet_updown
  1204 00000D12 5A                              	POP	EDX
  1205 00000D13 59                              	POP	ECX
  1206 00000D14                                 L116:
  1207 00000D14 8B 85 FFFFF9EC                  	MOV	EAX,DWORD [-1556+EBP]
  1208 00000D1A 89 85 FFFFF9CC                  	MOV	DWORD [-1588+EBP],EAX
  1209 00000D20 E9 FFFFFE36                     	JMP	L106
  1210 00000D25                                 L114:
  1211 00000D25 8B 8D FFFFF9EC                  	MOV	ECX,DWORD [-1556+EBP]
  1212 00000D2B 8B 59 24                        	MOV	EBX,DWORD [36+ECX]
  1213 00000D2E 6A FF                           	PUSH	-1
  1214 00000D30 51                              	PUSH	ECX
  1215 00000D31 E8 [00000000]                   	CALL	_sheet_updown
  1216 00000D36 FF B5 FFFFF9F0                  	PUSH	DWORD [-1552+EBP]
  1217 00000D3C E8 000007A4                     	CALL	_keywin_off
  1218 00000D41 8B 95 FFFFF9FC                  	MOV	EDX,DWORD [-1540+EBP]
  1219 00000D47 8B 42 10                        	MOV	EAX,DWORD [16+EDX]
  1220 00000D4A 8B 44 82 10                     	MOV	EAX,DWORD [16+EDX+EAX*4]
  1221 00000D4E 50                              	PUSH	EAX
  1222 00000D4F 89 85 FFFFF9F0                  	MOV	DWORD [-1552+EBP],EAX
  1223 00000D55 E8 000007C5                     	CALL	_keywin_on
  1224 00000D5A E8 [00000000]                   	CALL	_io_cli
  1225 00000D5F 8D 43 10                        	LEA	EAX,DWORD [16+EBX]
  1226 00000D62 6A 04                           	PUSH	4
  1227 00000D64 50                              	PUSH	EAX
  1228 00000D65 E8 [00000000]                   	CALL	_fifo32_put
  1229 00000D6A E8 [00000000]                   	CALL	_io_sti
  1230 00000D6F 83 C4 18                        	ADD	ESP,24
  1231 00000D72 E9 FFFFFF6A                     	JMP	L113
  1232 00000D77                                 L163:
  1233 00000D77 6B 85 FFFFF9C8 14               	IMUL	EAX,DWORD [-1592+EBP],20
  1234 00000D7E FF B5 FFFFFA00                  	PUSH	DWORD [-1536+EBP]
  1235 00000D84 8D 84 28 FFFFFA54               	LEA	EAX,DWORD [-1452+EAX+EBP*1]
  1236 00000D8B 50                              	PUSH	EAX
  1237 00000D8C E8 00000D98                     	CALL	_exec_menu
  1238 00000D91 5E                              	POP	ESI
  1239 00000D92 5F                              	POP	EDI
  1240 00000D93 83 F8 FF                        	CMP	EAX,-1
  1241 00000D96 74 0B                           	JE	L165
  1242 00000D98 89 85 FFFFF9C8                  	MOV	DWORD [-1592+EBP],EAX
  1243 00000D9E E9 FFFFF954                     	JMP	L16
  1244 00000DA3                                 L165:
  1245 00000DA3 83 BD FFFFF9C8 FF               	CMP	DWORD [-1592+EBP],-1
  1246 00000DAA                                 L150:
  1247 00000DAA 0F 8E FFFFF947                  	JLE	L16
  1248 00000DB0 6B 85 FFFFF9C8 14               	IMUL	EAX,DWORD [-1592+EBP],20
  1249 00000DB7 8D 84 28 FFFFFA54               	LEA	EAX,DWORD [-1452+EAX+EBP*1]
  1250 00000DBE 50                              	PUSH	EAX
  1251 00000DBF 8B 85 FFFFF9FC                  	MOV	EAX,DWORD [-1540+EBP]
  1252 00000DC5 FF 70 14                        	PUSH	DWORD [20+EAX]
  1253 00000DC8 E8 00000C54                     	CALL	_close_menu
  1254 00000DCD 59                              	POP	ECX
  1255 00000DCE 5B                              	POP	EBX
  1256 00000DCF 89 85 FFFFF9C8                  	MOV	DWORD [-1592+EBP],EAX
  1257 00000DD5 40                              	INC	EAX
  1258 00000DD6 EB D2                           	JMP	L150
  1259 00000DD8                                 L160:
  1260 00000DD8 C7 85 FFFFFA14 00000000         	MOV	DWORD [-1516+EBP],0
  1261 00000DE2 E9 FFFFFAC6                     	JMP	L88
  1262 00000DE7                                 L159:
  1263 00000DE7 C7 85 FFFFFA18 00000000         	MOV	DWORD [-1512+EBP],0
  1264 00000DF1 E9 FFFFFAAA                     	JMP	L87
  1265 00000DF6                                 L50:
  1266 00000DF6 81 FA 00001137                  	CMP	EDX,4407
  1267 00000DFC 0F 84 000003DA                  	JE	L166
  1268 00000E02                                 L51:
  1269 00000E02 83 BD FFFFF9C8 FF               	CMP	DWORD [-1592+EBP],-1
  1270 00000E09 74 31                           	JE	L52
  1271 00000E0B 83 BD FFFFF9C8 FF               	CMP	DWORD [-1592+EBP],-1
  1272 00000E12 7E 28                           	JLE	L52
  1273 00000E14                                 L57:
  1274 00000E14 6B 85 FFFFF9C8 14               	IMUL	EAX,DWORD [-1592+EBP],20
  1275 00000E1B 8D 84 28 FFFFFA54               	LEA	EAX,DWORD [-1452+EAX+EBP*1]
  1276 00000E22 50                              	PUSH	EAX
  1277 00000E23 8B 85 FFFFF9FC                  	MOV	EAX,DWORD [-1540+EBP]
  1278 00000E29 FF 70 14                        	PUSH	DWORD [20+EAX]
  1279 00000E2C E8 00000BF0                     	CALL	_close_menu
  1280 00000E31 5A                              	POP	EDX
  1281 00000E32 59                              	POP	ECX
  1282 00000E33 89 85 FFFFF9C8                  	MOV	DWORD [-1592+EBP],EAX
  1283 00000E39 40                              	INC	EAX
  1284 00000E3A 7F D8                           	JG	L57
  1285 00000E3C                                 L52:
  1286 00000E3C 8B 85 FFFFFA20                  	MOV	EAX,DWORD [-1504+EBP]
  1287 00000E42 3D 0000017F                     	CMP	EAX,383
  1288 00000E47 0F 8F 00000386                  	JG	L58
  1289 00000E4D 83 BD FFFFF9E4 00               	CMP	DWORD [-1564+EBP],0
  1290 00000E54 0F 85 0000036E                  	JNE	L59
  1291 00000E5A 8A 80 [FFFFFF00]                	MOV	AL,BYTE [_keytable0.0-256+EAX]
  1292 00000E60                                 L149:
  1293 00000E60 88 45 C4                        	MOV	BYTE [-60+EBP],AL
  1294 00000E63                                 L61:
  1295 00000E63 8A 55 C4                        	MOV	DL,BYTE [-60+EBP]
  1296 00000E66 8D 42 BF                        	LEA	EAX,DWORD [-65+EDX]
  1297 00000E69 3C 19                           	CMP	AL,25
  1298 00000E6B 77 1D                           	JA	L62
  1299 00000E6D F7 85 FFFFF9E0 00000004         	TEST	DWORD [-1568+EBP],4
  1300 00000E77 0F 85 0000033C                  	JNE	L140
  1301 00000E7D 83 BD FFFFF9E4 00               	CMP	DWORD [-1564+EBP],0
  1302 00000E84 0F 84 00000324                  	JE	L64
  1303 00000E8A                                 L62:
  1304 00000E8A 80 7D C4 00                     	CMP	BYTE [-60+EBP],0
  1305 00000E8E 74 31                           	JE	L66
  1306 00000E90 83 BD FFFFF9F0 00               	CMP	DWORD [-1552+EBP],0
  1307 00000E97 74 28                           	JE	L66
  1308 00000E99 E8 [00000000]                   	CALL	_io_cli
  1309 00000E9E 8B 95 FFFFF9F0                  	MOV	EDX,DWORD [-1552+EBP]
  1310 00000EA4 0F BE 45 C4                     	MOVSX	EAX,BYTE [-60+EBP]
  1311 00000EA8 05 00000100                     	ADD	EAX,256
  1312 00000EAD 50                              	PUSH	EAX
  1313 00000EAE 8B 42 24                        	MOV	EAX,DWORD [36+EDX]
  1314 00000EB1 83 C0 10                        	ADD	EAX,16
  1315 00000EB4 50                              	PUSH	EAX
  1316 00000EB5 E8 [00000000]                   	CALL	_fifo32_put
  1317 00000EBA E8 [00000000]                   	CALL	_io_sti
  1318 00000EBF 5F                              	POP	EDI
  1319 00000EC0 58                              	POP	EAX
  1320 00000EC1                                 L66:
  1321 00000EC1 81 BD FFFFFA20 0000010F         	CMP	DWORD [-1504+EBP],271
  1322 00000ECB 0F 84 00000292                  	JE	L167
  1323 00000ED1                                 L67:
  1324 00000ED1 8B 85 FFFFFA20                  	MOV	EAX,DWORD [-1504+EBP]
  1325 00000ED7 3D 0000012A                     	CMP	EAX,298
  1326 00000EDC 0F 84 00000275                  	JE	L168
  1327 00000EE2                                 L69:
  1328 00000EE2 3D 00000136                     	CMP	EAX,310
  1329 00000EE7 0F 84 0000025E                  	JE	L169
  1330 00000EED                                 L70:
  1331 00000EED 3D 000001AA                     	CMP	EAX,426
  1332 00000EF2 0F 84 00000247                  	JE	L170
  1333 00000EF8                                 L71:
  1334 00000EF8 3D 000001B6                     	CMP	EAX,438
  1335 00000EFD 0F 84 00000230                  	JE	L171
  1336 00000F03                                 L72:
  1337 00000F03 3D 0000013A                     	CMP	EAX,314
  1338 00000F08 0F 84 000001EF                  	JE	L172
  1339 00000F0E                                 L73:
  1340 00000F0E 81 BD FFFFFA20 00000145         	CMP	DWORD [-1504+EBP],325
  1341 00000F18 0F 84 000001A9                  	JE	L173
  1342 00000F1E                                 L74:
  1343 00000F1E 81 BD FFFFFA20 00000146         	CMP	DWORD [-1504+EBP],326
  1344 00000F28 0F 84 00000163                  	JE	L174
  1345 00000F2E                                 L75:
  1346 00000F2E 81 BD FFFFFA20 0000013B         	CMP	DWORD [-1504+EBP],315
  1347 00000F38 0F 84 000000E5                  	JE	L175
  1348 00000F3E                                 L76:
  1349 00000F3E 81 BD FFFFFA20 0000013C         	CMP	DWORD [-1504+EBP],316
  1350 00000F48 74 65                           	JE	L176
  1351 00000F4A                                 L78:
  1352 00000F4A 81 BD FFFFFA20 00000157         	CMP	DWORD [-1504+EBP],343
  1353 00000F54 74 3D                           	JE	L177
  1354 00000F56                                 L80:
  1355 00000F56 8B 85 FFFFFA20                  	MOV	EAX,DWORD [-1504+EBP]
  1356 00000F5C 3D 000001FA                     	CMP	EAX,506
  1357 00000F61 74 24                           	JE	L178
  1358 00000F63                                 L82:
  1359 00000F63 3D 000001FE                     	CMP	EAX,510
  1360 00000F68 0F 85 FFFFF789                  	JNE	L16
  1361 00000F6E E8 [00000000]                   	CALL	_wait_KBC_sendready
  1362 00000F73 FF B5 FFFFF9DC                  	PUSH	DWORD [-1572+EBP]
  1363 00000F79 6A 60                           	PUSH	96
  1364 00000F7B E8 [00000000]                   	CALL	_io_out8
  1365 00000F80 5B                              	POP	EBX
  1366 00000F81 5E                              	POP	ESI
  1367 00000F82 E9 FFFFF770                     	JMP	L16
  1368 00000F87                                 L178:
  1369 00000F87 C7 85 FFFFF9DC FFFFFFFF         	MOV	DWORD [-1572+EBP],-1
  1370 00000F91 EB D0                           	JMP	L82
  1371 00000F93                                 L177:
  1372 00000F93 8B 95 FFFFF9FC                  	MOV	EDX,DWORD [-1540+EBP]
  1373 00000F99 8B 42 10                        	MOV	EAX,DWORD [16+EDX]
  1374 00000F9C 83 F8 02                        	CMP	EAX,2
  1375 00000F9F 7E B5                           	JLE	L80
  1376 00000FA1 48                              	DEC	EAX
  1377 00000FA2 50                              	PUSH	EAX
  1378 00000FA3 FF 72 18                        	PUSH	DWORD [24+EDX]
  1379 00000FA6 E8 [00000000]                   	CALL	_sheet_updown
  1380 00000FAB 5F                              	POP	EDI
  1381 00000FAC 58                              	POP	EAX
  1382 00000FAD EB A7                           	JMP	L80
  1383 00000FAF                                 L176:
  1384 00000FAF 83 BD FFFFF9E4 00               	CMP	DWORD [-1564+EBP],0
  1385 00000FB6 74 92                           	JE	L78
  1386 00000FB8 83 BD FFFFF9F0 00               	CMP	DWORD [-1552+EBP],0
  1387 00000FBF 74 0C                           	JE	L79
  1388 00000FC1 FF B5 FFFFF9F0                  	PUSH	DWORD [-1552+EBP]
  1389 00000FC7 E8 00000519                     	CALL	_keywin_off
  1390 00000FCC 59                              	POP	ECX
  1391 00000FCD                                 L79:
  1392 00000FCD FF B5 FFFFFA00                  	PUSH	DWORD [-1536+EBP]
  1393 00000FD3 FF B5 FFFFF9FC                  	PUSH	DWORD [-1540+EBP]
  1394 00000FD9 E8 00000635                     	CALL	_open_console
  1395 00000FDE 6A 04                           	PUSH	4
  1396 00000FE0 6A 20                           	PUSH	32
  1397 00000FE2 50                              	PUSH	EAX
  1398 00000FE3 89 85 FFFFF9F0                  	MOV	DWORD [-1552+EBP],EAX
  1399 00000FE9 E8 [00000000]                   	CALL	_sheet_slide
  1400 00000FEE 8B 8D FFFFF9FC                  	MOV	ECX,DWORD [-1540+EBP]
  1401 00000FF4 FF 71 10                        	PUSH	DWORD [16+ECX]
  1402 00000FF7 FF B5 FFFFF9F0                  	PUSH	DWORD [-1552+EBP]
  1403 00000FFD E8 [00000000]                   	CALL	_sheet_updown
  1404 00001002 FF B5 FFFFF9F0                  	PUSH	DWORD [-1552+EBP]
  1405 00001008 E8 00000512                     	CALL	_keywin_on
  1406 0000100D 83 C4 20                        	ADD	ESP,32
  1407 00001010 6A 07                           	PUSH	7
  1408 00001012 68 [000001BD]                   	PUSH	LC16
  1409 00001017 E8 [00000000]                   	CALL	_dbg_putstr0
  1410 0000101C 58                              	POP	EAX
  1411 0000101D 5A                              	POP	EDX
  1412 0000101E E9 FFFFFF27                     	JMP	L78
  1413 00001023                                 L175:
  1414 00001023 83 BD FFFFF9E4 00               	CMP	DWORD [-1564+EBP],0
  1415 0000102A 0F 84 FFFFFF0E                  	JE	L76
  1416 00001030 83 BD FFFFF9F0 00               	CMP	DWORD [-1552+EBP],0
  1417 00001037 0F 84 FFFFFF01                  	JE	L76
  1418 0000103D 8B 95 FFFFF9F0                  	MOV	EDX,DWORD [-1552+EBP]
  1419 00001043 8B 5A 24                        	MOV	EBX,DWORD [36+EDX]
  1420 00001046 85 DB                           	TEST	EBX,EBX
  1421 00001048 0F 84 FFFFFEF0                  	JE	L76
  1422 0000104E 83 7B 34 00                     	CMP	DWORD [52+EBX],0
  1423 00001052 0F 84 FFFFFEE6                  	JE	L76
  1424 00001058 68 [000001D5]                   	PUSH	LC15
  1425 0000105D FF B3 000000A4                  	PUSH	DWORD [164+EBX]
  1426 00001063 E8 [00000000]                   	CALL	_cons_putstr0
  1427 00001068 E8 [00000000]                   	CALL	_io_cli
  1428 0000106D 8D 43 30                        	LEA	EAX,DWORD [48+EBX]
  1429 00001070 89 43 54                        	MOV	DWORD [84+EBX],EAX
  1430 00001073 C7 43 4C [00000000]             	MOV	DWORD [76+EBX],_asm_end_app
  1431 0000107A E8 [00000000]                   	CALL	_io_sti
  1432 0000107F 6A 00                           	PUSH	0
  1433 00001081 6A FF                           	PUSH	-1
  1434 00001083 53                              	PUSH	EBX
  1435 00001084 E8 [00000000]                   	CALL	_task_run
  1436 00001089 83 C4 14                        	ADD	ESP,20
  1437 0000108C E9 FFFFFEAD                     	JMP	L76
  1438 00001091                                 L174:
  1439 00001091 8D 9D FFFFFD84                  	LEA	EBX,DWORD [-636+EBP]
  1440 00001097 83 B5 FFFFF9E0 01               	XOR	DWORD [-1568+EBP],1
  1441 0000109E E8 [00000000]                   	CALL	_io_cli
  1442 000010A3 68 000000ED                     	PUSH	237
  1443 000010A8 53                              	PUSH	EBX
  1444 000010A9 E8 [00000000]                   	CALL	_fifo32_put
  1445 000010AE FF B5 FFFFF9E0                  	PUSH	DWORD [-1568+EBP]
  1446 000010B4 53                              	PUSH	EBX
  1447 000010B5 E8 [00000000]                   	CALL	_fifo32_put
  1448 000010BA E8 [00000000]                   	CALL	_io_sti
  1449 000010BF 83 C4 10                        	ADD	ESP,16
  1450 000010C2 E9 FFFFFE67                     	JMP	L75
  1451 000010C7                                 L173:
  1452 000010C7 8D 9D FFFFFD84                  	LEA	EBX,DWORD [-636+EBP]
  1453 000010CD 83 B5 FFFFF9E0 02               	XOR	DWORD [-1568+EBP],2
  1454 000010D4 E8 [00000000]                   	CALL	_io_cli
  1455 000010D9 68 000000ED                     	PUSH	237
  1456 000010DE 53                              	PUSH	EBX
  1457 000010DF E8 [00000000]                   	CALL	_fifo32_put
  1458 000010E4 FF B5 FFFFF9E0                  	PUSH	DWORD [-1568+EBP]
  1459 000010EA 53                              	PUSH	EBX
  1460 000010EB E8 [00000000]                   	CALL	_fifo32_put
  1461 000010F0 E8 [00000000]                   	CALL	_io_sti
  1462 000010F5 83 C4 10                        	ADD	ESP,16
  1463 000010F8 E9 FFFFFE21                     	JMP	L74
  1464 000010FD                                 L172:
  1465 000010FD 8D 9D FFFFFD84                  	LEA	EBX,DWORD [-636+EBP]
  1466 00001103 83 B5 FFFFF9E0 04               	XOR	DWORD [-1568+EBP],4
  1467 0000110A E8 [00000000]                   	CALL	_io_cli
  1468 0000110F 68 000000ED                     	PUSH	237
  1469 00001114 53                              	PUSH	EBX
  1470 00001115 E8 [00000000]                   	CALL	_fifo32_put
  1471 0000111A FF B5 FFFFF9E0                  	PUSH	DWORD [-1568+EBP]
  1472 00001120 53                              	PUSH	EBX
  1473 00001121 E8 [00000000]                   	CALL	_fifo32_put
  1474 00001126 E8 [00000000]                   	CALL	_io_sti
  1475 0000112B 83 C4 10                        	ADD	ESP,16
  1476 0000112E E9 FFFFFDDB                     	JMP	L73
  1477 00001133                                 L171:
  1478 00001133 83 A5 FFFFF9E4 FD               	AND	DWORD [-1564+EBP],-3
  1479 0000113A E9 FFFFFDC4                     	JMP	L72
  1480 0000113F                                 L170:
  1481 0000113F 83 A5 FFFFF9E4 FE               	AND	DWORD [-1564+EBP],-2
  1482 00001146 E9 FFFFFDAD                     	JMP	L71
  1483 0000114B                                 L169:
  1484 0000114B 83 8D FFFFF9E4 02               	OR	DWORD [-1564+EBP],2
  1485 00001152 E9 FFFFFD96                     	JMP	L70
  1486 00001157                                 L168:
  1487 00001157 83 8D FFFFF9E4 01               	OR	DWORD [-1564+EBP],1
  1488 0000115E E9 FFFFFD7F                     	JMP	L69
  1489 00001163                                 L167:
  1490 00001163 83 BD FFFFF9F0 00               	CMP	DWORD [-1552+EBP],0
  1491 0000116A 0F 84 FFFFFD61                  	JE	L67
  1492 00001170 FF B5 FFFFF9F0                  	PUSH	DWORD [-1552+EBP]
  1493 00001176 E8 0000036A                     	CALL	_keywin_off
  1494 0000117B 8B 85 FFFFF9F0                  	MOV	EAX,DWORD [-1552+EBP]
  1495 00001181 5E                              	POP	ESI
  1496 00001182 8B 48 18                        	MOV	ECX,DWORD [24+EAX]
  1497 00001185 49                              	DEC	ECX
  1498 00001186 75 0A                           	JNE	L68
  1499 00001188 8B 95 FFFFF9FC                  	MOV	EDX,DWORD [-1540+EBP]
  1500 0000118E 8B 4A 10                        	MOV	ECX,DWORD [16+EDX]
  1501 00001191 49                              	DEC	ECX
  1502 00001192                                 L68:
  1503 00001192 8B 85 FFFFF9FC                  	MOV	EAX,DWORD [-1540+EBP]
  1504 00001198 8B 4C 88 14                     	MOV	ECX,DWORD [20+EAX+ECX*4]
  1505 0000119C 51                              	PUSH	ECX
  1506 0000119D 89 8D FFFFF9F0                  	MOV	DWORD [-1552+EBP],ECX
  1507 000011A3 E8 00000377                     	CALL	_keywin_on
  1508 000011A8 5B                              	POP	EBX
  1509 000011A9 E9 FFFFFD23                     	JMP	L67
  1510 000011AE                                 L64:
  1511 000011AE 8D 42 20                        	LEA	EAX,DWORD [32+EDX]
  1512 000011B1 88 45 C4                        	MOV	BYTE [-60+EBP],AL
  1513 000011B4 E9 FFFFFCD1                     	JMP	L62
  1514 000011B9                                 L140:
  1515 000011B9 83 BD FFFFF9E4 00               	CMP	DWORD [-1564+EBP],0
  1516 000011C0 0F 84 FFFFFCC4                  	JE	L62
  1517 000011C6 EB E6                           	JMP	L64
  1518 000011C8                                 L59:
  1519 000011C8 8A 80 [FFFFFF80]                	MOV	AL,BYTE [_keytable1.1-256+EAX]
  1520 000011CE E9 FFFFFC8D                     	JMP	L149
  1521 000011D3                                 L58:
  1522 000011D3 C6 45 C4 00                     	MOV	BYTE [-60+EBP],0
  1523 000011D7 E9 FFFFFC87                     	JMP	L61
  1524 000011DC                                 L166:
  1525 000011DC 8B 8D FFFFF9FC                  	MOV	ECX,DWORD [-1540+EBP]
  1526 000011E2 FF 31                           	PUSH	DWORD [ECX]
  1527 000011E4 68 000001E0                     	PUSH	480
  1528 000011E9 68 00000280                     	PUSH	640
  1529 000011EE E8 [00000000]                   	CALL	_bmp_conv
  1530 000011F3 6A 07                           	PUSH	7
  1531 000011F5 68 [000001EE]                   	PUSH	LC14
  1532 000011FA E8 [00000000]                   	CALL	_dbg_putstr0
  1533 000011FF 83 C4 14                        	ADD	ESP,20
  1534 00001202 E9 FFFFFBFB                     	JMP	L51
  1535 00001207                                 L154:
  1536 00001207 83 BD FFFFFA10 00               	CMP	DWORD [-1520+EBP],0
  1537 0000120E 79 2B                           	JNS	L179
  1538 00001210 81 BD FFFFFA08 7FFFFFFF         	CMP	DWORD [-1528+EBP],2147483647
  1539 0000121A 75 15                           	JNE	L180
  1540 0000121C FF B5 FFFFF9E8                  	PUSH	DWORD [-1560+EBP]
  1541 00001222 E8 [00000000]                   	CALL	_task_sleep
  1542 00001227 E8 [00000000]                   	CALL	_io_sti
  1543 0000122C E9 FFFFF615                     	JMP	L143
  1544 00001231                                 L180:
  1545 00001231 E8 [00000000]                   	CALL	_io_sti
  1546 00001236 E9 FFFFF7A3                     	JMP	L151
  1547 0000123B                                 L179:
  1548 0000123B E8 [00000000]                   	CALL	_io_sti
  1549 00001240 FF B5 FFFFFA0C                  	PUSH	DWORD [-1524+EBP]
  1550 00001246 FF B5 FFFFFA10                  	PUSH	DWORD [-1520+EBP]
  1551 0000124C FF B5 FFFFF9F4                  	PUSH	DWORD [-1548+EBP]
  1552 00001252 E8 [00000000]                   	CALL	_sheet_slide
  1553 00001257 83 C4 0C                        	ADD	ESP,12
  1554 0000125A 8B 85 FFFFF9F0                  	MOV	EAX,DWORD [-1552+EBP]
  1555 00001260 8B 50 0C                        	MOV	EDX,DWORD [12+EAX]
  1556 00001263 3B 95 FFFFFA10                  	CMP	EDX,DWORD [-1520+EBP]
  1557 00001269 0F 8F 000000D6                  	JG	L22
  1558 0000126F 8D 42 03                        	LEA	EAX,DWORD [3+EDX]
  1559 00001272 39 85 FFFFFA10                  	CMP	DWORD [-1520+EBP],EAX
  1560 00001278 0F 8F 000000C7                  	JG	L22
  1561 0000127E 8B 8D FFFFF9F0                  	MOV	ECX,DWORD [-1552+EBP]
  1562 00001284 8B 51 10                        	MOV	EDX,DWORD [16+ECX]
  1563 00001287 3B 95 FFFFFA0C                  	CMP	EDX,DWORD [-1524+EBP]
  1564 0000128D 7F 0F                           	JG	L23
  1565 0000128F 8D 42 03                        	LEA	EAX,DWORD [3+EDX]
  1566 00001292 39 85 FFFFFA0C                  	CMP	DWORD [-1524+EBP],EAX
  1567 00001298 0F 8E 00000097                  	JLE	L146
  1568 0000129E                                 L23:
  1569 0000129E 8D 42 03                        	LEA	EAX,DWORD [3+EDX]
  1570 000012A1 3B 85 FFFFFA0C                  	CMP	EAX,DWORD [-1524+EBP]
  1571 000012A7 7F 16                           	JG	L25
  1572 000012A9 8B 8D FFFFF9F0                  	MOV	ECX,DWORD [-1552+EBP]
  1573 000012AF 89 D0                           	MOV	EAX,EDX
  1574 000012B1 03 41 08                        	ADD	EAX,DWORD [8+ECX]
  1575 000012B4 83 E8 03                        	SUB	EAX,3
  1576 000012B7 39 85 FFFFFA0C                  	CMP	DWORD [-1524+EBP],EAX
  1577 000012BD 7E 66                           	JLE	L147
  1578 000012BF                                 L25:
  1579 000012BF 8B 85 FFFFF9F0                  	MOV	EAX,DWORD [-1552+EBP]
  1580 000012C5 03 50 08                        	ADD	EDX,DWORD [8+EAX]
  1581 000012C8 8D 42 FD                        	LEA	EAX,DWORD [-3+EDX]
  1582 000012CB 3B 85 FFFFFA0C                  	CMP	EAX,DWORD [-1524+EBP]
  1583 000012D1 7F 18                           	JG	L28
  1584 000012D3 39 95 FFFFFA0C                  	CMP	DWORD [-1524+EBP],EDX
  1585 000012D9 7F 10                           	JG	L28
  1586 000012DB                                 L148:
  1587 000012DB 6A 63                           	PUSH	99
  1588 000012DD 8D 85 FFFFFAF4                  	LEA	EAX,DWORD [-1292+EBP]
  1589 000012E3 50                              	PUSH	EAX
  1590 000012E4 E8 [00000000]                   	CALL	_set_mouse_cursorrb8
  1591 000012E9                                 L145:
  1592 000012E9 5F                              	POP	EDI
  1593 000012EA 58                              	POP	EAX
  1594 000012EB                                 L28:
  1595 000012EB FF B5 FFFFFA04                  	PUSH	DWORD [-1532+EBP]
  1596 000012F1 FF B5 FFFFFA08                  	PUSH	DWORD [-1528+EBP]
  1597 000012F7 E8 00000B91                     	CALL	_reset_back
  1598 000012FC FF B5 FFFFFA04                  	PUSH	DWORD [-1532+EBP]
  1599 00001302 FF B5 FFFFFA08                  	PUSH	DWORD [-1528+EBP]
  1600 00001308 FF B5 FFFFF9F0                  	PUSH	DWORD [-1552+EBP]
  1601 0000130E E8 00000B7F                     	CALL	_reset_key_win
  1602 00001313 83 C4 14                        	ADD	ESP,20
  1603 00001316 C7 85 FFFFFA10 FFFFFFFF         	MOV	DWORD [-1520+EBP],-1
  1604 00001320 E9 FFFFF3D2                     	JMP	L16
  1605 00001325                                 L147:
  1606 00001325 6A 63                           	PUSH	99
  1607 00001327 8D 85 FFFFFAF4                  	LEA	EAX,DWORD [-1292+EBP]
  1608 0000132D 50                              	PUSH	EAX
  1609 0000132E E8 [00000000]                   	CALL	_set_mouse_cursorl8
  1610 00001333 EB B4                           	JMP	L145
  1611 00001335                                 L146:
  1612 00001335 6A 63                           	PUSH	99
  1613 00001337 8D 85 FFFFFAF4                  	LEA	EAX,DWORD [-1292+EBP]
  1614 0000133D 50                              	PUSH	EAX
  1615 0000133E E8 [00000000]                   	CALL	_set_mouse_cursorlt8
  1616 00001343 EB A4                           	JMP	L145
  1617 00001345                                 L22:
  1618 00001345 8D 42 03                        	LEA	EAX,DWORD [3+EDX]
  1619 00001348 3B 85 FFFFFA10                  	CMP	EAX,DWORD [-1520+EBP]
  1620 0000134E 7F 6E                           	JG	L29
  1621 00001350 8B 8D FFFFF9F0                  	MOV	ECX,DWORD [-1552+EBP]
  1622 00001356 89 D0                           	MOV	EAX,EDX
  1623 00001358 03 41 04                        	ADD	EAX,DWORD [4+ECX]
  1624 0000135B 83 E8 03                        	SUB	EAX,3
  1625 0000135E 39 85 FFFFFA10                  	CMP	DWORD [-1520+EBP],EAX
  1626 00001364 7F 58                           	JG	L29
  1627 00001366 8B 51 10                        	MOV	EDX,DWORD [16+ECX]
  1628 00001369 3B 95 FFFFFA0C                  	CMP	EDX,DWORD [-1524+EBP]
  1629 0000136F 7F 0B                           	JG	L32
  1630 00001371 8D 42 03                        	LEA	EAX,DWORD [3+EDX]
  1631 00001374 39 85 FFFFFA0C                  	CMP	DWORD [-1524+EBP],EAX
  1632 0000137A 7E 1C                           	JLE	L31
  1633 0000137C                                 L32:
  1634 0000137C 8B 85 FFFFF9F0                  	MOV	EAX,DWORD [-1552+EBP]
  1635 00001382 03 50 08                        	ADD	EDX,DWORD [8+EAX]
  1636 00001385 8D 42 FD                        	LEA	EAX,DWORD [-3+EDX]
  1637 00001388 3B 85 FFFFFA0C                  	CMP	EAX,DWORD [-1524+EBP]
  1638 0000138E 7F 1B                           	JG	L35
  1639 00001390 39 95 FFFFFA0C                  	CMP	DWORD [-1524+EBP],EDX
  1640 00001396 7F 13                           	JG	L35
  1641 00001398                                 L31:
  1642 00001398 6A 63                           	PUSH	99
  1643 0000139A 8D 85 FFFFFAF4                  	LEA	EAX,DWORD [-1292+EBP]
  1644 000013A0 50                              	PUSH	EAX
  1645 000013A1 E8 [00000000]                   	CALL	_set_mouse_cursorh8
  1646 000013A6 E9 FFFFFF3E                     	JMP	L145
  1647 000013AB                                 L35:
  1648 000013AB 6A 63                           	PUSH	99
  1649 000013AD 8D 85 FFFFFAF4                  	LEA	EAX,DWORD [-1292+EBP]
  1650 000013B3 50                              	PUSH	EAX
  1651 000013B4 E8 [00000000]                   	CALL	_init_mouse_cursor81
  1652 000013B9 E9 FFFFFF2B                     	JMP	L145
  1653 000013BE                                 L29:
  1654 000013BE 8B 8D FFFFF9F0                  	MOV	ECX,DWORD [-1552+EBP]
  1655 000013C4 03 51 04                        	ADD	EDX,DWORD [4+ECX]
  1656 000013C7 8D 42 FD                        	LEA	EAX,DWORD [-3+EDX]
  1657 000013CA 3B 85 FFFFFA10                  	CMP	EAX,DWORD [-1520+EBP]
  1658 000013D0 7F D9                           	JG	L35
  1659 000013D2 39 95 FFFFFA10                  	CMP	DWORD [-1520+EBP],EDX
  1660 000013D8 7F D1                           	JG	L35
  1661 000013DA 8B 51 10                        	MOV	EDX,DWORD [16+ECX]
  1662 000013DD 3B 95 FFFFFA0C                  	CMP	EDX,DWORD [-1524+EBP]
  1663 000013E3 7F 0F                           	JG	L36
  1664 000013E5 8D 42 03                        	LEA	EAX,DWORD [3+EDX]
  1665 000013E8 39 85 FFFFFA0C                  	CMP	DWORD [-1524+EBP],EAX
  1666 000013EE 0F 8E FFFFFEE7                  	JLE	L148
  1667 000013F4                                 L36:
  1668 000013F4 8D 42 03                        	LEA	EAX,DWORD [3+EDX]
  1669 000013F7 3B 85 FFFFFA0C                  	CMP	EAX,DWORD [-1524+EBP]
  1670 000013FD 7F 1A                           	JG	L38
  1671 000013FF 8B 8D FFFFF9F0                  	MOV	ECX,DWORD [-1552+EBP]
  1672 00001405 89 D0                           	MOV	EAX,EDX
  1673 00001407 03 41 08                        	ADD	EAX,DWORD [8+ECX]
  1674 0000140A 83 E8 03                        	SUB	EAX,3
  1675 0000140D 39 85 FFFFFA0C                  	CMP	DWORD [-1524+EBP],EAX
  1676 00001413 0F 8E FFFFFF0C                  	JLE	L147
  1677 00001419                                 L38:
  1678 00001419 8B 85 FFFFF9F0                  	MOV	EAX,DWORD [-1552+EBP]
  1679 0000141F 03 50 08                        	ADD	EDX,DWORD [8+EAX]
  1680 00001422 8D 42 FD                        	LEA	EAX,DWORD [-3+EDX]
  1681 00001425 3B 85 FFFFFA0C                  	CMP	EAX,DWORD [-1524+EBP]
  1682 0000142B 0F 8F FFFFFEBA                  	JG	L28
  1683 00001431 39 95 FFFFFA0C                  	CMP	DWORD [-1524+EBP],EDX
  1684 00001437 0F 8F FFFFFEAE                  	JG	L28
  1685 0000143D E9 FFFFFEF3                     	JMP	L146
  1686 00001442                                 L153:
  1687 00001442 53                              	PUSH	EBX
  1688 00001443 E8 [00000000]                   	CALL	_fifo32_get
  1689 00001448 89 85 FFFFF9DC                  	MOV	DWORD [-1572+EBP],EAX
  1690 0000144E E8 [00000000]                   	CALL	_wait_KBC_sendready
  1691 00001453 FF B5 FFFFF9DC                  	PUSH	DWORD [-1572+EBP]
  1692 00001459 6A 60                           	PUSH	96
  1693 0000145B E8 [00000000]                   	CALL	_io_out8
  1694 00001460 83 C4 0C                        	ADD	ESP,12
  1695 00001463 E9 FFFFF2AD                     	JMP	L19
  1696 00001468                                 L4:
  1697 00001468 68 00023840                     	PUSH	145472
  1698 0000146D 68 003C0000                     	PUSH	3932160
  1699 00001472 E8 [00000000]                   	CALL	_memman_alloc_4k
  1700 00001477 89 C3                           	MOV	EBX,EAX
  1701 00001479 58                              	POP	EAX
  1702 0000147A 5A                              	POP	EDX
  1703 0000147B 31 D2                           	XOR	EDX,EDX
  1704 0000147D C7 85 FFFFFA20 00000000         	MOV	DWORD [-1504+EBP],0
  1705 00001487                                 L10:
  1706 00001487 8A 82 [00000000]                	MOV	AL,BYTE [_hankaku+EDX]
  1707 0000148D 88 04 1A                        	MOV	BYTE [EDX+EBX*1],AL
  1708 00001490 8B 85 FFFFFA20                  	MOV	EAX,DWORD [-1504+EBP]
  1709 00001496 40                              	INC	EAX
  1710 00001497 89 85 FFFFFA20                  	MOV	DWORD [-1504+EBP],EAX
  1711 0000149D 89 C2                           	MOV	EDX,EAX
  1712 0000149F 3D 00000FFF                     	CMP	EAX,4095
  1713 000014A4 7E E1                           	JLE	L10
  1714 000014A6 C7 85 FFFFFA20 00001000         	MOV	DWORD [-1504+EBP],4096
  1715 000014B0 B8 00001000                     	MOV	EAX,4096
  1716 000014B5                                 L15:
  1717 000014B5 C6 04 18 FF                     	MOV	BYTE [EAX+EBX*1],-1
  1718 000014B9 8B 85 FFFFFA20                  	MOV	EAX,DWORD [-1504+EBP]
  1719 000014BF 40                              	INC	EAX
  1720 000014C0 89 85 FFFFFA20                  	MOV	DWORD [-1504+EBP],EAX
  1721 000014C6 3D 0002383F                     	CMP	EAX,145471
  1722 000014CB 7E E8                           	JLE	L15
  1723 000014CD 6A 07                           	PUSH	7
  1724 000014CF 68 [00000201]                   	PUSH	LC11
  1725 000014D4 E9 FFFFF13B                     	JMP	L142
  1726 000014D9                                 L152:
  1727 000014D9 6A 07                           	PUSH	7
  1728 000014DB 68 [00000219]                   	PUSH	LC1
  1729 000014E0 E9 FFFFED80                     	JMP	L141
  1730 000014E5                                 	GLOBAL	_keywin_off
  1731 000014E5                                 _keywin_off:
  1732 000014E5 55                              	PUSH	EBP
  1733 000014E6 89 E5                           	MOV	EBP,ESP
  1734 000014E8 53                              	PUSH	EBX
  1735 000014E9 8B 5D 08                        	MOV	EBX,DWORD [8+EBP]
  1736 000014EC 6A 00                           	PUSH	0
  1737 000014EE 53                              	PUSH	EBX
  1738 000014EF E8 [00000000]                   	CALL	_change_wtitle8
  1739 000014F4 F6 43 1C 20                     	TEST	BYTE [28+EBX],32
  1740 000014F8 59                              	POP	ECX
  1741 000014F9 58                              	POP	EAX
  1742 000014FA 75 05                           	JNE	L183
  1743 000014FC 8B 5D FC                        	MOV	EBX,DWORD [-4+EBP]
  1744 000014FF C9                              	LEAVE
  1745 00001500 C3                              	RET
  1746 00001501                                 L183:
  1747 00001501 E8 [00000000]                   	CALL	_io_cli
  1748 00001506 6A 03                           	PUSH	3
  1749 00001508 8B 43 24                        	MOV	EAX,DWORD [36+EBX]
  1750 0000150B 83 C0 10                        	ADD	EAX,16
  1751 0000150E 50                              	PUSH	EAX
  1752 0000150F E8 [00000000]                   	CALL	_fifo32_put
  1753 00001514 8B 5D FC                        	MOV	EBX,DWORD [-4+EBP]
  1754 00001517 58                              	POP	EAX
  1755 00001518 5A                              	POP	EDX
  1756 00001519 C9                              	LEAVE
  1757 0000151A E9 [00000000]                   	JMP	_io_sti
  1758 0000151F                                 	GLOBAL	_keywin_on
  1759 0000151F                                 _keywin_on:
  1760 0000151F 55                              	PUSH	EBP
  1761 00001520 89 E5                           	MOV	EBP,ESP
  1762 00001522 53                              	PUSH	EBX
  1763 00001523 8B 5D 08                        	MOV	EBX,DWORD [8+EBP]
  1764 00001526 6A 01                           	PUSH	1
  1765 00001528 53                              	PUSH	EBX
  1766 00001529 E8 [00000000]                   	CALL	_change_wtitle8
  1767 0000152E F6 43 1C 20                     	TEST	BYTE [28+EBX],32
  1768 00001532 59                              	POP	ECX
  1769 00001533 58                              	POP	EAX
  1770 00001534 75 05                           	JNE	L186
  1771 00001536 8B 5D FC                        	MOV	EBX,DWORD [-4+EBP]
  1772 00001539 C9                              	LEAVE
  1773 0000153A C3                              	RET
  1774 0000153B                                 L186:
  1775 0000153B E8 [00000000]                   	CALL	_io_cli
  1776 00001540 6A 02                           	PUSH	2
  1777 00001542 8B 43 24                        	MOV	EAX,DWORD [36+EBX]
  1778 00001545 83 C0 10                        	ADD	EAX,16
  1779 00001548 50                              	PUSH	EAX
  1780 00001549 E8 [00000000]                   	CALL	_fifo32_put
  1781 0000154E 8B 5D FC                        	MOV	EBX,DWORD [-4+EBP]
  1782 00001551 58                              	POP	EAX
  1783 00001552 5A                              	POP	EDX
  1784 00001553 C9                              	LEAVE
  1785 00001554 E9 [00000000]                   	JMP	_io_sti
  1786 00001559                                 	GLOBAL	_open_constask
  1787 00001559                                 _open_constask:
  1788 00001559 55                              	PUSH	EBP
  1789 0000155A 89 E5                           	MOV	EBP,ESP
  1790 0000155C 56                              	PUSH	ESI
  1791 0000155D 53                              	PUSH	EBX
  1792 0000155E E8 [00000000]                   	CALL	_task_alloc
  1793 00001563 68 00000200                     	PUSH	512
  1794 00001568 68 003C0000                     	PUSH	3932160
  1795 0000156D 89 C3                           	MOV	EBX,EAX
  1796 0000156F E8 [00000000]                   	CALL	_memman_alloc_4k
  1797 00001574 68 00010000                     	PUSH	65536
  1798 00001579 68 003C0000                     	PUSH	3932160
  1799 0000157E 89 C6                           	MOV	ESI,EAX
  1800 00001580 E8 [00000000]                   	CALL	_memman_alloc_4k
  1801 00001585 C7 83 000000BE 736E6F63         	MOV	DWORD [190+EBX],1936617315
  1802 0000158F C7 83 000000C2 00656C6F         	MOV	DWORD [194+EBX],6646895
  1803 00001599 89 83 000000AC                  	MOV	DWORD [172+EBX],EAX
  1804 0000159F 8B 55 08                        	MOV	EDX,DWORD [8+EBP]
  1805 000015A2 05 0000FFF4                     	ADD	EAX,65524
  1806 000015A7 89 43 64                        	MOV	DWORD [100+EBX],EAX
  1807 000015AA C7 43 4C [00000000]             	MOV	DWORD [76+EBX],_console_task
  1808 000015B1 C7 43 74 00000008               	MOV	DWORD [116+EBX],8
  1809 000015B8 C7 43 78 00000010               	MOV	DWORD [120+EBX],16
  1810 000015BF C7 43 7C 00000008               	MOV	DWORD [124+EBX],8
  1811 000015C6 C7 83 00000080 00000008         	MOV	DWORD [128+EBX],8
  1812 000015D0 C7 83 00000084 00000008         	MOV	DWORD [132+EBX],8
  1813 000015DA C7 83 00000088 00000008         	MOV	DWORD [136+EBX],8
  1814 000015E4 89 50 04                        	MOV	DWORD [4+EAX],EDX
  1815 000015E7 8B 53 64                        	MOV	EDX,DWORD [100+EBX]
  1816 000015EA 8B 45 0C                        	MOV	EAX,DWORD [12+EBP]
  1817 000015ED 89 42 08                        	MOV	DWORD [8+EDX],EAX
  1818 000015F0 6A 02                           	PUSH	2
  1819 000015F2 6A 03                           	PUSH	3
  1820 000015F4 53                              	PUSH	EBX
  1821 000015F5 E8 [00000000]                   	CALL	_task_run
  1822 000015FA 8D 43 10                        	LEA	EAX,DWORD [16+EBX]
  1823 000015FD 53                              	PUSH	EBX
  1824 000015FE 56                              	PUSH	ESI
  1825 000015FF 68 00000080                     	PUSH	128
  1826 00001604 50                              	PUSH	EAX
  1827 00001605 E8 [00000000]                   	CALL	_fifo32_init
  1828 0000160A 8D 65 F8                        	LEA	ESP,DWORD [-8+EBP]
  1829 0000160D 89 D8                           	MOV	EAX,EBX
  1830 0000160F 5B                              	POP	EBX
  1831 00001610 5E                              	POP	ESI
  1832 00001611 5D                              	POP	EBP
  1833 00001612 C3                              	RET
  1834                                          [SECTION .data]
  1835 00000222                                 LC20:
  1836 00000222 63 6F 6E 73 6F 6C 65 00         	DB	"console",0x00
  1837 0000022A                                 LC21:
  1838 0000022A 6F 70 65 6E 20 63 6F 6E 73 6F   	DB	"open console",0x0A,0x00
       00000234 6C 65 0A 00 
  1839                                          [SECTION .text]
  1840 00001613                                 	GLOBAL	_open_console
  1841 00001613                                 _open_console:
  1842 00001613 55                              	PUSH	EBP
  1843 00001614 89 E5                           	MOV	EBP,ESP
  1844 00001616 56                              	PUSH	ESI
  1845 00001617 53                              	PUSH	EBX
  1846 00001618 FF 75 08                        	PUSH	DWORD [8+EBP]
  1847 0000161B E8 [00000000]                   	CALL	_sheet_alloc
  1848 00001620 68 00075300                     	PUSH	480000
  1849 00001625 68 003C0000                     	PUSH	3932160
  1850 0000162A 89 C3                           	MOV	EBX,EAX
  1851 0000162C E8 [00000000]                   	CALL	_memman_alloc_4k
  1852 00001631 6A FF                           	PUSH	-1
  1853 00001633 68 00000190                     	PUSH	400
  1854 00001638 89 C6                           	MOV	ESI,EAX
  1855 0000163A 68 00000258                     	PUSH	600
  1856 0000163F 50                              	PUSH	EAX
  1857 00001640 53                              	PUSH	EBX
  1858 00001641 E8 [00000000]                   	CALL	_sheet_setbuf
  1859 00001646 83 C4 20                        	ADD	ESP,32
  1860 00001649 6A 00                           	PUSH	0
  1861 0000164B 68 [00000222]                   	PUSH	LC20
  1862 00001650 68 00000190                     	PUSH	400
  1863 00001655 68 00000258                     	PUSH	600
  1864 0000165A 56                              	PUSH	ESI
  1865 0000165B E8 [00000000]                   	CALL	_make_window8
  1866 00001660 6A 00                           	PUSH	0
  1867 00001662 68 0000016B                     	PUSH	363
  1868 00001667 68 00000248                     	PUSH	584
  1869 0000166C 6A 1C                           	PUSH	28
  1870 0000166E 6A 08                           	PUSH	8
  1871 00001670 53                              	PUSH	EBX
  1872 00001671 E8 [00000000]                   	CALL	_make_textbox8
  1873 00001676 83 C4 2C                        	ADD	ESP,44
  1874 00001679 FF 75 0C                        	PUSH	DWORD [12+EBP]
  1875 0000167C 53                              	PUSH	EBX
  1876 0000167D E8 FFFFFED7                     	CALL	_open_constask
  1877 00001682 83 4B 1C 20                     	OR	DWORD [28+EBX],32
  1878 00001686 89 43 24                        	MOV	DWORD [36+EBX],EAX
  1879 00001689 6A 01                           	PUSH	1
  1880 0000168B 68 [0000022A]                   	PUSH	LC21
  1881 00001690 E8 [00000000]                   	CALL	_dbg_putstr0
  1882 00001695 8D 65 F8                        	LEA	ESP,DWORD [-8+EBP]
  1883 00001698 89 D8                           	MOV	EAX,EBX
  1884 0000169A 5B                              	POP	EBX
  1885 0000169B 5E                              	POP	ESI
  1886 0000169C 5D                              	POP	EBP
  1887 0000169D C3                              	RET
  1888                                          [SECTION .data]
  1889 00000238                                 LC22:
  1890 00000238 63 6C 6F 73 65 20 63 6F 6E 73   	DB	"close console",0x0A,0x00
       00000242 6F 6C 65 0A 00 
  1891                                          [SECTION .text]
  1892 0000169E                                 	GLOBAL	_close_constask
  1893 0000169E                                 _close_constask:
  1894 0000169E 55                              	PUSH	EBP
  1895 0000169F 89 E5                           	MOV	EBP,ESP
  1896 000016A1 53                              	PUSH	EBX
  1897 000016A2 8B 5D 08                        	MOV	EBX,DWORD [8+EBP]
  1898 000016A5 53                              	PUSH	EBX
  1899 000016A6 E8 [00000000]                   	CALL	_task_sleep
  1900 000016AB 68 00010000                     	PUSH	65536
  1901 000016B0 FF B3 000000AC                  	PUSH	DWORD [172+EBX]
  1902 000016B6 68 003C0000                     	PUSH	3932160
  1903 000016BB E8 [00000000]                   	CALL	_memman_free_4k
  1904 000016C0 68 00000200                     	PUSH	512
  1905 000016C5 FF 73 10                        	PUSH	DWORD [16+EBX]
  1906 000016C8 68 003C0000                     	PUSH	3932160
  1907 000016CD E8 [00000000]                   	CALL	_memman_free_4k
  1908 000016D2 C7 43 04 00000000               	MOV	DWORD [4+EBX],0
  1909 000016D9 6A 01                           	PUSH	1
  1910 000016DB 68 [00000238]                   	PUSH	LC22
  1911 000016E0 E8 [00000000]                   	CALL	_dbg_putstr0
  1912 000016E5 8B 5D FC                        	MOV	EBX,DWORD [-4+EBP]
  1913 000016E8 C9                              	LEAVE
  1914 000016E9 C3                              	RET
  1915 000016EA                                 	GLOBAL	_close_console
  1916 000016EA                                 _close_console:
  1917 000016EA 55                              	PUSH	EBP
  1918 000016EB 89 E5                           	MOV	EBP,ESP
  1919 000016ED 56                              	PUSH	ESI
  1920 000016EE 53                              	PUSH	EBX
  1921 000016EF 8B 5D 08                        	MOV	EBX,DWORD [8+EBP]
  1922 000016F2 8B 73 24                        	MOV	ESI,DWORD [36+EBX]
  1923 000016F5 68 00075300                     	PUSH	480000
  1924 000016FA FF 33                           	PUSH	DWORD [EBX]
  1925 000016FC 68 003C0000                     	PUSH	3932160
  1926 00001701 E8 [00000000]                   	CALL	_memman_free_4k
  1927 00001706 53                              	PUSH	EBX
  1928 00001707 E8 [00000000]                   	CALL	_sheet_free
  1929 0000170C 89 75 08                        	MOV	DWORD [8+EBP],ESI
  1930 0000170F 83 C4 10                        	ADD	ESP,16
  1931 00001712 8D 65 F8                        	LEA	ESP,DWORD [-8+EBP]
  1932 00001715 5B                              	POP	EBX
  1933 00001716 5E                              	POP	ESI
  1934 00001717 5D                              	POP	EBP
  1935 00001718 EB 84                           	JMP	_close_constask
  1936                                          [SECTION .data]
  1937 00000247                                 LC23:
  1938 00000247 5B 25 73 5D 00                  	DB	"[%s]",0x00
  1939                                          [SECTION .text]
  1940 0000171A                                 	GLOBAL	_debug_msg
  1941 0000171A                                 _debug_msg:
  1942 0000171A 55                              	PUSH	EBP
  1943 0000171B 89 E5                           	MOV	EBP,ESP
  1944 0000171D 57                              	PUSH	EDI
  1945 0000171E 56                              	PUSH	ESI
  1946 0000171F 53                              	PUSH	EBX
  1947 00001720 8D 5D 84                        	LEA	EBX,DWORD [-124+EBP]
  1948 00001723 83 EC 70                        	SUB	ESP,112
  1949 00001726 8B 35 000005E4                  	MOV	ESI,DWORD [1508]
  1950 0000172C FF 75 0C                        	PUSH	DWORD [12+EBP]
  1951 0000172F 68 [00000247]                   	PUSH	LC23
  1952 00001734 8D BE 00000414                  	LEA	EDI,DWORD [1044+ESI]
  1953 0000173A 53                              	PUSH	EBX
  1954 0000173B E8 [00000000]                   	CALL	_sprintf
  1955 00001740 53                              	PUSH	EBX
  1956 00001741 6B 45 08 14                     	IMUL	EAX,DWORD [8+EBP],20
  1957 00001745 6A 01                           	PUSH	1
  1958 00001747 83 C0 06                        	ADD	EAX,6
  1959 0000174A 6A 00                           	PUSH	0
  1960 0000174C 50                              	PUSH	EAX
  1961 0000174D 6A 38                           	PUSH	56
  1962 0000174F FF 77 04                        	PUSH	DWORD [4+EDI]
  1963 00001752 FF B6 00000414                  	PUSH	DWORD [1044+ESI]
  1964 00001758 E8 [00000000]                   	CALL	_putfonts8_asc
  1965 0000175D 8D 65 F4                        	LEA	ESP,DWORD [-12+EBP]
  1966 00001760 5B                              	POP	EBX
  1967 00001761 5E                              	POP	ESI
  1968 00001762 5F                              	POP	EDI
  1969 00001763 5D                              	POP	EBP
  1970 00001764 C3                              	RET
  1971                                          [SECTION .data]
  1972 0000024C                                 LC24:
  1973 0000024C 6F 70 65 6E 20 74 61 73 6B 6D   	DB	"open taskmgr",0x0A,0x00
       00000256 67 72 0A 00 
  1974                                          [SECTION .text]
  1975 00001765                                 	GLOBAL	_open_taskmgr
  1976 00001765                                 _open_taskmgr:
  1977 00001765 55                              	PUSH	EBP
  1978 00001766 89 E5                           	MOV	EBP,ESP
  1979 00001768 56                              	PUSH	ESI
  1980 00001769 53                              	PUSH	EBX
  1981 0000176A A1 000005E4                     	MOV	EAX,DWORD [1508]
  1982 0000176F 83 3D [000007E8] 00             	CMP	DWORD [_taskmgr],0
  1983 00001776 74 2E                           	JE	L193
  1984 00001778 31 F6                           	XOR	ESI,ESI
  1985 0000177A 8D 98 00000414                  	LEA	EBX,DWORD [1044+EAX]
  1986 00001780                                 L199:
  1987 00001780 A1 [000007E8]                   	MOV	EAX,DWORD [_taskmgr]
  1988 00001785 39 43 24                        	CMP	DWORD [36+EBX],EAX
  1989 00001788 74 13                           	JE	L201
  1990 0000178A                                 L196:
  1991 0000178A 46                              	INC	ESI
  1992 0000178B 83 C3 2C                        	ADD	EBX,44
  1993 0000178E 81 FE 000000FF                  	CMP	ESI,255
  1994 00001794 7E EA                           	JLE	L199
  1995 00001796                                 L192:
  1996 00001796 8D 65 F8                        	LEA	ESP,DWORD [-8+EBP]
  1997 00001799 5B                              	POP	EBX
  1998 0000179A 5E                              	POP	ESI
  1999 0000179B 5D                              	POP	EBP
  2000 0000179C C3                              	RET
  2001 0000179D                                 L201:
  2002 0000179D 53                              	PUSH	EBX
  2003 0000179E E8 FFFFFD7C                     	CALL	_keywin_on
  2004 000017A3 58                              	POP	EAX
  2005 000017A4 EB E4                           	JMP	L196
  2006 000017A6                                 L193:
  2007 000017A6 E8 [00000000]                   	CALL	_task_alloc
  2008 000017AB 68 00000200                     	PUSH	512
  2009 000017B0 68 003C0000                     	PUSH	3932160
  2010 000017B5 A3 [000007E8]                   	MOV	DWORD [_taskmgr],EAX
  2011 000017BA E8 [00000000]                   	CALL	_memman_alloc_4k
  2012 000017BF 68 00010000                     	PUSH	65536
  2013 000017C4 68 003C0000                     	PUSH	3932160
  2014 000017C9 89 C6                           	MOV	ESI,EAX
  2015 000017CB 8B 1D [000007E8]                	MOV	EBX,DWORD [_taskmgr]
  2016 000017D1 E8 [00000000]                   	CALL	_memman_alloc_4k
  2017 000017D6 05 0000FFF8                     	ADD	EAX,65528
  2018 000017DB 89 43 64                        	MOV	DWORD [100+EBX],EAX
  2019 000017DE A1 [000007E8]                   	MOV	EAX,DWORD [_taskmgr]
  2020 000017E3 C7 80 000000BE 6B736174         	MOV	DWORD [190+EAX],1802723700
  2021 000017ED C7 80 000000C2 0072676D         	MOV	DWORD [194+EAX],7497581
  2022 000017F7 8B 15 [000007E8]                	MOV	EDX,DWORD [_taskmgr]
  2023 000017FD C7 40 4C [00000000]             	MOV	DWORD [76+EAX],_taskmgr_task
  2024 00001804 8B 4A 64                        	MOV	ECX,DWORD [100+EDX]
  2025 00001807 C7 40 74 00000008               	MOV	DWORD [116+EAX],8
  2026 0000180E C7 40 78 00000010               	MOV	DWORD [120+EAX],16
  2027 00001815 C7 40 7C 00000008               	MOV	DWORD [124+EAX],8
  2028 0000181C C7 80 00000080 00000008         	MOV	DWORD [128+EAX],8
  2029 00001826 C7 80 00000084 00000008         	MOV	DWORD [132+EAX],8
  2030 00001830 C7 80 00000088 00000008         	MOV	DWORD [136+EAX],8
  2031 0000183A 8B 45 08                        	MOV	EAX,DWORD [8+EBP]
  2032 0000183D C7 82 000000CE 00000000         	MOV	DWORD [206+EDX],0
  2033 00001847 89 41 04                        	MOV	DWORD [4+ECX],EAX
  2034 0000184A 6A 02                           	PUSH	2
  2035 0000184C 6A 02                           	PUSH	2
  2036 0000184E 52                              	PUSH	EDX
  2037 0000184F E8 [00000000]                   	CALL	_task_run
  2038 00001854 A1 [000007E8]                   	MOV	EAX,DWORD [_taskmgr]
  2039 00001859 FF 35 [000007E8]                	PUSH	DWORD [_taskmgr]
  2040 0000185F 56                              	PUSH	ESI
  2041 00001860 83 C0 10                        	ADD	EAX,16
  2042 00001863 68 00000080                     	PUSH	128
  2043 00001868 50                              	PUSH	EAX
  2044 00001869 E8 [00000000]                   	CALL	_fifo32_init
  2045 0000186E 83 C4 2C                        	ADD	ESP,44
  2046 00001871 6A 01                           	PUSH	1
  2047 00001873 68 [0000024C]                   	PUSH	LC24
  2048 00001878 E8 [00000000]                   	CALL	_dbg_putstr0
  2049 0000187D E9 FFFFFF14                     	JMP	L192
  2050                                          [SECTION .data]
  2051 0000025A                                 LC25:
  2052 0000025A 63 6C 6F 73 65 20 74 61 73 6B   	DB	"close taskmgr",0x0A,0x00
       00000264 6D 67 72 0A 00 
  2053                                          [SECTION .text]
  2054 00001882                                 	GLOBAL	_close_taskmgr
  2055 00001882                                 _close_taskmgr:
  2056 00001882 55                              	PUSH	EBP
  2057 00001883 89 E5                           	MOV	EBP,ESP
  2058 00001885 FF 35 [000007E8]                	PUSH	DWORD [_taskmgr]
  2059 0000188B E8 [00000000]                   	CALL	_task_sleep
  2060 00001890 A1 [000007E8]                   	MOV	EAX,DWORD [_taskmgr]
  2061 00001895 68 00000200                     	PUSH	512
  2062 0000189A FF 70 10                        	PUSH	DWORD [16+EAX]
  2063 0000189D 68 003C0000                     	PUSH	3932160
  2064 000018A2 E8 [00000000]                   	CALL	_memman_free_4k
  2065 000018A7 FF 35 [000007E8]                	PUSH	DWORD [_taskmgr]
  2066 000018AD E8 [00000000]                   	CALL	_task_free
  2067 000018B2 6A 01                           	PUSH	1
  2068 000018B4 68 [0000025A]                   	PUSH	LC25
  2069 000018B9 C7 05 [000007E8] 00000000       	MOV	DWORD [_taskmgr],0
  2070 000018C3 E8 [00000000]                   	CALL	_dbg_putstr0
  2071 000018C8 C9                              	LEAVE
  2072 000018C9 C3                              	RET
  2073                                          [SECTION .data]
  2074 00000269                                 LC26:
  2075 00000269 4F 53 20 4D 65 6E 75 00         	DB	"OS Menu",0x00
  2076                                          [SECTION .text]
  2077 000018CA                                 	GLOBAL	_open_menu
  2078 000018CA                                 _open_menu:
  2079 000018CA 55                              	PUSH	EBP
  2080 000018CB 89 E5                           	MOV	EBP,ESP
  2081 000018CD 57                              	PUSH	EDI
  2082 000018CE 56                              	PUSH	ESI
  2083 000018CF 53                              	PUSH	EBX
  2084 000018D0 83 EC 0C                        	SUB	ESP,12
  2085 000018D3 A1 000005E4                     	MOV	EAX,DWORD [1508]
  2086 000018D8 8B 5D 08                        	MOV	EBX,DWORD [8+EBP]
  2087 000018DB 89 45 F0                        	MOV	DWORD [-16+EBP],EAX
  2088 000018DE 8B 7D 0C                        	MOV	EDI,DWORD [12+EBP]
  2089 000018E1 8B 45 10                        	MOV	EAX,DWORD [16+EBP]
  2090 000018E4 C7 45 EC 00000000               	MOV	DWORD [-20+EBP],0
  2091 000018EB 83 C0 34                        	ADD	EAX,52
  2092 000018EE                                 L209:
  2093 000018EE 83 38 00                        	CMP	DWORD [EAX],0
  2094 000018F1 74 0F                           	JE	L205
  2095 000018F3 FF 45 EC                        	INC	DWORD [-20+EBP]
  2096 000018F6 83 C0 3C                        	ADD	EAX,60
  2097 000018F9 81 7D EC 000000FF               	CMP	DWORD [-20+EBP],255
  2098 00001900 7E EC                           	JLE	L209
  2099 00001902                                 L205:
  2100 00001902 8B 55 10                        	MOV	EDX,DWORD [16+EBP]
  2101 00001905 FF 45 EC                        	INC	DWORD [-20+EBP]
  2102 00001908 83 3A 00                        	CMP	DWORD [EDX],0
  2103 0000190B 0F 84 000000E6                  	JE	L216
  2104 00001911                                 L210:
  2105 00001911 6B 45 EC 1A                     	IMUL	EAX,DWORD [-20+EBP],26
  2106 00001915 8B 55 10                        	MOV	EDX,DWORD [16+EBP]
  2107 00001918 8D 70 02                        	LEA	ESI,DWORD [2+EAX]
  2108 0000191B 83 3A 00                        	CMP	DWORD [EDX],0
  2109 0000191E 75 03                           	JNE	L211
  2110 00001920 8D 70 14                        	LEA	ESI,DWORD [20+EAX]
  2111 00001923                                 L211:
  2112 00001923 FF 75 F0                        	PUSH	DWORD [-16+EBP]
  2113 00001926 E8 [00000000]                   	CALL	_sheet_alloc
  2114 0000192B 81 48 1C 00000100               	OR	DWORD [28+EAX],256
  2115 00001932 89 47 04                        	MOV	DWORD [4+EDI],EAX
  2116 00001935 89 F0                           	MOV	EAX,ESI
  2117 00001937 69 C0 00000090                  	IMUL	EAX,EAX,144
  2118 0000193D 01 C0                           	ADD	EAX,EAX
  2119 0000193F 50                              	PUSH	EAX
  2120 00001940 68 003C0000                     	PUSH	3932160
  2121 00001945 E8 [00000000]                   	CALL	_memman_alloc_4k
  2122 0000194A 89 47 08                        	MOV	DWORD [8+EDI],EAX
  2123 0000194D 6A FF                           	PUSH	-1
  2124 0000194F 56                              	PUSH	ESI
  2125 00001950 68 00000090                     	PUSH	144
  2126 00001955 50                              	PUSH	EAX
  2127 00001956 FF 77 04                        	PUSH	DWORD [4+EDI]
  2128 00001959 E8 [00000000]                   	CALL	_sheet_setbuf
  2129 0000195E 83 C4 20                        	ADD	ESP,32
  2130 00001961 FF 75 EC                        	PUSH	DWORD [-20+EBP]
  2131 00001964 FF 75 10                        	PUSH	DWORD [16+EBP]
  2132 00001967 68 [00000269]                   	PUSH	LC26
  2133 0000196C 56                              	PUSH	ESI
  2134 0000196D 68 00000090                     	PUSH	144
  2135 00001972 FF 77 08                        	PUSH	DWORD [8+EDI]
  2136 00001975 E8 [00000000]                   	CALL	_make_menu8
  2137 0000197A 8B 55 10                        	MOV	EDX,DWORD [16+EBP]
  2138 0000197D 83 C4 18                        	ADD	ESP,24
  2139 00001980 8B 02                           	MOV	EAX,DWORD [EDX]
  2140 00001982 85 C0                           	TEST	EAX,EAX
  2141 00001984 75 48                           	JNE	L212
  2142 00001986 8B 55 F0                        	MOV	EDX,DWORD [-16+EBP]
  2143 00001989 C7 45 E8 00000000               	MOV	DWORD [-24+EBP],0
  2144 00001990 8B 42 0C                        	MOV	EAX,DWORD [12+EDX]
  2145 00001993 29 F0                           	SUB	EAX,ESI
  2146 00001995 83 E8 1C                        	SUB	EAX,28
  2147 00001998                                 L213:
  2148 00001998 50                              	PUSH	EAX
  2149 00001999 FF 75 E8                        	PUSH	DWORD [-24+EBP]
  2150 0000199C FF 77 04                        	PUSH	DWORD [4+EDI]
  2151 0000199F E8 [00000000]                   	CALL	_sheet_slide
  2152 000019A4 8B 45 F0                        	MOV	EAX,DWORD [-16+EBP]
  2153 000019A7 FF 70 10                        	PUSH	DWORD [16+EAX]
  2154 000019AA FF 77 04                        	PUSH	DWORD [4+EDI]
  2155 000019AD E8 [00000000]                   	CALL	_sheet_updown
  2156 000019B2 8B 45 EC                        	MOV	EAX,DWORD [-20+EBP]
  2157 000019B5 8B 55 10                        	MOV	EDX,DWORD [16+EBP]
  2158 000019B8 89 47 10                        	MOV	DWORD [16+EDI],EAX
  2159 000019BB C7 47 0C 00000000               	MOV	DWORD [12+EDI],0
  2160 000019C2 89 17                           	MOV	DWORD [EDI],EDX
  2161 000019C4 8B 02                           	MOV	EAX,DWORD [EDX]
  2162 000019C6 8D 65 F4                        	LEA	ESP,DWORD [-12+EBP]
  2163 000019C9 5B                              	POP	EBX
  2164 000019CA 5E                              	POP	ESI
  2165 000019CB 5F                              	POP	EDI
  2166 000019CC 5D                              	POP	EBP
  2167 000019CD C3                              	RET
  2168 000019CE                                 L212:
  2169 000019CE 89 C2                           	MOV	EDX,EAX
  2170 000019D0 8D 5F EC                        	LEA	EBX,DWORD [-20+EDI]
  2171 000019D3 69 D2 0000008C                  	IMUL	EDX,EDX,140
  2172 000019D9 89 55 E8                        	MOV	DWORD [-24+EBP],EDX
  2173 000019DC 6B 53 0C 1A                     	IMUL	EDX,DWORD [12+EBX],26
  2174 000019E0 48                              	DEC	EAX
  2175 000019E1 8D 4A 02                        	LEA	ECX,DWORD [2+EDX]
  2176 000019E4 74 0C                           	JE	L217
  2177 000019E6                                 L214:
  2178 000019E6 8B 43 04                        	MOV	EAX,DWORD [4+EBX]
  2179 000019E9 8B 40 10                        	MOV	EAX,DWORD [16+EAX]
  2180 000019EC 01 C8                           	ADD	EAX,ECX
  2181 000019EE 29 F0                           	SUB	EAX,ESI
  2182 000019F0 EB A6                           	JMP	L213
  2183 000019F2                                 L217:
  2184 000019F2 8D 4A 14                        	LEA	ECX,DWORD [20+EDX]
  2185 000019F5 EB EF                           	JMP	L214
  2186 000019F7                                 L216:
  2187 000019F7 FF 73 08                        	PUSH	DWORD [8+EBX]
  2188 000019FA FF 73 04                        	PUSH	DWORD [4+EBX]
  2189 000019FD FF 33                           	PUSH	DWORD [EBX]
  2190 000019FF E8 [00000000]                   	CALL	_push_menu
  2191 00001A04 8B 43 08                        	MOV	EAX,DWORD [8+EBX]
  2192 00001A07 8D 50 FE                        	LEA	EDX,DWORD [-2+EAX]
  2193 00001A0A 83 E8 18                        	SUB	EAX,24
  2194 00001A0D 52                              	PUSH	EDX
  2195 00001A0E 6A 3D                           	PUSH	61
  2196 00001A10 50                              	PUSH	EAX
  2197 00001A11 6A 02                           	PUSH	2
  2198 00001A13 53                              	PUSH	EBX
  2199 00001A14 E8 [00000000]                   	CALL	_sheet_refresh
  2200 00001A19 83 C4 20                        	ADD	ESP,32
  2201 00001A1C E9 FFFFFEF0                     	JMP	L210
  2202 00001A21                                 	GLOBAL	_close_menu
  2203 00001A21                                 _close_menu:
  2204 00001A21 55                              	PUSH	EBP
  2205 00001A22 89 E5                           	MOV	EBP,ESP
  2206 00001A24 56                              	PUSH	ESI
  2207 00001A25 53                              	PUSH	EBX
  2208 00001A26 8B 5D 0C                        	MOV	EBX,DWORD [12+EBP]
  2209 00001A29 6A FF                           	PUSH	-1
  2210 00001A2B 8B 75 08                        	MOV	ESI,DWORD [8+EBP]
  2211 00001A2E FF 73 04                        	PUSH	DWORD [4+EBX]
  2212 00001A31 E8 [00000000]                   	CALL	_sheet_updown
  2213 00001A36 8B 43 04                        	MOV	EAX,DWORD [4+EBX]
  2214 00001A39 8B 50 08                        	MOV	EDX,DWORD [8+EAX]
  2215 00001A3C 0F AF 50 04                     	IMUL	EDX,DWORD [4+EAX]
  2216 00001A40 01 D2                           	ADD	EDX,EDX
  2217 00001A42 52                              	PUSH	EDX
  2218 00001A43 FF 73 08                        	PUSH	DWORD [8+EBX]
  2219 00001A46 68 003C0000                     	PUSH	3932160
  2220 00001A4B E8 [00000000]                   	CALL	_memman_free_4k
  2221 00001A50 FF 73 04                        	PUSH	DWORD [4+EBX]
  2222 00001A53 E8 [00000000]                   	CALL	_sheet_free
  2223 00001A58 83 C4 18                        	ADD	ESP,24
  2224 00001A5B 8B 03                           	MOV	EAX,DWORD [EBX]
  2225 00001A5D 83 38 00                        	CMP	DWORD [EAX],0
  2226 00001A60 74 0C                           	JE	L220
  2227 00001A62                                 L219:
  2228 00001A62 8B 03                           	MOV	EAX,DWORD [EBX]
  2229 00001A64 8B 00                           	MOV	EAX,DWORD [EAX]
  2230 00001A66 8D 65 F8                        	LEA	ESP,DWORD [-8+EBP]
  2231 00001A69 5B                              	POP	EBX
  2232 00001A6A 48                              	DEC	EAX
  2233 00001A6B 5E                              	POP	ESI
  2234 00001A6C 5D                              	POP	EBP
  2235 00001A6D C3                              	RET
  2236 00001A6E                                 L220:
  2237 00001A6E FF 76 08                        	PUSH	DWORD [8+ESI]
  2238 00001A71 FF 76 04                        	PUSH	DWORD [4+ESI]
  2239 00001A74 FF 36                           	PUSH	DWORD [ESI]
  2240 00001A76 E8 [00000000]                   	CALL	_pull_menu
  2241 00001A7B 8B 46 08                        	MOV	EAX,DWORD [8+ESI]
  2242 00001A7E 8D 50 FE                        	LEA	EDX,DWORD [-2+EAX]
  2243 00001A81 83 E8 18                        	SUB	EAX,24
  2244 00001A84 52                              	PUSH	EDX
  2245 00001A85 6A 3D                           	PUSH	61
  2246 00001A87 50                              	PUSH	EAX
  2247 00001A88 6A 02                           	PUSH	2
  2248 00001A8A 56                              	PUSH	ESI
  2249 00001A8B E8 [00000000]                   	CALL	_sheet_refresh
  2250 00001A90 83 C4 20                        	ADD	ESP,32
  2251 00001A93 EB CD                           	JMP	L219
  2252 00001A95                                 	GLOBAL	_select_menu
  2253 00001A95                                 _select_menu:
  2254 00001A95 55                              	PUSH	EBP
  2255 00001A96 89 E5                           	MOV	EBP,ESP
  2256 00001A98 57                              	PUSH	EDI
  2257 00001A99 56                              	PUSH	ESI
  2258 00001A9A BF 00000001                     	MOV	EDI,1
  2259 00001A9F 53                              	PUSH	EBX
  2260 00001AA0 50                              	PUSH	EAX
  2261 00001AA1 8B 75 08                        	MOV	ESI,DWORD [8+EBP]
  2262 00001AA4 8B 5D 10                        	MOV	EBX,DWORD [16+EBP]
  2263 00001AA7 8B 46 0C                        	MOV	EAX,DWORD [12+ESI]
  2264 00001AAA 85 C0                           	TEST	EAX,EAX
  2265 00001AAC 75 67                           	JNE	L226
  2266 00001AAE                                 L222:
  2267 00001AAE 8B 06                           	MOV	EAX,DWORD [ESI]
  2268 00001AB0 89 45 F0                        	MOV	DWORD [-16+EBP],EAX
  2269 00001AB3 83 38 00                        	CMP	DWORD [EAX],0
  2270 00001AB6 75 05                           	JNE	L223
  2271 00001AB8 BF 00000013                     	MOV	EDI,19
  2272 00001ABD                                 L223:
  2273 00001ABD 83 7D 0C 01                     	CMP	DWORD [12+EBP],1
  2274 00001AC1 7E 1C                           	JLE	L224
  2275 00001AC3 8B 4E 04                        	MOV	ECX,DWORD [4+ESI]
  2276 00001AC6 8B 41 04                        	MOV	EAX,DWORD [4+ECX]
  2277 00001AC9 83 E8 02                        	SUB	EAX,2
  2278 00001ACC 39 45 0C                        	CMP	DWORD [12+EBP],EAX
  2279 00001ACF 7D 0E                           	JGE	L224
  2280 00001AD1 39 DF                           	CMP	EDI,EBX
  2281 00001AD3 7D 0A                           	JGE	L224
  2282 00001AD5 8B 41 08                        	MOV	EAX,DWORD [8+ECX]
  2283 00001AD8 83 E8 02                        	SUB	EAX,2
  2284 00001ADB 39 C3                           	CMP	EBX,EAX
  2285 00001ADD 7C 0F                           	JL	L227
  2286 00001ADF                                 L224:
  2287 00001ADF C7 46 0C 00000000               	MOV	DWORD [12+ESI],0
  2288 00001AE6                                 L221:
  2289 00001AE6 8D 65 F4                        	LEA	ESP,DWORD [-12+EBP]
  2290 00001AE9 5B                              	POP	EBX
  2291 00001AEA 5E                              	POP	ESI
  2292 00001AEB 5F                              	POP	EDI
  2293 00001AEC 5D                              	POP	EBP
  2294 00001AED C3                              	RET
  2295 00001AEE                                 L227:
  2296 00001AEE 29 FB                           	SUB	EBX,EDI
  2297 00001AF0 BA 0000001A                     	MOV	EDX,26
  2298 00001AF5 89 D8                           	MOV	EAX,EBX
  2299 00001AF7 89 D7                           	MOV	EDI,EDX
  2300 00001AF9 99                              	CDQ
  2301 00001AFA F7 FF                           	IDIV	EDI
  2302 00001AFC 8D 40 01                        	LEA	EAX,DWORD [1+EAX]
  2303 00001AFF 89 46 0C                        	MOV	DWORD [12+ESI],EAX
  2304 00001B02 6A 01                           	PUSH	1
  2305 00001B04 50                              	PUSH	EAX
  2306 00001B05 8B 45 F0                        	MOV	EAX,DWORD [-16+EBP]
  2307 00001B08 FF 30                           	PUSH	DWORD [EAX]
  2308 00001B0A 51                              	PUSH	ECX
  2309 00001B0B E8 [00000000]                   	CALL	_change_mtitle8
  2310 00001B10 83 C4 10                        	ADD	ESP,16
  2311 00001B13 EB D1                           	JMP	L221
  2312 00001B15                                 L226:
  2313 00001B15 6A 00                           	PUSH	0
  2314 00001B17 50                              	PUSH	EAX
  2315 00001B18 8B 06                           	MOV	EAX,DWORD [ESI]
  2316 00001B1A FF 30                           	PUSH	DWORD [EAX]
  2317 00001B1C FF 76 04                        	PUSH	DWORD [4+ESI]
  2318 00001B1F E8 [00000000]                   	CALL	_change_mtitle8
  2319 00001B24 83 C4 10                        	ADD	ESP,16
  2320 00001B27 EB 85                           	JMP	L222
  2321                                          [SECTION .data]
  2322 00000271                                 LC27:
  2323 00000271 3C 73 75 62 6D 65 6E 75 3E 00   	DB	"<submenu>",0x00
  2324 0000027B                                 LC28:
  2325 0000027B 3C 63 6F 6E 73 6F 6C 65 3E 00   	DB	"<console>",0x00
  2326 00000285                                 LC29:
  2327 00000285 3C 74 61 73 6B 6D 67 72 3E 00   	DB	"<taskmgr>",0x00
  2328 0000028F                                 LC30:
  2329 0000028F 6F 70 65 6E 20 74 61 73 6B 6D   	DB	"open taskmgr",0x00
       00000299 67 72 00 
  2330                                          [SECTION .text]
  2331 00001B29                                 	GLOBAL	_exec_menu
  2332 00001B29                                 _exec_menu:
  2333 00001B29 55                              	PUSH	EBP
  2334 00001B2A 89 E5                           	MOV	EBP,ESP
  2335 00001B2C 57                              	PUSH	EDI
  2336 00001B2D 56                              	PUSH	ESI
  2337 00001B2E 53                              	PUSH	EBX
  2338 00001B2F 51                              	PUSH	ECX
  2339 00001B30 51                              	PUSH	ECX
  2340 00001B31 8B 4D 08                        	MOV	ECX,DWORD [8+EBP]
  2341 00001B34 A1 000005E4                     	MOV	EAX,DWORD [1508]
  2342 00001B39 89 45 F0                        	MOV	DWORD [-16+EBP],EAX
  2343 00001B3C 8B 51 10                        	MOV	EDX,DWORD [16+ECX]
  2344 00001B3F 8B 41 0C                        	MOV	EAX,DWORD [12+ECX]
  2345 00001B42 29 C2                           	SUB	EDX,EAX
  2346 00001B44 83 C9 FF                        	OR	ECX,-1
  2347 00001B47 85 C0                           	TEST	EAX,EAX
  2348 00001B49 0F 84 00000081                  	JE	L228
  2349 00001B4F 8B 75 08                        	MOV	ESI,DWORD [8+EBP]
  2350 00001B52 85 D2                           	TEST	EDX,EDX
  2351 00001B54 8B 36                           	MOV	ESI,DWORD [ESI]
  2352 00001B56 89 75 EC                        	MOV	DWORD [-20+EBP],ESI
  2353 00001B59 7E 0E                           	JLE	L247
  2354 00001B5B 89 D3                           	MOV	EBX,EDX
  2355 00001B5D                                 L234:
  2356 00001B5D 8B 45 EC                        	MOV	EAX,DWORD [-20+EBP]
  2357 00001B60 4B                              	DEC	EBX
  2358 00001B61 8B 40 34                        	MOV	EAX,DWORD [52+EAX]
  2359 00001B64 89 45 EC                        	MOV	DWORD [-20+EBP],EAX
  2360 00001B67 75 F4                           	JNE	L234
  2361 00001B69                                 L247:
  2362 00001B69 8B 45 EC                        	MOV	EAX,DWORD [-20+EBP]
  2363 00001B6C BF [00000271]                   	MOV	EDI,LC27
  2364 00001B71 83 C0 14                        	ADD	EAX,20
  2365 00001B74 B9 0000000A                     	MOV	ECX,10
  2366 00001B79 FC                              	CLD
  2367 00001B7A 89 C6                           	MOV	ESI,EAX
  2368 00001B7C F3                              	REPE
  2369 00001B7D A6                              	CMPSB
  2370 00001B7E 0F 84 000000E7                  	JE	L250
  2371 00001B84 8B 45 EC                        	MOV	EAX,DWORD [-20+EBP]
  2372 00001B87 BF [0000027B]                   	MOV	EDI,LC28
  2373 00001B8C 83 C0 14                        	ADD	EAX,20
  2374 00001B8F B9 0000000A                     	MOV	ECX,10
  2375 00001B94 FC                              	CLD
  2376 00001B95 89 C6                           	MOV	ESI,EAX
  2377 00001B97 F3                              	REPE
  2378 00001B98 A6                              	CMPSB
  2379 00001B99 0F 84 0000009B                  	JE	L251
  2380 00001B9F 8B 45 EC                        	MOV	EAX,DWORD [-20+EBP]
  2381 00001BA2 BF [00000285]                   	MOV	EDI,LC29
  2382 00001BA7 83 C0 14                        	ADD	EAX,20
  2383 00001BAA B9 0000000A                     	MOV	ECX,10
  2384 00001BAF FC                              	CLD
  2385 00001BB0 89 C6                           	MOV	ESI,EAX
  2386 00001BB2 F3                              	REPE
  2387 00001BB3 A6                              	CMPSB
  2388 00001BB4 75 24                           	JNE	L239
  2389 00001BB6 68 [0000028F]                   	PUSH	LC30
  2390 00001BBB 6A 01                           	PUSH	1
  2391 00001BBD E8 FFFFFB58                     	CALL	_debug_msg
  2392 00001BC2 FF 75 0C                        	PUSH	DWORD [12+EBP]
  2393 00001BC5 E8 FFFFFB9B                     	CALL	_open_taskmgr
  2394 00001BCA 83 C4 0C                        	ADD	ESP,12
  2395 00001BCD                                 L236:
  2396 00001BCD 83 C9 FF                        	OR	ECX,-1
  2397 00001BD0                                 L228:
  2398 00001BD0 8D 65 F4                        	LEA	ESP,DWORD [-12+EBP]
  2399 00001BD3 89 C8                           	MOV	EAX,ECX
  2400 00001BD5 5B                              	POP	EBX
  2401 00001BD6 5E                              	POP	ESI
  2402 00001BD7 5F                              	POP	EDI
  2403 00001BD8 5D                              	POP	EBP
  2404 00001BD9 C3                              	RET
  2405 00001BDA                                 L239:
  2406 00001BDA FF 75 0C                        	PUSH	DWORD [12+EBP]
  2407 00001BDD 6A 00                           	PUSH	0
  2408 00001BDF 31 DB                           	XOR	EBX,EBX
  2409 00001BE1 E8 FFFFF973                     	CALL	_open_constask
  2410 00001BE6 8D 78 10                        	LEA	EDI,DWORD [16+EAX]
  2411 00001BE9 58                              	POP	EAX
  2412 00001BEA 8B 45 EC                        	MOV	EAX,DWORD [-20+EBP]
  2413 00001BED 5A                              	POP	EDX
  2414 00001BEE 80 78 14 00                     	CMP	BYTE [20+EAX],0
  2415 00001BF2 75 19                           	JNE	L245
  2416 00001BF4                                 L249:
  2417 00001BF4 E8 [00000000]                   	CALL	_io_cli
  2418 00001BF9 68 0000010A                     	PUSH	266
  2419 00001BFE 57                              	PUSH	EDI
  2420 00001BFF E8 [00000000]                   	CALL	_fifo32_put
  2421 00001C04 E8 [00000000]                   	CALL	_io_sti
  2422 00001C09 58                              	POP	EAX
  2423 00001C0A 5A                              	POP	EDX
  2424 00001C0B EB C0                           	JMP	L236
  2425 00001C0D                                 L245:
  2426 00001C0D E8 [00000000]                   	CALL	_io_cli
  2427 00001C12 8B 55 EC                        	MOV	EDX,DWORD [-20+EBP]
  2428 00001C15 0F BE 44 1A 14                  	MOVSX	EAX,BYTE [20+EDX+EBX*1]
  2429 00001C1A 05 00000100                     	ADD	EAX,256
  2430 00001C1F 43                              	INC	EBX
  2431 00001C20 50                              	PUSH	EAX
  2432 00001C21 57                              	PUSH	EDI
  2433 00001C22 E8 [00000000]                   	CALL	_fifo32_put
  2434 00001C27 E8 [00000000]                   	CALL	_io_sti
  2435 00001C2C 59                              	POP	ECX
  2436 00001C2D 8B 4D EC                        	MOV	ECX,DWORD [-20+EBP]
  2437 00001C30 5E                              	POP	ESI
  2438 00001C31 80 7C 19 14 00                  	CMP	BYTE [20+ECX+EBX*1],0
  2439 00001C36 75 D5                           	JNE	L245
  2440 00001C38 EB BA                           	JMP	L249
  2441 00001C3A                                 L251:
  2442 00001C3A FF 75 0C                        	PUSH	DWORD [12+EBP]
  2443 00001C3D FF 75 F0                        	PUSH	DWORD [-16+EBP]
  2444 00001C40 E8 FFFFF9CE                     	CALL	_open_console
  2445 00001C45 6A 08                           	PUSH	8
  2446 00001C47 6A 08                           	PUSH	8
  2447 00001C49 89 C3                           	MOV	EBX,EAX
  2448 00001C4B 50                              	PUSH	EAX
  2449 00001C4C E8 [00000000]                   	CALL	_sheet_slide
  2450 00001C51 8B 45 F0                        	MOV	EAX,DWORD [-16+EBP]
  2451 00001C54 FF 70 10                        	PUSH	DWORD [16+EAX]
  2452 00001C57 53                              	PUSH	EBX
  2453 00001C58 E8 [00000000]                   	CALL	_sheet_updown
  2454 00001C5D 53                              	PUSH	EBX
  2455 00001C5E E8 FFFFF8BC                     	CALL	_keywin_on
  2456 00001C63 83 C4 20                        	ADD	ESP,32
  2457 00001C66 E9 FFFFFF62                     	JMP	L236
  2458 00001C6B                                 L250:
  2459 00001C6B 8B 45 EC                        	MOV	EAX,DWORD [-20+EBP]
  2460 00001C6E FF 70 38                        	PUSH	DWORD [56+EAX]
  2461 00001C71 8B 45 08                        	MOV	EAX,DWORD [8+EBP]
  2462 00001C74 83 C0 14                        	ADD	EAX,20
  2463 00001C77 50                              	PUSH	EAX
  2464 00001C78 6A 00                           	PUSH	0
  2465 00001C7A E8 FFFFFC4B                     	CALL	_open_menu
  2466 00001C7F 89 C1                           	MOV	ECX,EAX
  2467 00001C81 E9 FFFFFF4A                     	JMP	L228
  2468 00001C86                                 	GLOBAL	_set_menu
  2469 00001C86                                 _set_menu:
  2470 00001C86 55                              	PUSH	EBP
  2471 00001C87 89 E5                           	MOV	EBP,ESP
  2472 00001C89 57                              	PUSH	EDI
  2473 00001C8A 56                              	PUSH	ESI
  2474 00001C8B 31 F6                           	XOR	ESI,ESI
  2475 00001C8D 53                              	PUSH	EBX
  2476 00001C8E 83 EC 10                        	SUB	ESP,16
  2477 00001C91 8B 7D 18                        	MOV	EDI,DWORD [24+EBP]
  2478 00001C94 8B 5D 08                        	MOV	EBX,DWORD [8+EBP]
  2479 00001C97 C7 45 EC FFFFFFFF               	MOV	DWORD [-20+EBP],-1
  2480 00001C9E C7 45 E8 00000000               	MOV	DWORD [-24+EBP],0
  2481 00001CA5 C7 45 E4 00000000               	MOV	DWORD [-28+EBP],0
  2482 00001CAC C7 45 F0 00000000               	MOV	DWORD [-16+EBP],0
  2483 00001CB3                                 L269:
  2484 00001CB3 85 FF                           	TEST	EDI,EDI
  2485 00001CB5 0F 84 00000096                  	JE	L257
  2486 00001CBB 57                              	PUSH	EDI
  2487 00001CBC 8D 43 04                        	LEA	EAX,DWORD [4+EBX]
  2488 00001CBF 50                              	PUSH	EAX
  2489 00001CC0 E8 [00000000]                   	CALL	_strcmp
  2490 00001CC5 5A                              	POP	EDX
  2491 00001CC6 59                              	POP	ECX
  2492 00001CC7 85 C0                           	TEST	EAX,EAX
  2493 00001CC9 75 03                           	JNE	L259
  2494 00001CCB 89 5D E8                        	MOV	DWORD [-24+EBP],EBX
  2495 00001CCE                                 L259:
  2496 00001CCE 80 7B 04 00                     	CMP	BYTE [4+EBX],0
  2497 00001CD2 74 1D                           	JE	L271
  2498 00001CD4 FF 45 F0                        	INC	DWORD [-16+EBP]
  2499 00001CD7 83 C3 3C                        	ADD	EBX,60
  2500 00001CDA 83 C6 3C                        	ADD	ESI,60
  2501 00001CDD 81 7D F0 000000FF               	CMP	DWORD [-16+EBP],255
  2502 00001CE4 7E CD                           	JLE	L269
  2503 00001CE6                                 L254:
  2504 00001CE6 8B 45 EC                        	MOV	EAX,DWORD [-20+EBP]
  2505 00001CE9 8D 65 F4                        	LEA	ESP,DWORD [-12+EBP]
  2506 00001CEC 5B                              	POP	EBX
  2507 00001CED 5E                              	POP	ESI
  2508 00001CEE 5F                              	POP	EDI
  2509 00001CEF 5D                              	POP	EBP
  2510 00001CF0 C3                              	RET
  2511 00001CF1                                 L271:
  2512 00001CF1 85 FF                           	TEST	EDI,EDI
  2513 00001CF3 74 06                           	JE	L265
  2514 00001CF5 83 7D E8 00                     	CMP	DWORD [-24+EBP],0
  2515 00001CF9 74 EB                           	JE	L254
  2516 00001CFB                                 L265:
  2517 00001CFB 83 7D 1C 00                     	CMP	DWORD [28+EBP],0
  2518 00001CFF 74 06                           	JE	L263
  2519 00001D01 83 7D E4 00                     	CMP	DWORD [-28+EBP],0
  2520 00001D05 74 DF                           	JE	L254
  2521 00001D07                                 L263:
  2522 00001D07 85 FF                           	TEST	EDI,EDI
  2523 00001D09 74 33                           	JE	L266
  2524 00001D0B 8B 45 08                        	MOV	EAX,DWORD [8+EBP]
  2525 00001D0E 8B 55 E8                        	MOV	EDX,DWORD [-24+EBP]
  2526 00001D11 01 F0                           	ADD	EAX,ESI
  2527 00001D13 89 42 38                        	MOV	DWORD [56+EDX],EAX
  2528 00001D16                                 L267:
  2529 00001D16 8B 45 0C                        	MOV	EAX,DWORD [12+EBP]
  2530 00001D19 89 03                           	MOV	DWORD [EBX],EAX
  2531 00001D1B 8D 43 04                        	LEA	EAX,DWORD [4+EBX]
  2532 00001D1E FF 75 10                        	PUSH	DWORD [16+EBP]
  2533 00001D21 50                              	PUSH	EAX
  2534 00001D22 E8 [00000000]                   	CALL	_strcpy
  2535 00001D27 8D 43 14                        	LEA	EAX,DWORD [20+EBX]
  2536 00001D2A FF 75 14                        	PUSH	DWORD [20+EBP]
  2537 00001D2D 50                              	PUSH	EAX
  2538 00001D2E E8 [00000000]                   	CALL	_strcpy
  2539 00001D33 83 C4 10                        	ADD	ESP,16
  2540 00001D36 8B 45 F0                        	MOV	EAX,DWORD [-16+EBP]
  2541 00001D39 89 45 EC                        	MOV	DWORD [-20+EBP],EAX
  2542 00001D3C EB A8                           	JMP	L254
  2543 00001D3E                                 L266:
  2544 00001D3E 83 7D 1C 00                     	CMP	DWORD [28+EBP],0
  2545 00001D42 74 D2                           	JE	L267
  2546 00001D44 8B 45 08                        	MOV	EAX,DWORD [8+EBP]
  2547 00001D47 8B 55 E4                        	MOV	EDX,DWORD [-28+EBP]
  2548 00001D4A 01 F0                           	ADD	EAX,ESI
  2549 00001D4C 89 42 34                        	MOV	DWORD [52+EDX],EAX
  2550 00001D4F EB C5                           	JMP	L267
  2551 00001D51                                 L257:
  2552 00001D51 83 7D 1C 00                     	CMP	DWORD [28+EBP],0
  2553 00001D55 0F 84 FFFFFF73                  	JE	L259
  2554 00001D5B FF 75 1C                        	PUSH	DWORD [28+EBP]
  2555 00001D5E 8D 43 04                        	LEA	EAX,DWORD [4+EBX]
  2556 00001D61 50                              	PUSH	EAX
  2557 00001D62 E8 [00000000]                   	CALL	_strcmp
  2558 00001D67 5A                              	POP	EDX
  2559 00001D68 59                              	POP	ECX
  2560 00001D69 85 C0                           	TEST	EAX,EAX
  2561 00001D6B 0F 85 FFFFFF5D                  	JNE	L259
  2562 00001D71 89 5D E4                        	MOV	DWORD [-28+EBP],EBX
  2563 00001D74 E9 FFFFFF55                     	JMP	L259
  2564                                          [SECTION .data]
  2565 0000029C                                 LC31:
  2566 0000029C 74 61 73 6B 6D 67 72 00         	DB	"taskmgr",0x00
  2567 000002A4                                 LC32:
  2568 000002A4 65 78 70 6C 6F 72 65 72 2E 68   	DB	"explorer.hrb",0x00
       000002AE 72 62 00 
  2569 000002B1                                 LC33:
  2570 000002B1 65 78 70 6C 6F 72 65 72 00      	DB	"explorer",0x00
  2571 000002BA                                 LC34:
  2572 000002BA 70 72 6F 67 72 61 6D 73 2B 00   	DB	"programs+",0x00
  2573 000002C4                                 LC35:
  2574 000002C4 77 61 6C 6B 00                  	DB	"walk",0x00
  2575                                          [SECTION .text]
  2576 00001D79                                 	GLOBAL	_init_menu
  2577 00001D79                                 _init_menu:
  2578 00001D79 55                              	PUSH	EBP
  2579 00001D7A 89 E5                           	MOV	EBP,ESP
  2580 00001D7C 56                              	PUSH	ESI
  2581 00001D7D 53                              	PUSH	EBX
  2582 00001D7E 68 00004000                     	PUSH	16384
  2583 00001D83 8B 75 08                        	MOV	ESI,DWORD [8+EBP]
  2584 00001D86 68 003C0000                     	PUSH	3932160
  2585 00001D8B 8B 5D 0C                        	MOV	EBX,DWORD [12+EBP]
  2586 00001D8E E8 [00000000]                   	CALL	_memman_alloc_4k
  2587 00001D93 B9 000000FF                     	MOV	ECX,255
  2588 00001D98 89 03                           	MOV	DWORD [EBX],EAX
  2589 00001D9A 58                              	POP	EAX
  2590 00001D9B 5A                              	POP	EDX
  2591 00001D9C 31 D2                           	XOR	EDX,EDX
  2592 00001D9E                                 L277:
  2593 00001D9E 8B 03                           	MOV	EAX,DWORD [EBX]
  2594 00001DA0 C6 44 10 04 00                  	MOV	BYTE [4+EAX+EDX*1],0
  2595 00001DA5 C7 04 10 00000000               	MOV	DWORD [EAX+EDX*1],0
  2596 00001DAC 8B 03                           	MOV	EAX,DWORD [EBX]
  2597 00001DAE C6 44 10 14 00                  	MOV	BYTE [20+EAX+EDX*1],0
  2598 00001DB3 8B 03                           	MOV	EAX,DWORD [EBX]
  2599 00001DB5 C7 44 10 34 00000000            	MOV	DWORD [52+EAX+EDX*1],0
  2600 00001DBD 8B 03                           	MOV	EAX,DWORD [EBX]
  2601 00001DBF C7 44 10 38 00000000            	MOV	DWORD [56+EAX+EDX*1],0
  2602 00001DC7 83 C2 3C                        	ADD	EDX,60
  2603 00001DCA 49                              	DEC	ECX
  2604 00001DCB 79 D1                           	JNS	L277
  2605 00001DCD 31 C0                           	XOR	EAX,EAX
  2606 00001DCF B9 00000007                     	MOV	ECX,7
  2607 00001DD4                                 L282:
  2608 00001DD4 C7 04 06 00000000               	MOV	DWORD [ESI+EAX*1],0
  2609 00001DDB C7 44 06 04 00000000            	MOV	DWORD [4+ESI+EAX*1],0
  2610 00001DE3 C7 44 06 08 00000000            	MOV	DWORD [8+ESI+EAX*1],0
  2611 00001DEB C7 44 06 0C 00000000            	MOV	DWORD [12+ESI+EAX*1],0
  2612 00001DF3 C7 44 06 10 00000000            	MOV	DWORD [16+ESI+EAX*1],0
  2613 00001DFB 83 C0 14                        	ADD	EAX,20
  2614 00001DFE 49                              	DEC	ECX
  2615 00001DFF 79 D3                           	JNS	L282
  2616 00001E01 6A 00                           	PUSH	0
  2617 00001E03 6A 00                           	PUSH	0
  2618 00001E05 68 [00000285]                   	PUSH	LC29
  2619 00001E0A 68 [0000029C]                   	PUSH	LC31
  2620 00001E0F 6A 00                           	PUSH	0
  2621 00001E11 FF 33                           	PUSH	DWORD [EBX]
  2622 00001E13 E8 FFFFFE6E                     	CALL	_set_menu
  2623 00001E18 68 [0000029C]                   	PUSH	LC31
  2624 00001E1D 6A 00                           	PUSH	0
  2625 00001E1F 68 [0000027B]                   	PUSH	LC28
  2626 00001E24 68 [00000222]                   	PUSH	LC20
  2627 00001E29 6A 00                           	PUSH	0
  2628 00001E2B FF 33                           	PUSH	DWORD [EBX]
  2629 00001E2D E8 FFFFFE54                     	CALL	_set_menu
  2630 00001E32 83 C4 30                        	ADD	ESP,48
  2631 00001E35 68 [00000222]                   	PUSH	LC20
  2632 00001E3A 6A 00                           	PUSH	0
  2633 00001E3C 68 [000002A4]                   	PUSH	LC32
  2634 00001E41 68 [000002B1]                   	PUSH	LC33
  2635 00001E46 6A 00                           	PUSH	0
  2636 00001E48 FF 33                           	PUSH	DWORD [EBX]
  2637 00001E4A E8 FFFFFE37                     	CALL	_set_menu
  2638 00001E4F 68 [000002B1]                   	PUSH	LC33
  2639 00001E54 6A 00                           	PUSH	0
  2640 00001E56 68 [00000271]                   	PUSH	LC27
  2641 00001E5B 68 [000002BA]                   	PUSH	LC34
  2642 00001E60 6A 00                           	PUSH	0
  2643 00001E62 FF 33                           	PUSH	DWORD [EBX]
  2644 00001E64 E8 FFFFFE1D                     	CALL	_set_menu
  2645 00001E69 83 C4 30                        	ADD	ESP,48
  2646 00001E6C 6A 00                           	PUSH	0
  2647 00001E6E 68 [000002BA]                   	PUSH	LC34
  2648 00001E73 68 [000002C4]                   	PUSH	LC35
  2649 00001E78 68 [000002C4]                   	PUSH	LC35
  2650 00001E7D 6A 01                           	PUSH	1
  2651 00001E7F FF 33                           	PUSH	DWORD [EBX]
  2652 00001E81 E8 FFFFFE00                     	CALL	_set_menu
  2653 00001E86 8D 65 F8                        	LEA	ESP,DWORD [-8+EBP]
  2654 00001E89 5B                              	POP	EBX
  2655 00001E8A 5E                              	POP	ESI
  2656 00001E8B 5D                              	POP	EBP
  2657 00001E8C C3                              	RET
  2658 00001E8D                                 	GLOBAL	_reset_back
  2659 00001E8D                                 _reset_back:
  2660 00001E8D 55                              	PUSH	EBP
  2661 00001E8E 89 E5                           	MOV	EBP,ESP
  2662 00001E90 5D                              	POP	EBP
  2663 00001E91 C3                              	RET
  2664 00001E92                                 	GLOBAL	_reset_key_win
  2665 00001E92                                 _reset_key_win:
  2666 00001E92 55                              	PUSH	EBP
  2667 00001E93 89 E5                           	MOV	EBP,ESP
  2668 00001E95 5D                              	POP	EBP
  2669 00001E96 C3                              	RET
  2670 00001E97                                 	GLOBAL	_u_fat
  2671                                          [SECTION .data]
  2672 000002C9 00 00 00                        	ALIGNB	4
  2673 000002CC                                 _u_fat:
  2674 000002CC 00 00 00 00                     	RESB	4
  2675 000002D0                                 	GLOBAL	_fat_flag
  2676                                          [SECTION .data]
  2677 000002D0                                 _fat_flag:
  2678 000002D0 00                              	RESB	1
  2679 000002D1                                 	GLOBAL	_current_path
  2680                                          [SECTION .data]
  2681 000002D1 00 00 00 00 00 00 00 00 00 00   	ALIGNB	16
       000002DB 00 00 00 00 00 
  2682 000002E0                                 _current_path:
  2683 000002E0 00 00 00 00 00 00 00 00 00 00   	RESB	256
       000002EA 00 00 00 00 00 00 00 00 00 00 
       000002F4 00 00 00 00 00 00 00 00 00 00 
       000002FE 00 00 00 00 00 00 00 00 00 00 
       00000308 00 00 00 00 00 00 00 00 00 00 
       00000312 00 00 00 00 00 00 00 00 00 00 
       0000031C 00 00 00 00 00 00 00 00 00 00 
       00000326 00 00 00 00 00 00 00 00 00 00 
       00000330 00 00 00 00 00 00 00 00 00 00 
       0000033A 00 00 00 00 00 00 00 00 00 00 
       00000344 00 00 00 00 00 00 00 00 00 00 
       0000034E 00 00 00 00 00 00 00 00 00 00 
       00000358 00 00 00 00 00 00 00 00 00 00 
       00000362 00 00 00 00 00 00 00 00 00 00 
       0000036C 00 00 00 00 00 00 00 00 00 00 
       00000376 00 00 00 00 00 00 00 00 00 00 
       00000380 00 00 00 00 00 00 00 00 00 00 
       0000038A 00 00 00 00 00 00 00 00 00 00 
       00000394 00 00 00 00 00 00 00 00 00 00 
       0000039E 00 00 00 00 00 00 00 00 00 00 
       000003A8 00 00 00 00 00 00 00 00 00 00 
       000003B2 00 00 00 00 00 00 00 00 00 00 
       000003BC 00 00 00 00 00 00 00 00 00 00 
       000003C6 00 00 00 00 00 00 00 00 00 00 
       000003D0 00 00 00 00 00 00 00 00 00 00 
       000003DA 00 00 00 00 00 00 
  2684 000003E0                                 	GLOBAL	_epath
  2685                                          [SECTION .data]
  2686 000003E0                                 	ALIGNB	16
  2687 000003E0                                 _epath:
  2688 000003E0 00 00 00 00 00 00 00 00 00 00   	RESB	1024
       000003EA 00 00 00 00 00 00 00 00 00 00 
       000003F4 00 00 00 00 00 00 00 00 00 00 
       000003FE 00 00 00 00 00 00 00 00 00 00 
       00000408 00 00 00 00 00 00 00 00 00 00 
       00000412 00 00 00 00 00 00 00 00 00 00 
       0000041C 00 00 00 00 00 00 00 00 00 00 
       00000426 00 00 00 00 00 00 00 00 00 00 
       00000430 00 00 00 00 00 00 00 00 00 00 
       0000043A 00 00 00 00 00 00 00 00 00 00 
       00000444 00 00 00 00 00 00 00 00 00 00 
       0000044E 00 00 00 00 00 00 00 00 00 00 
       00000458 00 00 00 00 00 00 00 00 00 00 
       00000462 00 00 00 00 00 00 00 00 00 00 
       0000046C 00 00 00 00 00 00 00 00 00 00 
       00000476 00 00 00 00 00 00 00 00 00 00 
       00000480 00 00 00 00 00 00 00 00 00 00 
       0000048A 00 00 00 00 00 00 00 00 00 00 
       00000494 00 00 00 00 00 00 00 00 00 00 
       0000049E 00 00 00 00 00 00 00 00 00 00 
       000004A8 00 00 00 00 00 00 00 00 00 00 
       000004B2 00 00 00 00 00 00 00 00 00 00 
       000004BC 00 00 00 00 00 00 00 00 00 00 
       000004C6 00 00 00 00 00 00 00 00 00 00 
       000004D0 00 00 00 00 00 00 00 00 00 00 
       000004DA 00 00 00 00 00 00 00 00 00 00 
       000004E4 00 00 00 00 00 00 00 00 00 00 
       000004EE 00 00 00 00 00 00 00 00 00 00 
       000004F8 00 00 00 00 00 00 00 00 00 00 
       00000502 00 00 00 00 00 00 00 00 00 00 
       0000050C 00 00 00 00 00 00 00 00 00 00 
       00000516 00 00 00 00 00 00 00 00 00 00 
       00000520 00 00 00 00 00 00 00 00 00 00 
       0000052A 00 00 00 00 00 00 00 00 00 00 
       00000534 00 00 00 00 00 00 00 00 00 00 
       0000053E 00 00 00 00 00 00 00 00 00 00 
       00000548 00 00 00 00 00 00 00 00 00 00 
       00000552 00 00 00 00 00 00 00 00 00 00 
       0000055C 00 00 00 00 00 00 00 00 00 00 
       00000566 00 00 00 00 00 00 00 00 00 00 
       00000570 00 00 00 00 00 00 00 00 00 00 
       0000057A 00 00 00 00 00 00 00 00 00 00 
       00000584 00 00 00 00 00 00 00 00 00 00 
       0000058E 00 00 00 00 00 00 00 00 00 00 
       00000598 00 00 00 00 00 00 00 00 00 00 
       000005A2 00 00 00 00 00 00 00 00 00 00 
       000005AC 00 00 00 00 00 00 00 00 00 00 
       000005B6 00 00 00 00 00 00 00 00 00 00 
       000005C0 00 00 00 00 00 00 00 00 00 00 
       000005CA 00 00 00 00 00 00 00 00 00 00 
       000005D4 00 00 00 00 00 00 00 00 00 00 
       000005DE 00 00 00 00 00 00 00 00 00 00 
       000005E8 00 00 00 00 00 00 00 00 00 00 
       000005F2 00 00 00 00 00 00 00 00 00 00 
       000005FC 00 00 00 00 00 00 00 00 00 00 
       00000606 00 00 00 00 00 00 00 00 00 00 
       00000610 00 00 00 00 00 00 00 00 00 00 
       0000061A 00 00 00 00 00 00 00 00 00 00 
       00000624 00 00 00 00 00 00 00 00 00 00 
       0000062E 00 00 00 00 00 00 00 00 00 00 
       00000638 00 00 00 00 00 00 00 00 00 00 
       00000642 00 00 00 00 00 00 00 00 00 00 
       0000064C 00 00 00 00 00 00 00 00 00 00 
       00000656 00 00 00 00 00 00 00 00 00 00 
       00000660 00 00 00 00 00 00 00 00 00 00 
       0000066A 00 00 00 00 00 00 00 00 00 00 
       00000674 00 00 00 00 00 00 00 00 00 00 
       0000067E 00 00 00 00 00 00 00 00 00 00 
       00000688 00 00 00 00 00 00 00 00 00 00 
       00000692 00 00 00 00 00 00 00 00 00 00 
       0000069C 00 00 00 00 00 00 00 00 00 00 
       000006A6 00 00 00 00 00 00 00 00 00 00 
       000006B0 00 00 00 00 00 00 00 00 00 00 
       000006BA 00 00 00 00 00 00 00 00 00 00 
       000006C4 00 00 00 00 00 00 00 00 00 00 
       000006CE 00 00 00 00 00 00 00 00 00 00 
       000006D8 00 00 00 00 00 00 00 00 00 00 
       000006E2 00 00 00 00 00 00 00 00 00 00 
       000006EC 00 00 00 00 00 00 00 00 00 00 
       000006F6 00 00 00 00 00 00 00 00 00 00 
       00000700 00 00 00 00 00 00 00 00 00 00 
       0000070A 00 00 00 00 00 00 00 00 00 00 
       00000714 00 00 00 00 00 00 00 00 00 00 
       0000071E 00 00 00 00 00 00 00 00 00 00 
       00000728 00 00 00 00 00 00 00 00 00 00 
       00000732 00 00 00 00 00 00 00 00 00 00 
       0000073C 00 00 00 00 00 00 00 00 00 00 
       00000746 00 00 00 00 00 00 00 00 00 00 
       00000750 00 00 00 00 00 00 00 00 00 00 
       0000075A 00 00 00 00 00 00 00 00 00 00 
       00000764 00 00 00 00 00 00 00 00 00 00 
       0000076E 00 00 00 00 00 00 00 00 00 00 
       00000778 00 00 00 00 00 00 00 00 00 00 
       00000782 00 00 00 00 00 00 00 00 00 00 
       0000078C 00 00 00 00 00 00 00 00 00 00 
       00000796 00 00 00 00 00 00 00 00 00 00 
       000007A0 00 00 00 00 00 00 00 00 00 00 
       000007AA 00 00 00 00 00 00 00 00 00 00 
       000007B4 00 00 00 00 00 00 00 00 00 00 
       000007BE 00 00 00 00 00 00 00 00 00 00 
       000007C8 00 00 00 00 00 00 00 00 00 00 
       000007D2 00 00 00 00 00 00 00 00 00 00 
       000007DC 00 00 00 00 
  2689 000007E0                                 	GLOBAL	_fdc
  2690                                          [SECTION .data]
  2691 000007E0                                 	ALIGNB	4
  2692 000007E0                                 _fdc:
  2693 000007E0 00 00 00 00                     	RESB	4
  2694 000007E4                                 	GLOBAL	_inout
  2695                                          [SECTION .data]
  2696 000007E4                                 	ALIGNB	4
  2697 000007E4                                 _inout:
  2698 000007E4 00 00 00 00                     	RESB	4
  2699 000007E8                                 	GLOBAL	_taskmgr
  2700                                          [SECTION .data]
  2701 000007E8                                 	ALIGNB	4
  2702 000007E8                                 _taskmgr:
  2703 000007E8 00 00 00 00                     	RESB	4
