     1 00000000                                 [FORMAT "WCOFF"]
     2 00000000                                 [INSTRSET "i486p"]
     3 00000000                                 [OPTIMIZE 1]
     4 00000000                                 [OPTION 1]
     5 00000000                                 [BITS 32]
     6 00000000                                 	EXTERN	_task_now
     7 00000000                                 	EXTERN	_timer_alloc
     8 00000000                                 	EXTERN	_timer_init
     9 00000000                                 	EXTERN	_timer_settime
    10 00000000                                 	EXTERN	_u_fat
    11 00000000                                 	EXTERN	_io_cli
    12 00000000                                 	EXTERN	_fifo32_status
    13 00000000                                 	EXTERN	_fifo32_get
    14 00000000                                 	EXTERN	_io_sti
    15 00000000                                 	EXTERN	_boxfill8
    16 00000000                                 	EXTERN	_sheet_refresh
    17 00000000                                 	EXTERN	_task_sleep
    18 00000000                                 	EXTERN	_putfonts8_asc_sht
    19 00000000                                 	EXTERN	_open_taskmgr
    20 00000000                                 	EXTERN	_memman_total
    21 00000000                                 	EXTERN	_sprintf
    22 00000000                                 	EXTERN	_dbg_putstr0
    23 00000000                                 	EXTERN	_timer_cancel
    24 00000000                                 	EXTERN	_fifo32_put
    25 00000000                                 	EXTERN	_taskctl
    26 00000000                                 	EXTERN	_open_console
    27 00000000                                 	EXTERN	_sheet_slide
    28 00000000                                 	EXTERN	_sheet_updown
    29 00000000                                 	EXTERN	_open_constask
    30 00000000                                 	EXTERN	_rtc_get
    31 00000000                                 	EXTERN	_test_sb16
    32 00000000                                 	EXTERN	_CardID
    33 00000000                                 	EXTERN	_IOAddr
    34 00000000                                 	EXTERN	_ver2
    35 00000000                                 	EXTERN	_ver1
    36 00000000                                 	EXTERN	_SBIntr
    37 00000000                                 	EXTERN	_DMA
    38 00000000                                 	EXTERN	_HDMA
    39 00000000                                 	EXTERN	_MIDI
    40 00000000                                 	EXTERN	_Mixer
    41 00000000                                 	EXTERN	_write_dsp
    42 00000000                                 	EXTERN	_timerctl
    43 00000000                                 	EXTERN	_file_path
    44 00000000                                 	EXTERN	_current_path
    45 00000000                                 	EXTERN	_file_search2
    46 00000000                                 	EXTERN	_strcpy
    47 00000000                                 	EXTERN	_strncpy
    48 00000000                                 	EXTERN	_file_search
    49 00000000                                 	EXTERN	_file_loadfile2
    50 00000000                                 	EXTERN	_memman_free_4k
    51 00000000                                 	EXTERN	_memman_alloc_4k
    52 00000000                                 	EXTERN	_set_segmdesc
    53 00000000                                 	EXTERN	_start_app
    54 00000000                                 	EXTERN	_timer_cancelall
    55 00000000                                 	EXTERN	_sheet_free
    56 00000000                                 	EXTERN	_io_in8
    57 00000000                                 	EXTERN	_io_out8
    58 00000000                                 	EXTERN	_timer_free
    59 00000000                                 	EXTERN	_table_16_65536
    60 00000000                                 	EXTERN	_memman_free
    61 00000000                                 	EXTERN	_memman_alloc
    62 00000000                                 	EXTERN	_memman_init
    63 00000000                                 	EXTERN	_putfonts8_asc
    64 00000000                                 	EXTERN	_sheet_alloc
    65 00000000                                 	EXTERN	_sheet_setbuf
    66 00000000                                 	EXTERN	_make_window8
    67 00000000                                 	EXTERN	_set_title
    68 00000000                                 [FILE "console.c"]
    69                                          [SECTION .data]
    70 00000000                                 LC0:
    71 00000000 63 6F 6E 00                     	DB	"con",0x00
    72                                          [SECTION .text]
    73 00000000                                 	GLOBAL	_console_task
    74 00000000                                 _console_task:
    75 00000000 55                              	PUSH	EBP
    76 00000001 89 E5                           	MOV	EBP,ESP
    77 00000003 57                              	PUSH	EDI
    78 00000004 56                              	PUSH	ESI
    79 00000005 53                              	PUSH	EBX
    80 00000006 81 EC 00000208                  	SUB	ESP,520
    81 0000000C 8B 5D 08                        	MOV	EBX,DWORD [8+EBP]
    82 0000000F E8 [00000000]                   	CALL	_task_now
    83 00000014 89 C7                           	MOV	EDI,EAX
    84 00000016 89 5D D4                        	MOV	DWORD [-44+EBP],EBX
    85 00000019 A1 000005E8                     	MOV	EAX,DWORD [1512]
    86 0000001E 85 DB                           	TEST	EBX,EBX
    87 00000020 89 85 FFFFFDF0                  	MOV	DWORD [-528+EBP],EAX
    88 00000026 8D 45 D4                        	LEA	EAX,DWORD [-44+EBP]
    89 00000029 89 87 000000A4                  	MOV	DWORD [164+EDI],EAX
    90 0000002F 8D 85 FFFFFDF4                  	LEA	EAX,DWORD [-524+EBP]
    91 00000035 C7 45 D8 00000008               	MOV	DWORD [-40+EBP],8
    92 0000003C C7 45 DC 0000001C               	MOV	DWORD [-36+EBP],28
    93 00000043 C7 45 E0 FFFFFFFF               	MOV	DWORD [-32+EBP],-1
    94 0000004A 89 87 000000B8                  	MOV	DWORD [184+EDI],EAX
    95 00000050 74 26                           	JE	L2
    96 00000052 68 [00000000]                   	PUSH	LC0
    97 00000057 E8 [00000000]                   	CALL	_timer_alloc
    98 0000005C 8D 57 10                        	LEA	EDX,DWORD [16+EDI]
    99 0000005F 6A 01                           	PUSH	1
   100 00000061 52                              	PUSH	EDX
   101 00000062 89 45 E4                        	MOV	DWORD [-28+EBP],EAX
   102 00000065 50                              	PUSH	EAX
   103 00000066 E8 [00000000]                   	CALL	_timer_init
   104 0000006B 6A 32                           	PUSH	50
   105 0000006D FF 75 E4                        	PUSH	DWORD [-28+EBP]
   106 00000070 E8 [00000000]                   	CALL	_timer_settime
   107 00000075 83 C4 18                        	ADD	ESP,24
   108 00000078                                 L2:
   109 00000078 31 C0                           	XOR	EAX,EAX
   110 0000007A BE 00000007                     	MOV	ESI,7
   111 0000007F                                 L7:
   112 0000007F C7 84 05 FFFFFEF4 00000000      	MOV	DWORD [-268+EBP+EAX*1],0
   113 0000008A 83 C0 1C                        	ADD	EAX,28
   114 0000008D 4E                              	DEC	ESI
   115 0000008E 79 EF                           	JNS	L7
   116 00000090 8D 85 FFFFFEF4                  	LEA	EAX,DWORD [-268+EBP]
   117 00000096 8B 8D FFFFFDF0                  	MOV	ECX,DWORD [-528+EBP]
   118 0000009C 89 87 000000B0                  	MOV	DWORD [176+EDI],EAX
   119 000000A2 A1 [00000000]                   	MOV	EAX,DWORD [_u_fat]
   120 000000A7 89 87 000000B4                  	MOV	DWORD [180+EDI],EAX
   121 000000AD 8D 45 D4                        	LEA	EAX,DWORD [-44+EBP]
   122 000000B0 80 B9 00001000 FF               	CMP	BYTE [4096+ECX],-1
   123 000000B7 C6 87 000000BD 00               	MOV	BYTE [189+EDI],0
   124 000000BE 0F 95 87 000000BC               	SETNE	BYTE [188+EDI]
   125 000000C5 6A 01                           	PUSH	1
   126 000000C7 6A 3E                           	PUSH	62
   127 000000C9 50                              	PUSH	EAX
   128 000000CA E8 0000023C                     	CALL	_cons_putchar
   129 000000CF 83 C4 0C                        	ADD	ESP,12
   130 000000D2                                 L10:
   131 000000D2 8D 5F 10                        	LEA	EBX,DWORD [16+EDI]
   132 000000D5 E8 [00000000]                   	CALL	_io_cli
   133 000000DA 53                              	PUSH	EBX
   134 000000DB E8 [00000000]                   	CALL	_fifo32_status
   135 000000E0 5E                              	POP	ESI
   136 000000E1 85 C0                           	TEST	EAX,EAX
   137 000000E3 0F 84 00000211                  	JE	L38
   138 000000E9 53                              	PUSH	EBX
   139 000000EA E8 [00000000]                   	CALL	_fifo32_get
   140 000000EF 89 C6                           	MOV	ESI,EAX
   141 000000F1 E8 [00000000]                   	CALL	_io_sti
   142 000000F6 59                              	POP	ECX
   143 000000F7 83 FE 01                        	CMP	ESI,1
   144 000000FA 0F 8E 000001A3                  	JLE	L39
   145 00000100                                 L15:
   146 00000100 83 FE 02                        	CMP	ESI,2
   147 00000103 0F 84 0000018E                  	JE	L40
   148 00000109                                 L20:
   149 00000109 83 FE 03                        	CMP	ESI,3
   150 0000010C 0F 84 00000153                  	JE	L41
   151 00000112                                 L21:
   152 00000112 83 FE 04                        	CMP	ESI,4
   153 00000115 0F 84 00000134                  	JE	L42
   154 0000011B                                 L23:
   155 0000011B 8D 9E FFFFFF00                  	LEA	EBX,DWORD [-256+ESI]
   156 00000121 89 9D FFFFFDEC                  	MOV	DWORD [-532+EBP],EBX
   157 00000127 81 FB 000000FF                  	CMP	EBX,255
   158 0000012D 77 4E                           	JA	L24
   159 0000012F 81 FE 00000108                  	CMP	ESI,264
   160 00000135 0F 84 000000F4                  	JE	L43
   161 0000013B 81 FE 0000010A                  	CMP	ESI,266
   162 00000141 0F 84 00000089                  	JE	L44
   163 00000147 8B 4D D8                        	MOV	ECX,DWORD [-40+EBP]
   164 0000014A 81 F9 00000247                  	CMP	ECX,583
   165 00000150 7F 2B                           	JG	L24
   166 00000152 89 C8                           	MOV	EAX,ECX
   167 00000154 BA 00000008                     	MOV	EDX,8
   168 00000159 89 D3                           	MOV	EBX,EDX
   169 0000015B 6A 01                           	PUSH	1
   170 0000015D 99                              	CDQ
   171 0000015E F7 FB                           	IDIV	EBX
   172 00000160 89 C1                           	MOV	ECX,EAX
   173 00000162 89 F0                           	MOV	EAX,ESI
   174 00000164 88 84 0D FFFFFDF2               	MOV	BYTE [-526+EBP+ECX*1],AL
   175 0000016B 8D 45 D4                        	LEA	EAX,DWORD [-44+EBP]
   176 0000016E FF B5 FFFFFDEC                  	PUSH	DWORD [-532+EBP]
   177 00000174 50                              	PUSH	EAX
   178 00000175                                 L36:
   179 00000175 E8 00000191                     	CALL	_cons_putchar
   180 0000017A                                 L37:
   181 0000017A 83 C4 0C                        	ADD	ESP,12
   182 0000017D                                 L24:
   183 0000017D 8B 5D D4                        	MOV	EBX,DWORD [-44+EBP]
   184 00000180 85 DB                           	TEST	EBX,EBX
   185 00000182 0F 84 FFFFFF4A                  	JE	L10
   186 00000188 83 7D E0 00                     	CMP	DWORD [-32+EBP],0
   187 0000018C 78 22                           	JS	L33
   188 0000018E 8B 4D DC                        	MOV	ECX,DWORD [-36+EBP]
   189 00000191 8B 55 D8                        	MOV	EDX,DWORD [-40+EBP]
   190 00000194 8D 41 0F                        	LEA	EAX,DWORD [15+ECX]
   191 00000197 50                              	PUSH	EAX
   192 00000198 8D 42 07                        	LEA	EAX,DWORD [7+EDX]
   193 0000019B 50                              	PUSH	EAX
   194 0000019C 51                              	PUSH	ECX
   195 0000019D 52                              	PUSH	EDX
   196 0000019E 0F B6 45 E0                     	MOVZX	EAX,BYTE [-32+EBP]
   197 000001A2 50                              	PUSH	EAX
   198 000001A3 FF 73 04                        	PUSH	DWORD [4+EBX]
   199 000001A6 FF 33                           	PUSH	DWORD [EBX]
   200 000001A8 E8 [00000000]                   	CALL	_boxfill8
   201 000001AD 83 C4 1C                        	ADD	ESP,28
   202 000001B0                                 L33:
   203 000001B0 8B 4D DC                        	MOV	ECX,DWORD [-36+EBP]
   204 000001B3 8B 55 D8                        	MOV	EDX,DWORD [-40+EBP]
   205 000001B6 8D 41 10                        	LEA	EAX,DWORD [16+ECX]
   206 000001B9 50                              	PUSH	EAX
   207 000001BA 8D 42 08                        	LEA	EAX,DWORD [8+EDX]
   208 000001BD 50                              	PUSH	EAX
   209 000001BE 51                              	PUSH	ECX
   210 000001BF 52                              	PUSH	EDX
   211 000001C0 FF 75 D4                        	PUSH	DWORD [-44+EBP]
   212 000001C3 E8 [00000000]                   	CALL	_sheet_refresh
   213 000001C8 83 C4 14                        	ADD	ESP,20
   214 000001CB E9 FFFFFF02                     	JMP	L10
   215 000001D0                                 L44:
   216 000001D0 6A 00                           	PUSH	0
   217 000001D2 8D 5D D4                        	LEA	EBX,DWORD [-44+EBP]
   218 000001D5 6A 20                           	PUSH	32
   219 000001D7 53                              	PUSH	EBX
   220 000001D8 E8 0000012E                     	CALL	_cons_putchar
   221 000001DD 53                              	PUSH	EBX
   222 000001DE 8B 45 D8                        	MOV	EAX,DWORD [-40+EBP]
   223 000001E1 BA 00000008                     	MOV	EDX,8
   224 000001E6 89 D1                           	MOV	ECX,EDX
   225 000001E8 99                              	CDQ
   226 000001E9 F7 F9                           	IDIV	ECX
   227 000001EB C6 84 05 FFFFFDF2 00            	MOV	BYTE [-526+EBP+EAX*1],0
   228 000001F3 E8 000001C4                     	CALL	_cons_newline
   229 000001F8 8D 85 FFFFFDF4                  	LEA	EAX,DWORD [-524+EBP]
   230 000001FE FF 75 0C                        	PUSH	DWORD [12+EBP]
   231 00000201 FF 35 [00000000]                	PUSH	DWORD [_u_fat]
   232 00000207 53                              	PUSH	EBX
   233 00000208 50                              	PUSH	EAX
   234 00000209 E8 0000030D                     	CALL	_cons_runcmd
   235 0000020E 83 C4 20                        	ADD	ESP,32
   236 00000211 83 7D D4 00                     	CMP	DWORD [-44+EBP],0
   237 00000215 75 0E                           	JNE	L29
   238 00000217 FF 35 [00000000]                	PUSH	DWORD [_u_fat]
   239 0000021D 53                              	PUSH	EBX
   240 0000021E E8 00000A7A                     	CALL	_cmd_exit
   241 00000223 58                              	POP	EAX
   242 00000224 5A                              	POP	EDX
   243 00000225                                 L29:
   244 00000225 6A 01                           	PUSH	1
   245 00000227 6A 3E                           	PUSH	62
   246 00000229 53                              	PUSH	EBX
   247 0000022A E9 FFFFFF46                     	JMP	L36
   248 0000022F                                 L43:
   249 0000022F 83 7D D8 10                     	CMP	DWORD [-40+EBP],16
   250 00000233 0F 8E FFFFFF44                  	JLE	L24
   251 00000239 6A 00                           	PUSH	0
   252 0000023B 8D 45 D4                        	LEA	EAX,DWORD [-44+EBP]
   253 0000023E 6A 20                           	PUSH	32
   254 00000240 50                              	PUSH	EAX
   255 00000241 E8 000000C5                     	CALL	_cons_putchar
   256 00000246 83 6D D8 08                     	SUB	DWORD [-40+EBP],8
   257 0000024A E9 FFFFFF2B                     	JMP	L37
   258 0000024F                                 L42:
   259 0000024F FF 35 [00000000]                	PUSH	DWORD [_u_fat]
   260 00000255 8D 45 D4                        	LEA	EAX,DWORD [-44+EBP]
   261 00000258 50                              	PUSH	EAX
   262 00000259 E8 00000A3F                     	CALL	_cmd_exit
   263 0000025E 59                              	POP	ECX
   264 0000025F 5B                              	POP	EBX
   265 00000260 E9 FFFFFEB6                     	JMP	L23
   266 00000265                                 L41:
   267 00000265 8B 5D D4                        	MOV	EBX,DWORD [-44+EBP]
   268 00000268 85 DB                           	TEST	EBX,EBX
   269 0000026A 74 1F                           	JE	L22
   270 0000026C 8B 4D DC                        	MOV	ECX,DWORD [-36+EBP]
   271 0000026F 8B 55 D8                        	MOV	EDX,DWORD [-40+EBP]
   272 00000272 8D 41 0F                        	LEA	EAX,DWORD [15+ECX]
   273 00000275 50                              	PUSH	EAX
   274 00000276 8D 42 07                        	LEA	EAX,DWORD [7+EDX]
   275 00000279 50                              	PUSH	EAX
   276 0000027A 51                              	PUSH	ECX
   277 0000027B 52                              	PUSH	EDX
   278 0000027C 6A 00                           	PUSH	0
   279 0000027E FF 73 04                        	PUSH	DWORD [4+EBX]
   280 00000281 FF 33                           	PUSH	DWORD [EBX]
   281 00000283 E8 [00000000]                   	CALL	_boxfill8
   282 00000288 83 C4 1C                        	ADD	ESP,28
   283 0000028B                                 L22:
   284 0000028B C7 45 E0 FFFFFFFF               	MOV	DWORD [-32+EBP],-1
   285 00000292 E9 FFFFFE7B                     	JMP	L21
   286 00000297                                 L40:
   287 00000297 C7 45 E0 00000007               	MOV	DWORD [-32+EBP],7
   288 0000029E E9 FFFFFE66                     	JMP	L20
   289 000002A3                                 L39:
   290 000002A3 83 7D D4 00                     	CMP	DWORD [-44+EBP],0
   291 000002A7 0F 84 FFFFFE53                  	JE	L15
   292 000002AD 85 F6                           	TEST	ESI,ESI
   293 000002AF 74 2C                           	JE	L16
   294 000002B1 6A 00                           	PUSH	0
   295 000002B3 53                              	PUSH	EBX
   296 000002B4 FF 75 E4                        	PUSH	DWORD [-28+EBP]
   297 000002B7 E8 [00000000]                   	CALL	_timer_init
   298 000002BC 83 C4 0C                        	ADD	ESP,12
   299 000002BF 83 7D E0 00                     	CMP	DWORD [-32+EBP],0
   300 000002C3 78 07                           	JS	L18
   301 000002C5 C7 45 E0 00000007               	MOV	DWORD [-32+EBP],7
   302 000002CC                                 L18:
   303 000002CC 6A 32                           	PUSH	50
   304 000002CE FF 75 E4                        	PUSH	DWORD [-28+EBP]
   305 000002D1 E8 [00000000]                   	CALL	_timer_settime
   306 000002D6 58                              	POP	EAX
   307 000002D7 5A                              	POP	EDX
   308 000002D8 E9 FFFFFE23                     	JMP	L15
   309 000002DD                                 L16:
   310 000002DD 6A 01                           	PUSH	1
   311 000002DF 53                              	PUSH	EBX
   312 000002E0 FF 75 E4                        	PUSH	DWORD [-28+EBP]
   313 000002E3 E8 [00000000]                   	CALL	_timer_init
   314 000002E8 83 C4 0C                        	ADD	ESP,12
   315 000002EB 83 7D E0 00                     	CMP	DWORD [-32+EBP],0
   316 000002EF 78 DB                           	JS	L18
   317 000002F1 C7 45 E0 00000000               	MOV	DWORD [-32+EBP],0
   318 000002F8 EB D2                           	JMP	L18
   319 000002FA                                 L38:
   320 000002FA 57                              	PUSH	EDI
   321 000002FB E8 [00000000]                   	CALL	_task_sleep
   322 00000300 E8 [00000000]                   	CALL	_io_sti
   323 00000305 5B                              	POP	EBX
   324 00000306 E9 FFFFFDC7                     	JMP	L10
   325                                          [SECTION .data]
   326 00000004                                 LC1:
   327 00000004 20 00                           	DB	" ",0x00
   328                                          [SECTION .text]
   329 0000030B                                 	GLOBAL	_cons_putchar
   330 0000030B                                 _cons_putchar:
   331 0000030B 55                              	PUSH	EBP
   332 0000030C 89 E5                           	MOV	EBP,ESP
   333 0000030E 53                              	PUSH	EBX
   334 0000030F 50                              	PUSH	EAX
   335 00000310 8B 45 0C                        	MOV	EAX,DWORD [12+EBP]
   336 00000313 8A 55 10                        	MOV	DL,BYTE [16+EBP]
   337 00000316 8B 5D 08                        	MOV	EBX,DWORD [8+EBP]
   338 00000319 88 55 F9                        	MOV	BYTE [-7+EBP],DL
   339 0000031C 88 45 FA                        	MOV	BYTE [-6+EBP],AL
   340 0000031F 3C 09                           	CMP	AL,9
   341 00000321 C6 45 FB 00                     	MOV	BYTE [-5+EBP],0
   342 00000325 74 4D                           	JE	L47
   343 00000327 3C 0A                           	CMP	AL,10
   344 00000329 74 25                           	JE	L61
   345 0000032B 3C 0D                           	CMP	AL,13
   346 0000032D 74 1C                           	JE	L45
   347 0000032F 8B 13                           	MOV	EDX,DWORD [EBX]
   348 00000331 85 D2                           	TEST	EDX,EDX
   349 00000333 75 24                           	JNE	L62
   350 00000335                                 L58:
   351 00000335 80 7D F9 00                     	CMP	BYTE [-7+EBP],0
   352 00000339 74 10                           	JE	L45
   353 0000033B 8B 43 04                        	MOV	EAX,DWORD [4+EBX]
   354 0000033E 83 C0 08                        	ADD	EAX,8
   355 00000341 89 43 04                        	MOV	DWORD [4+EBX],EAX
   356 00000344 3D 00000250                     	CMP	EAX,592
   357 00000349 74 05                           	JE	L61
   358 0000034B                                 L45:
   359 0000034B 8B 5D FC                        	MOV	EBX,DWORD [-4+EBP]
   360 0000034E C9                              	LEAVE
   361 0000034F C3                              	RET
   362 00000350                                 L61:
   363 00000350 53                              	PUSH	EBX
   364 00000351 E8 00000066                     	CALL	_cons_newline
   365 00000356 58                              	POP	EAX
   366 00000357 EB F2                           	JMP	L45
   367 00000359                                 L62:
   368 00000359 6A 01                           	PUSH	1
   369 0000035B 8D 45 FA                        	LEA	EAX,DWORD [-6+EBP]
   370 0000035E 50                              	PUSH	EAX
   371 0000035F 6A 00                           	PUSH	0
   372 00000361 6A 07                           	PUSH	7
   373 00000363 FF 73 08                        	PUSH	DWORD [8+EBX]
   374 00000366 FF 73 04                        	PUSH	DWORD [4+EBX]
   375 00000369 52                              	PUSH	EDX
   376 0000036A E8 [00000000]                   	CALL	_putfonts8_asc_sht
   377 0000036F 83 C4 1C                        	ADD	ESP,28
   378 00000372 EB C1                           	JMP	L58
   379 00000374                                 L47:
   380 00000374 8B 03                           	MOV	EAX,DWORD [EBX]
   381 00000376 85 C0                           	TEST	EAX,EAX
   382 00000378 75 26                           	JNE	L63
   383 0000037A                                 L50:
   384 0000037A 8B 43 04                        	MOV	EAX,DWORD [4+EBX]
   385 0000037D 83 C0 08                        	ADD	EAX,8
   386 00000380 89 43 04                        	MOV	DWORD [4+EBX],EAX
   387 00000383 3D 00000250                     	CMP	EAX,592
   388 00000388 74 0D                           	JE	L64
   389 0000038A                                 L51:
   390 0000038A 8B 43 04                        	MOV	EAX,DWORD [4+EBX]
   391 0000038D 83 E8 08                        	SUB	EAX,8
   392 00000390 83 E0 1F                        	AND	EAX,31
   393 00000393 75 DF                           	JNE	L47
   394 00000395 EB B4                           	JMP	L45
   395 00000397                                 L64:
   396 00000397 53                              	PUSH	EBX
   397 00000398 E8 0000001F                     	CALL	_cons_newline
   398 0000039D 58                              	POP	EAX
   399 0000039E EB EA                           	JMP	L51
   400 000003A0                                 L63:
   401 000003A0 6A 01                           	PUSH	1
   402 000003A2 68 [00000004]                   	PUSH	LC1
   403 000003A7 6A 00                           	PUSH	0
   404 000003A9 6A 07                           	PUSH	7
   405 000003AB FF 73 08                        	PUSH	DWORD [8+EBX]
   406 000003AE FF 73 04                        	PUSH	DWORD [4+EBX]
   407 000003B1 50                              	PUSH	EAX
   408 000003B2 E8 [00000000]                   	CALL	_putfonts8_asc_sht
   409 000003B7 83 C4 1C                        	ADD	ESP,28
   410 000003BA EB BE                           	JMP	L50
   411 000003BC                                 	GLOBAL	_cons_newline
   412 000003BC                                 _cons_newline:
   413 000003BC 55                              	PUSH	EBP
   414 000003BD 89 E5                           	MOV	EBP,ESP
   415 000003BF 57                              	PUSH	EDI
   416 000003C0 56                              	PUSH	ESI
   417 000003C1 53                              	PUSH	EBX
   418 000003C2 83 EC 10                        	SUB	ESP,16
   419 000003C5 8B 45 08                        	MOV	EAX,DWORD [8+EBP]
   420 000003C8 8B 00                           	MOV	EAX,DWORD [EAX]
   421 000003CA 89 45 F0                        	MOV	DWORD [-16+EBP],EAX
   422 000003CD E8 [00000000]                   	CALL	_task_now
   423 000003D2 8B 55 08                        	MOV	EDX,DWORD [8+EBP]
   424 000003D5 89 45 EC                        	MOV	DWORD [-20+EBP],EAX
   425 000003D8 8B 42 08                        	MOV	EAX,DWORD [8+EDX]
   426 000003DB 3D 0000016B                     	CMP	EAX,363
   427 000003E0 7F 36                           	JG	L66
   428 000003E2 83 C0 10                        	ADD	EAX,16
   429 000003E5 89 42 08                        	MOV	DWORD [8+EDX],EAX
   430 000003E8                                 L67:
   431 000003E8 8B 45 08                        	MOV	EAX,DWORD [8+EBP]
   432 000003EB 8B 55 EC                        	MOV	EDX,DWORD [-20+EBP]
   433 000003EE C7 40 04 00000008               	MOV	DWORD [4+EAX],8
   434 000003F5 80 BA 000000BC 01               	CMP	BYTE [188+EDX],1
   435 000003FC 74 08                           	JE	L98
   436 000003FE                                 L65:
   437 000003FE 8D 65 F4                        	LEA	ESP,DWORD [-12+EBP]
   438 00000401 5B                              	POP	EBX
   439 00000402 5E                              	POP	ESI
   440 00000403 5F                              	POP	EDI
   441 00000404 5D                              	POP	EBP
   442 00000405 C3                              	RET
   443 00000406                                 L98:
   444 00000406 80 BA 000000BD 00               	CMP	BYTE [189+EDX],0
   445 0000040D 74 EF                           	JE	L65
   446 0000040F C7 40 04 00000010               	MOV	DWORD [4+EAX],16
   447 00000416 EB E6                           	JMP	L65
   448 00000418                                 L66:
   449 00000418 83 7D F0 00                     	CMP	DWORD [-16+EBP],0
   450 0000041C 74 CA                           	JE	L67
   451 0000041E BB 0000001C                     	MOV	EBX,28
   452 00000423                                 L78:
   453 00000423 8B 45 F0                        	MOV	EAX,DWORD [-16+EBP]
   454 00000426 8B 55 F0                        	MOV	EDX,DWORD [-16+EBP]
   455 00000429 B9 00000008                     	MOV	ECX,8
   456 0000042E 8B 40 04                        	MOV	EAX,DWORD [4+EAX]
   457 00000431 8B 12                           	MOV	EDX,DWORD [EDX]
   458 00000433 89 45 E8                        	MOV	DWORD [-24+EBP],EAX
   459 00000436 89 55 E4                        	MOV	DWORD [-28+EBP],EDX
   460 00000439                                 L77:
   461 00000439 8B 75 E8                        	MOV	ESI,DWORD [-24+EBP]
   462 0000043C 8D 53 10                        	LEA	EDX,DWORD [16+EBX]
   463 0000043F 0F AF D6                        	IMUL	EDX,ESI
   464 00000442 89 D8                           	MOV	EAX,EBX
   465 00000444 8B 7D E4                        	MOV	EDI,DWORD [-28+EBP]
   466 00000447 0F AF C6                        	IMUL	EAX,ESI
   467 0000044A 8D 14 0A                        	LEA	EDX,DWORD [EDX+ECX*1]
   468 0000044D 8D 04 08                        	LEA	EAX,DWORD [EAX+ECX*1]
   469 00000450 41                              	INC	ECX
   470 00000451 66 8B 14 57                     	MOV	DX,WORD [EDI+EDX*2]
   471 00000455 81 F9 0000024F                  	CMP	ECX,591
   472 0000045B 66 89 14 47                     	MOV	WORD [EDI+EAX*2],DX
   473 0000045F 7E D8                           	JLE	L77
   474 00000461 43                              	INC	EBX
   475 00000462 81 FB 0000016B                  	CMP	EBX,363
   476 00000468 7E B9                           	JLE	L78
   477 0000046A 89 F2                           	MOV	EDX,ESI
   478 0000046C BB 0000016C                     	MOV	EBX,364
   479 00000471 69 D2 0000016C                  	IMUL	EDX,EDX,364
   480 00000477                                 L88:
   481 00000477 B9 00000008                     	MOV	ECX,8
   482 0000047C 8D 44 57 10                     	LEA	EAX,DWORD [16+EDI+EDX*2]
   483 00000480                                 L87:
   484 00000480 66 C7 00 0000                   	MOV	WORD [EAX],0
   485 00000485 41                              	INC	ECX
   486 00000486 83 C0 02                        	ADD	EAX,2
   487 00000489 81 F9 0000024F                  	CMP	ECX,591
   488 0000048F 7E EF                           	JLE	L87
   489 00000491 43                              	INC	EBX
   490 00000492 01 F2                           	ADD	EDX,ESI
   491 00000494 81 FB 00000186                  	CMP	EBX,390
   492 0000049A 7E DB                           	JLE	L88
   493 0000049C 68 00000187                     	PUSH	391
   494 000004A1 68 00000250                     	PUSH	592
   495 000004A6 6A 1C                           	PUSH	28
   496 000004A8 6A 08                           	PUSH	8
   497 000004AA FF 75 F0                        	PUSH	DWORD [-16+EBP]
   498 000004AD E8 [00000000]                   	CALL	_sheet_refresh
   499 000004B2 83 C4 14                        	ADD	ESP,20
   500 000004B5 E9 FFFFFF2E                     	JMP	L67
   501 000004BA                                 	GLOBAL	_cons_putstr0
   502 000004BA                                 _cons_putstr0:
   503 000004BA 55                              	PUSH	EBP
   504 000004BB 89 E5                           	MOV	EBP,ESP
   505 000004BD 56                              	PUSH	ESI
   506 000004BE 53                              	PUSH	EBX
   507 000004BF 8B 5D 0C                        	MOV	EBX,DWORD [12+EBP]
   508 000004C2 8B 75 08                        	MOV	ESI,DWORD [8+EBP]
   509 000004C5 80 3B 00                        	CMP	BYTE [EBX],0
   510 000004C8 75 07                           	JNE	L104
   511 000004CA                                 L106:
   512 000004CA 8D 65 F8                        	LEA	ESP,DWORD [-8+EBP]
   513 000004CD 5B                              	POP	EBX
   514 000004CE 5E                              	POP	ESI
   515 000004CF 5D                              	POP	EBP
   516 000004D0 C3                              	RET
   517 000004D1                                 L104:
   518 000004D1 6A 01                           	PUSH	1
   519 000004D3 0F BE 03                        	MOVSX	EAX,BYTE [EBX]
   520 000004D6 50                              	PUSH	EAX
   521 000004D7 43                              	INC	EBX
   522 000004D8 56                              	PUSH	ESI
   523 000004D9 E8 FFFFFE2D                     	CALL	_cons_putchar
   524 000004DE 83 C4 0C                        	ADD	ESP,12
   525 000004E1 80 3B 00                        	CMP	BYTE [EBX],0
   526 000004E4 75 EB                           	JNE	L104
   527 000004E6 EB E2                           	JMP	L106
   528 000004E8                                 	GLOBAL	_cons_putstr1
   529 000004E8                                 _cons_putstr1:
   530 000004E8 55                              	PUSH	EBP
   531 000004E9 89 E5                           	MOV	EBP,ESP
   532 000004EB 57                              	PUSH	EDI
   533 000004EC 56                              	PUSH	ESI
   534 000004ED 53                              	PUSH	EBX
   535 000004EE 8B 75 10                        	MOV	ESI,DWORD [16+EBP]
   536 000004F1 31 DB                           	XOR	EBX,EBX
   537 000004F3 8B 7D 0C                        	MOV	EDI,DWORD [12+EBP]
   538 000004F6 39 F3                           	CMP	EBX,ESI
   539 000004F8 7C 08                           	JL	L112
   540 000004FA                                 L114:
   541 000004FA 8D 65 F4                        	LEA	ESP,DWORD [-12+EBP]
   542 000004FD 5B                              	POP	EBX
   543 000004FE 5E                              	POP	ESI
   544 000004FF 5F                              	POP	EDI
   545 00000500 5D                              	POP	EBP
   546 00000501 C3                              	RET
   547 00000502                                 L112:
   548 00000502 6A 01                           	PUSH	1
   549 00000504 0F BE 04 3B                     	MOVSX	EAX,BYTE [EBX+EDI*1]
   550 00000508 50                              	PUSH	EAX
   551 00000509 43                              	INC	EBX
   552 0000050A FF 75 08                        	PUSH	DWORD [8+EBP]
   553 0000050D E8 FFFFFDF9                     	CALL	_cons_putchar
   554 00000512 83 C4 0C                        	ADD	ESP,12
   555 00000515 39 F3                           	CMP	EBX,ESI
   556 00000517 7C E9                           	JL	L112
   557 00000519 EB DF                           	JMP	L114
   558                                          [SECTION .data]
   559 00000006                                 LC2:
   560 00000006 6D 65 6D 00                     	DB	"mem",0x00
   561 0000000A                                 LC3:
   562 0000000A 63 6C 73 00                     	DB	"cls",0x00
   563 0000000E                                 LC4:
   564 0000000E 64 69 72 00                     	DB	"dir",0x00
   565 00000012                                 LC5:
   566 00000012 65 78 69 74 00                  	DB	"exit",0x00
   567 00000017                                 LC6:
   568 00000017 73 74 61 72 74 20 00            	DB	"start ",0x00
   569 0000001E                                 LC7:
   570 0000001E 6E 63 73 74 20 00               	DB	"ncst ",0x00
   571 00000024                                 LC8:
   572 00000024 6C 61 6E 67 6D 6F 64 65 20 00   	DB	"langmode ",0x00
   573 0000002E                                 LC9:
   574 0000002E 76 65 72 00                     	DB	"ver",0x00
   575 00000032                                 LC10:
   576 00000032 74 69 6D 65 00                  	DB	"time",0x00
   577 00000037                                 LC11:
   578 00000037 64 61 74 65 00                  	DB	"date",0x00
   579 0000003C                                 LC12:
   580 0000003C 74 61 73 6B 6C 73 74 00         	DB	"tasklst",0x00
   581 00000044                                 LC13:
   582 00000044 74 69 6D 65 72 6C 73 74 00      	DB	"timerlst",0x00
   583 0000004D                                 LC14:
   584 0000004D 73 68 65 65 74 6C 73 74 00      	DB	"sheetlst",0x00
   585 00000056                                 LC15:
   586 00000056 74 69 74 6C 65 00               	DB	"title",0x00
   587 0000005C                                 LC16:
   588 0000005C 74 65 73 74 00                  	DB	"test",0x00
   589 00000061                                 LC17:
   590 00000061 72 65 61 64 00                  	DB	"read",0x00
   591 00000066                                 LC18:
   592 00000066 73 6F 6E 64 00                  	DB	"sond",0x00
   593 0000006B                                 LC19:
   594 0000006B 63 64 00                        	DB	"cd",0x00
   595 0000006E                                 LC20:
   596 0000006E 63 68 64 69 72 00               	DB	"chdir",0x00
   597 00000074                                 LC21:
   598 00000074 6D 64 00                        	DB	"md",0x00
   599 00000077                                 LC22:
   600 00000077 6D 6B 64 69 72 00               	DB	"mkdir",0x00
   601 0000007D                                 LC23:
   602 0000007D 72 64 00                        	DB	"rd",0x00
   603 00000080                                 LC24:
   604 00000080 72 6D 64 69 72 00               	DB	"rmdir",0x00
   605 00000086                                 LC25:
   606 00000086 64 65 6C 20 00                  	DB	"del ",0x00
   607 0000008B                                 LC26:
   608 0000008B 70 77 64 00                     	DB	"pwd",0x00
   609 0000008F                                 LC27:
   610 0000008F 42 61 64 20 63 6F 6D 6D 61 6E   	DB	"Bad command.",0x0A,0x0A,0x00
       00000099 64 2E 0A 0A 00 
   611                                          [SECTION .text]
   612 0000051B                                 	GLOBAL	_cons_runcmd
   613 0000051B                                 _cons_runcmd:
   614 0000051B 55                              	PUSH	EBP
   615 0000051C 89 E5                           	MOV	EBP,ESP
   616 0000051E 57                              	PUSH	EDI
   617 0000051F 56                              	PUSH	ESI
   618 00000520 BF [00000006]                   	MOV	EDI,LC2
   619 00000525 53                              	PUSH	EBX
   620 00000526 83 EC 10                        	SUB	ESP,16
   621 00000529 8B 45 08                        	MOV	EAX,DWORD [8+EBP]
   622 0000052C 8B 4D 14                        	MOV	ECX,DWORD [20+EBP]
   623 0000052F 89 45 E4                        	MOV	DWORD [-28+EBP],EAX
   624 00000532 89 C6                           	MOV	ESI,EAX
   625 00000534 8B 55 10                        	MOV	EDX,DWORD [16+EBP]
   626 00000537 B8 00000004                     	MOV	EAX,4
   627 0000053C FC                              	CLD
   628 0000053D 89 4D EC                        	MOV	DWORD [-20+EBP],ECX
   629 00000540 89 55 F0                        	MOV	DWORD [-16+EBP],EDX
   630 00000543 89 C1                           	MOV	ECX,EAX
   631 00000545 8B 5D 0C                        	MOV	EBX,DWORD [12+EBP]
   632 00000548 F3                              	REPE
   633 00000549 A6                              	CMPSB
   634 0000054A 75 09                           	JNE	L116
   635 0000054C 83 3B 00                        	CMP	DWORD [EBX],0
   636 0000054F 0F 85 000004A6                  	JNE	L170
   637 00000555                                 L116:
   638 00000555 B8 00000004                     	MOV	EAX,4
   639 0000055A 8B 75 E4                        	MOV	ESI,DWORD [-28+EBP]
   640 0000055D FC                              	CLD
   641 0000055E BF [0000000A]                   	MOV	EDI,LC3
   642 00000563 89 C1                           	MOV	ECX,EAX
   643 00000565 F3                              	REPE
   644 00000566 A6                              	CMPSB
   645 00000567 75 09                           	JNE	L118
   646 00000569 83 3B 00                        	CMP	DWORD [EBX],0
   647 0000056C 0F 85 0000047D                  	JNE	L171
   648 00000572                                 L118:
   649 00000572 B8 00000004                     	MOV	EAX,4
   650 00000577 8B 75 E4                        	MOV	ESI,DWORD [-28+EBP]
   651 0000057A FC                              	CLD
   652 0000057B BF [0000000E]                   	MOV	EDI,LC4
   653 00000580 89 C1                           	MOV	ECX,EAX
   654 00000582 F3                              	REPE
   655 00000583 A6                              	CMPSB
   656 00000584 75 09                           	JNE	L120
   657 00000586 83 3B 00                        	CMP	DWORD [EBX],0
   658 00000589 0F 85 00000451                  	JNE	L172
   659 0000058F                                 L120:
   660 0000058F B8 00000005                     	MOV	EAX,5
   661 00000594 8B 75 E4                        	MOV	ESI,DWORD [-28+EBP]
   662 00000597 FC                              	CLD
   663 00000598 BF [00000012]                   	MOV	EDI,LC5
   664 0000059D 89 C1                           	MOV	ECX,EAX
   665 0000059F F3                              	REPE
   666 000005A0 A6                              	CMPSB
   667 000005A1 0F 84 00000424                  	JE	L173
   668 000005A7 B8 00000006                     	MOV	EAX,6
   669 000005AC 8B 75 E4                        	MOV	ESI,DWORD [-28+EBP]
   670 000005AF FC                              	CLD
   671 000005B0 BF [00000017]                   	MOV	EDI,LC6
   672 000005B5 89 C1                           	MOV	ECX,EAX
   673 000005B7 F3                              	REPE
   674 000005B8 A6                              	CMPSB
   675 000005B9 0F 84 000003F1                  	JE	L174
   676 000005BF B8 00000005                     	MOV	EAX,5
   677 000005C4 8B 75 E4                        	MOV	ESI,DWORD [-28+EBP]
   678 000005C7 FC                              	CLD
   679 000005C8 BF [0000001E]                   	MOV	EDI,LC7
   680 000005CD 89 C1                           	MOV	ECX,EAX
   681 000005CF F3                              	REPE
   682 000005D0 A6                              	CMPSB
   683 000005D1 0F 84 000003BE                  	JE	L175
   684 000005D7 B8 00000009                     	MOV	EAX,9
   685 000005DC 8B 75 E4                        	MOV	ESI,DWORD [-28+EBP]
   686 000005DF FC                              	CLD
   687 000005E0 BF [00000024]                   	MOV	EDI,LC8
   688 000005E5 89 C1                           	MOV	ECX,EAX
   689 000005E7 F3                              	REPE
   690 000005E8 A6                              	CMPSB
   691 000005E9 0F 84 00000391                  	JE	L176
   692 000005EF 8B 55 E4                        	MOV	EDX,DWORD [-28+EBP]
   693 000005F2 8A 12                           	MOV	DL,BYTE [EDX]
   694 000005F4 88 55 EB                        	MOV	BYTE [-21+EBP],DL
   695 000005F7 80 FA 3F                        	CMP	DL,63
   696 000005FA 0F 84 0000036B                  	JE	L177
   697 00000600 B8 00000003                     	MOV	EAX,3
   698 00000605 8B 75 E4                        	MOV	ESI,DWORD [-28+EBP]
   699 00000608 FC                              	CLD
   700 00000609 BF [0000002E]                   	MOV	EDI,LC9
   701 0000060E 89 C1                           	MOV	ECX,EAX
   702 00000610 F3                              	REPE
   703 00000611 A6                              	CMPSB
   704 00000612 0F 84 0000033E                  	JE	L178
   705 00000618 B8 00000004                     	MOV	EAX,4
   706 0000061D 8B 75 E4                        	MOV	ESI,DWORD [-28+EBP]
   707 00000620 FC                              	CLD
   708 00000621 BF [00000032]                   	MOV	EDI,LC10
   709 00000626 89 C1                           	MOV	ECX,EAX
   710 00000628 F3                              	REPE
   711 00000629 A6                              	CMPSB
   712 0000062A 75 16                           	JNE	L136
   713 0000062C 8B 55 E4                        	MOV	EDX,DWORD [-28+EBP]
   714 0000062F 8A 42 04                        	MOV	AL,BYTE [4+EDX]
   715 00000632 84 C0                           	TEST	AL,AL
   716 00000634 0F 84 00000307                  	JE	L135
   717 0000063A 3C 20                           	CMP	AL,32
   718 0000063C 0F 84 000002FF                  	JE	L135
   719 00000642                                 L136:
   720 00000642 B8 00000004                     	MOV	EAX,4
   721 00000647 8B 75 E4                        	MOV	ESI,DWORD [-28+EBP]
   722 0000064A FC                              	CLD
   723 0000064B BF [00000037]                   	MOV	EDI,LC11
   724 00000650 89 C1                           	MOV	ECX,EAX
   725 00000652 F3                              	REPE
   726 00000653 A6                              	CMPSB
   727 00000654 0F 84 000002E7                  	JE	L135
   728 0000065A B8 00000007                     	MOV	EAX,7
   729 0000065F 8B 75 E4                        	MOV	ESI,DWORD [-28+EBP]
   730 00000662 FC                              	CLD
   731 00000663 BF [0000003C]                   	MOV	EDI,LC12
   732 00000668 89 C1                           	MOV	ECX,EAX
   733 0000066A F3                              	REPE
   734 0000066B A6                              	CMPSB
   735 0000066C 0F 84 000002BA                  	JE	L179
   736 00000672 B8 00000008                     	MOV	EAX,8
   737 00000677 8B 75 E4                        	MOV	ESI,DWORD [-28+EBP]
   738 0000067A FC                              	CLD
   739 0000067B BF [00000044]                   	MOV	EDI,LC13
   740 00000680 89 C1                           	MOV	ECX,EAX
   741 00000682 F3                              	REPE
   742 00000683 A6                              	CMPSB
   743 00000684 0F 84 0000028D                  	JE	L180
   744 0000068A B8 00000008                     	MOV	EAX,8
   745 0000068F 8B 75 E4                        	MOV	ESI,DWORD [-28+EBP]
   746 00000692 FC                              	CLD
   747 00000693 BF [0000004D]                   	MOV	EDI,LC14
   748 00000698 89 C1                           	MOV	ECX,EAX
   749 0000069A F3                              	REPE
   750 0000069B A6                              	CMPSB
   751 0000069C 0F 84 00000260                  	JE	L181
   752 000006A2 B8 00000005                     	MOV	EAX,5
   753 000006A7 8B 75 E4                        	MOV	ESI,DWORD [-28+EBP]
   754 000006AA FC                              	CLD
   755 000006AB BF [00000056]                   	MOV	EDI,LC15
   756 000006B0 89 C1                           	MOV	ECX,EAX
   757 000006B2 F3                              	REPE
   758 000006B3 A6                              	CMPSB
   759 000006B4 75 1E                           	JNE	L144
   760 000006B6 8B 55 E4                        	MOV	EDX,DWORD [-28+EBP]
   761 000006B9 8A 42 05                        	MOV	AL,BYTE [5+EDX]
   762 000006BC 84 C0                           	TEST	AL,AL
   763 000006BE 0F 84 00000229                  	JE	L145
   764 000006C4 3C 20                           	CMP	AL,32
   765 000006C6 0F 84 00000221                  	JE	L145
   766 000006CC 3C 2F                           	CMP	AL,47
   767 000006CE 0F 84 00000219                  	JE	L145
   768 000006D4                                 L144:
   769 000006D4 B8 00000004                     	MOV	EAX,4
   770 000006D9 8B 75 E4                        	MOV	ESI,DWORD [-28+EBP]
   771 000006DC FC                              	CLD
   772 000006DD BF [0000005C]                   	MOV	EDI,LC16
   773 000006E2 89 C1                           	MOV	ECX,EAX
   774 000006E4 F3                              	REPE
   775 000006E5 A6                              	CMPSB
   776 000006E6 0F 84 000001EF                  	JE	L182
   777 000006EC B8 00000004                     	MOV	EAX,4
   778 000006F1 8B 75 E4                        	MOV	ESI,DWORD [-28+EBP]
   779 000006F4 FC                              	CLD
   780 000006F5 BF [00000061]                   	MOV	EDI,LC17
   781 000006FA 89 C1                           	MOV	ECX,EAX
   782 000006FC F3                              	REPE
   783 000006FD A6                              	CMPSB
   784 000006FE 75 1E                           	JNE	L149
   785 00000700 8B 55 E4                        	MOV	EDX,DWORD [-28+EBP]
   786 00000703 8A 42 04                        	MOV	AL,BYTE [4+EDX]
   787 00000706 84 C0                           	TEST	AL,AL
   788 00000708 0F 84 000001B8                  	JE	L150
   789 0000070E 3C 20                           	CMP	AL,32
   790 00000710 0F 84 000001B0                  	JE	L150
   791 00000716 3C 2F                           	CMP	AL,47
   792 00000718 0F 84 000001A8                  	JE	L150
   793 0000071E                                 L149:
   794 0000071E B8 00000004                     	MOV	EAX,4
   795 00000723 8B 75 E4                        	MOV	ESI,DWORD [-28+EBP]
   796 00000726 FC                              	CLD
   797 00000727 BF [00000066]                   	MOV	EDI,LC18
   798 0000072C 89 C1                           	MOV	ECX,EAX
   799 0000072E F3                              	REPE
   800 0000072F A6                              	CMPSB
   801 00000730 75 1E                           	JNE	L152
   802 00000732 8B 55 E4                        	MOV	EDX,DWORD [-28+EBP]
   803 00000735 8A 42 04                        	MOV	AL,BYTE [4+EDX]
   804 00000738 84 C0                           	TEST	AL,AL
   805 0000073A 0F 84 00000171                  	JE	L153
   806 00000740 3C 20                           	CMP	AL,32
   807 00000742 0F 84 00000169                  	JE	L153
   808 00000748 3C 2F                           	CMP	AL,47
   809 0000074A 0F 84 00000161                  	JE	L153
   810 00000750                                 L152:
   811 00000750 B8 00000002                     	MOV	EAX,2
   812 00000755 8B 75 E4                        	MOV	ESI,DWORD [-28+EBP]
   813 00000758 FC                              	CLD
   814 00000759 BF [0000006B]                   	MOV	EDI,LC19
   815 0000075E 89 C1                           	MOV	ECX,EAX
   816 00000760 F3                              	REPE
   817 00000761 A6                              	CMPSB
   818 00000762 0F 84 0000012E                  	JE	L156
   819 00000768 B8 00000005                     	MOV	EAX,5
   820 0000076D 8B 75 E4                        	MOV	ESI,DWORD [-28+EBP]
   821 00000770 BF [0000006E]                   	MOV	EDI,LC20
   822 00000775 89 C1                           	MOV	ECX,EAX
   823 00000777 F3                              	REPE
   824 00000778 A6                              	CMPSB
   825 00000779 0F 84 00000117                  	JE	L156
   826 0000077F B8 00000002                     	MOV	EAX,2
   827 00000784 8B 75 E4                        	MOV	ESI,DWORD [-28+EBP]
   828 00000787 FC                              	CLD
   829 00000788 BF [00000074]                   	MOV	EDI,LC21
   830 0000078D 89 C1                           	MOV	ECX,EAX
   831 0000078F F3                              	REPE
   832 00000790 A6                              	CMPSB
   833 00000791 0F 84 000000E4                  	JE	L159
   834 00000797 B8 00000005                     	MOV	EAX,5
   835 0000079C 8B 75 E4                        	MOV	ESI,DWORD [-28+EBP]
   836 0000079F BF [00000077]                   	MOV	EDI,LC22
   837 000007A4 89 C1                           	MOV	ECX,EAX
   838 000007A6 F3                              	REPE
   839 000007A7 A6                              	CMPSB
   840 000007A8 0F 84 000000CD                  	JE	L159
   841 000007AE B8 00000002                     	MOV	EAX,2
   842 000007B3 8B 75 E4                        	MOV	ESI,DWORD [-28+EBP]
   843 000007B6 FC                              	CLD
   844 000007B7 BF [0000007D]                   	MOV	EDI,LC23
   845 000007BC 89 C1                           	MOV	ECX,EAX
   846 000007BE F3                              	REPE
   847 000007BF A6                              	CMPSB
   848 000007C0 0F 84 0000009A                  	JE	L162
   849 000007C6 B8 00000005                     	MOV	EAX,5
   850 000007CB 8B 75 E4                        	MOV	ESI,DWORD [-28+EBP]
   851 000007CE BF [00000080]                   	MOV	EDI,LC24
   852 000007D3 89 C1                           	MOV	ECX,EAX
   853 000007D5 F3                              	REPE
   854 000007D6 A6                              	CMPSB
   855 000007D7 0F 84 00000083                  	JE	L162
   856 000007DD B8 00000004                     	MOV	EAX,4
   857 000007E2 8B 75 E4                        	MOV	ESI,DWORD [-28+EBP]
   858 000007E5 FC                              	CLD
   859 000007E6 BF [00000086]                   	MOV	EDI,LC25
   860 000007EB 89 C1                           	MOV	ECX,EAX
   861 000007ED F3                              	REPE
   862 000007EE A6                              	CMPSB
   863 000007EF 74 5A                           	JE	L183
   864 000007F1 B8 00000003                     	MOV	EAX,3
   865 000007F6 8B 75 E4                        	MOV	ESI,DWORD [-28+EBP]
   866 000007F9 FC                              	CLD
   867 000007FA BF [0000008B]                   	MOV	EDI,LC26
   868 000007FF 89 C1                           	MOV	ECX,EAX
   869 00000801 F3                              	REPE
   870 00000802 A6                              	CMPSB
   871 00000803 74 37                           	JE	L184
   872 00000805 80 7D EB 00                     	CMP	BYTE [-21+EBP],0
   873 00000809 75 08                           	JNE	L185
   874 0000080B                                 L115:
   875 0000080B 8D 65 F4                        	LEA	ESP,DWORD [-12+EBP]
   876 0000080E 5B                              	POP	EBX
   877 0000080F 5E                              	POP	ESI
   878 00000810 5F                              	POP	EDI
   879 00000811 5D                              	POP	EBP
   880 00000812 C3                              	RET
   881 00000813                                 L185:
   882 00000813 FF 75 E4                        	PUSH	DWORD [-28+EBP]
   883 00000816 FF 75 F0                        	PUSH	DWORD [-16+EBP]
   884 00000819 53                              	PUSH	EBX
   885 0000081A E8 0000116D                     	CALL	_cmd_app
   886 0000081F 83 C4 0C                        	ADD	ESP,12
   887 00000822 85 C0                           	TEST	EAX,EAX
   888 00000824 75 E5                           	JNE	L115
   889 00000826 C7 45 0C [0000008F]             	MOV	DWORD [12+EBP],LC27
   890 0000082D 89 5D 08                        	MOV	DWORD [8+EBP],EBX
   891 00000830 8D 65 F4                        	LEA	ESP,DWORD [-12+EBP]
   892 00000833 5B                              	POP	EBX
   893 00000834 5E                              	POP	ESI
   894 00000835 5F                              	POP	EDI
   895 00000836 5D                              	POP	EBP
   896 00000837 E9 FFFFFC7E                     	JMP	_cons_putstr0
   897 0000083C                                 L184:
   898 0000083C 89 5D 08                        	MOV	DWORD [8+EBP],EBX
   899 0000083F 8D 65 F4                        	LEA	ESP,DWORD [-12+EBP]
   900 00000842 5B                              	POP	EBX
   901 00000843 5E                              	POP	ESI
   902 00000844 5F                              	POP	EDI
   903 00000845 5D                              	POP	EBP
   904 00000846 E9 000010C8                     	JMP	_cmd_pwd
   905 0000084B                                 L183:
   906 0000084B 8B 45 E4                        	MOV	EAX,DWORD [-28+EBP]
   907 0000084E 89 5D 08                        	MOV	DWORD [8+EBP],EBX
   908 00000851 89 45 0C                        	MOV	DWORD [12+EBP],EAX
   909 00000854 8D 65 F4                        	LEA	ESP,DWORD [-12+EBP]
   910 00000857 5B                              	POP	EBX
   911 00000858 5E                              	POP	ESI
   912 00000859 5F                              	POP	EDI
   913 0000085A 5D                              	POP	EBP
   914 0000085B E9 000010AE                     	JMP	_cmd_del
   915 00000860                                 L162:
   916 00000860 8B 45 F0                        	MOV	EAX,DWORD [-16+EBP]
   917 00000863 8B 55 E4                        	MOV	EDX,DWORD [-28+EBP]
   918 00000866 89 45 10                        	MOV	DWORD [16+EBP],EAX
   919 00000869 89 55 0C                        	MOV	DWORD [12+EBP],EDX
   920 0000086C 89 5D 08                        	MOV	DWORD [8+EBP],EBX
   921 0000086F 8D 65 F4                        	LEA	ESP,DWORD [-12+EBP]
   922 00000872 5B                              	POP	EBX
   923 00000873 5E                              	POP	ESI
   924 00000874 5F                              	POP	EDI
   925 00000875 5D                              	POP	EBP
   926 00000876 E9 0000108E                     	JMP	_cmd_rd
   927 0000087B                                 L159:
   928 0000087B 8B 45 F0                        	MOV	EAX,DWORD [-16+EBP]
   929 0000087E 8B 55 E4                        	MOV	EDX,DWORD [-28+EBP]
   930 00000881 89 45 10                        	MOV	DWORD [16+EBP],EAX
   931 00000884 89 55 0C                        	MOV	DWORD [12+EBP],EDX
   932 00000887 89 5D 08                        	MOV	DWORD [8+EBP],EBX
   933 0000088A 8D 65 F4                        	LEA	ESP,DWORD [-12+EBP]
   934 0000088D 5B                              	POP	EBX
   935 0000088E 5E                              	POP	ESI
   936 0000088F 5F                              	POP	EDI
   937 00000890 5D                              	POP	EBP
   938 00000891 E9 0000106E                     	JMP	_cmd_md
   939 00000896                                 L156:
   940 00000896 8B 45 F0                        	MOV	EAX,DWORD [-16+EBP]
   941 00000899 8B 55 E4                        	MOV	EDX,DWORD [-28+EBP]
   942 0000089C 89 45 10                        	MOV	DWORD [16+EBP],EAX
   943 0000089F 89 55 0C                        	MOV	DWORD [12+EBP],EDX
   944 000008A2 89 5D 08                        	MOV	DWORD [8+EBP],EBX
   945 000008A5 8D 65 F4                        	LEA	ESP,DWORD [-12+EBP]
   946 000008A8 5B                              	POP	EBX
   947 000008A9 5E                              	POP	ESI
   948 000008AA 5F                              	POP	EDI
   949 000008AB 5D                              	POP	EBP
   950 000008AC E9 00000F52                     	JMP	_cmd_cd
   951 000008B1                                 L153:
   952 000008B1 8B 4D E4                        	MOV	ECX,DWORD [-28+EBP]
   953 000008B4 89 5D 08                        	MOV	DWORD [8+EBP],EBX
   954 000008B7 89 4D 0C                        	MOV	DWORD [12+EBP],ECX
   955 000008BA 8D 65 F4                        	LEA	ESP,DWORD [-12+EBP]
   956 000008BD 5B                              	POP	EBX
   957 000008BE 5E                              	POP	ESI
   958 000008BF 5F                              	POP	EDI
   959 000008C0 5D                              	POP	EBP
   960 000008C1 E9 00000775                     	JMP	_cmd_sond
   961 000008C6                                 L150:
   962 000008C6 8B 4D E4                        	MOV	ECX,DWORD [-28+EBP]
   963 000008C9 89 5D 08                        	MOV	DWORD [8+EBP],EBX
   964 000008CC 89 4D 0C                        	MOV	DWORD [12+EBP],ECX
   965 000008CF 8D 65 F4                        	LEA	ESP,DWORD [-12+EBP]
   966 000008D2 5B                              	POP	EBX
   967 000008D3 5E                              	POP	ESI
   968 000008D4 5F                              	POP	EDI
   969 000008D5 5D                              	POP	EBP
   970 000008D6 E9 00000750                     	JMP	_cmd_read
   971 000008DB                                 L182:
   972 000008DB 8B 45 EC                        	MOV	EAX,DWORD [-20+EBP]
   973 000008DE 89 45 08                        	MOV	DWORD [8+EBP],EAX
   974 000008E1 8D 65 F4                        	LEA	ESP,DWORD [-12+EBP]
   975 000008E4 5B                              	POP	EBX
   976 000008E5 5E                              	POP	ESI
   977 000008E6 5F                              	POP	EDI
   978 000008E7 5D                              	POP	EBP
   979 000008E8 E9 [00000000]                   	JMP	_open_taskmgr
   980 000008ED                                 L145:
   981 000008ED 8B 4D E4                        	MOV	ECX,DWORD [-28+EBP]
   982 000008F0 89 5D 08                        	MOV	DWORD [8+EBP],EBX
   983 000008F3 89 4D 0C                        	MOV	DWORD [12+EBP],ECX
   984 000008F6 8D 65 F4                        	LEA	ESP,DWORD [-12+EBP]
   985 000008F9 5B                              	POP	EBX
   986 000008FA 5E                              	POP	ESI
   987 000008FB 5F                              	POP	EDI
   988 000008FC 5D                              	POP	EBP
   989 000008FD E9 000006A9                     	JMP	_cmd_title
   990 00000902                                 L181:
   991 00000902 8B 45 E4                        	MOV	EAX,DWORD [-28+EBP]
   992 00000905 89 5D 08                        	MOV	DWORD [8+EBP],EBX
   993 00000908 89 45 0C                        	MOV	DWORD [12+EBP],EAX
   994 0000090B 8D 65 F4                        	LEA	ESP,DWORD [-12+EBP]
   995 0000090E 5B                              	POP	EBX
   996 0000090F 5E                              	POP	ESI
   997 00000910 5F                              	POP	EDI
   998 00000911 5D                              	POP	EBP
   999 00000912 E9 00000D2A                     	JMP	_cmd_sheetlst
  1000 00000917                                 L180:
  1001 00000917 8B 45 E4                        	MOV	EAX,DWORD [-28+EBP]
  1002 0000091A 89 5D 08                        	MOV	DWORD [8+EBP],EBX
  1003 0000091D 89 45 0C                        	MOV	DWORD [12+EBP],EAX
  1004 00000920 8D 65 F4                        	LEA	ESP,DWORD [-12+EBP]
  1005 00000923 5B                              	POP	EBX
  1006 00000924 5E                              	POP	ESI
  1007 00000925 5F                              	POP	EDI
  1008 00000926 5D                              	POP	EBP
  1009 00000927 E9 00000B34                     	JMP	_cmd_timerlst
  1010 0000092C                                 L179:
  1011 0000092C 8B 45 E4                        	MOV	EAX,DWORD [-28+EBP]
  1012 0000092F 89 5D 08                        	MOV	DWORD [8+EBP],EBX
  1013 00000932 89 45 0C                        	MOV	DWORD [12+EBP],EAX
  1014 00000935 8D 65 F4                        	LEA	ESP,DWORD [-12+EBP]
  1015 00000938 5B                              	POP	EBX
  1016 00000939 5E                              	POP	ESI
  1017 0000093A 5F                              	POP	EDI
  1018 0000093B 5D                              	POP	EBP
  1019 0000093C E9 0000092F                     	JMP	_cmd_tasklst
  1020 00000941                                 L135:
  1021 00000941 8B 45 E4                        	MOV	EAX,DWORD [-28+EBP]
  1022 00000944 89 5D 08                        	MOV	DWORD [8+EBP],EBX
  1023 00000947 89 45 0C                        	MOV	DWORD [12+EBP],EAX
  1024 0000094A 8D 65 F4                        	LEA	ESP,DWORD [-12+EBP]
  1025 0000094D 5B                              	POP	EBX
  1026 0000094E 5E                              	POP	ESI
  1027 0000094F 5F                              	POP	EDI
  1028 00000950 5D                              	POP	EBP
  1029 00000951 E9 00000600                     	JMP	_cmd_time
  1030 00000956                                 L178:
  1031 00000956 8B 45 E4                        	MOV	EAX,DWORD [-28+EBP]
  1032 00000959 89 5D 08                        	MOV	DWORD [8+EBP],EBX
  1033 0000095C 89 45 0C                        	MOV	DWORD [12+EBP],EAX
  1034 0000095F 8D 65 F4                        	LEA	ESP,DWORD [-12+EBP]
  1035 00000962 5B                              	POP	EBX
  1036 00000963 5E                              	POP	ESI
  1037 00000964 5F                              	POP	EDI
  1038 00000965 5D                              	POP	EBP
  1039 00000966 E9 000005BE                     	JMP	_cmd_ver
  1040 0000096B                                 L177:
  1041 0000096B 8B 4D E4                        	MOV	ECX,DWORD [-28+EBP]
  1042 0000096E 89 5D 08                        	MOV	DWORD [8+EBP],EBX
  1043 00000971 89 4D 0C                        	MOV	DWORD [12+EBP],ECX
  1044 00000974 8D 65 F4                        	LEA	ESP,DWORD [-12+EBP]
  1045 00000977 5B                              	POP	EBX
  1046 00000978 5E                              	POP	ESI
  1047 00000979 5F                              	POP	EDI
  1048 0000097A 5D                              	POP	EBP
  1049 0000097B E9 000004CB                     	JMP	_cmd_help
  1050 00000980                                 L176:
  1051 00000980 8B 45 E4                        	MOV	EAX,DWORD [-28+EBP]
  1052 00000983 89 5D 08                        	MOV	DWORD [8+EBP],EBX
  1053 00000986 89 45 0C                        	MOV	DWORD [12+EBP],EAX
  1054 00000989 8D 65 F4                        	LEA	ESP,DWORD [-12+EBP]
  1055 0000098C 5B                              	POP	EBX
  1056 0000098D 5E                              	POP	ESI
  1057 0000098E 5F                              	POP	EDI
  1058 0000098F 5D                              	POP	EBP
  1059 00000990 E9 00000478                     	JMP	_cmd_langmode
  1060 00000995                                 L175:
  1061 00000995 8B 45 EC                        	MOV	EAX,DWORD [-20+EBP]
  1062 00000998 8B 55 E4                        	MOV	EDX,DWORD [-28+EBP]
  1063 0000099B 89 45 10                        	MOV	DWORD [16+EBP],EAX
  1064 0000099E 89 55 0C                        	MOV	DWORD [12+EBP],EDX
  1065 000009A1 89 5D 08                        	MOV	DWORD [8+EBP],EBX
  1066 000009A4 8D 65 F4                        	LEA	ESP,DWORD [-12+EBP]
  1067 000009A7 5B                              	POP	EBX
  1068 000009A8 5E                              	POP	ESI
  1069 000009A9 5F                              	POP	EDI
  1070 000009AA 5D                              	POP	EBP
  1071 000009AB E9 000003F9                     	JMP	_cmd_ncst
  1072 000009B0                                 L174:
  1073 000009B0 8B 45 EC                        	MOV	EAX,DWORD [-20+EBP]
  1074 000009B3 8B 55 E4                        	MOV	EDX,DWORD [-28+EBP]
  1075 000009B6 89 45 10                        	MOV	DWORD [16+EBP],EAX
  1076 000009B9 89 55 0C                        	MOV	DWORD [12+EBP],EDX
  1077 000009BC 89 5D 08                        	MOV	DWORD [8+EBP],EBX
  1078 000009BF 8D 65 F4                        	LEA	ESP,DWORD [-12+EBP]
  1079 000009C2 5B                              	POP	EBX
  1080 000009C3 5E                              	POP	ESI
  1081 000009C4 5F                              	POP	EDI
  1082 000009C5 5D                              	POP	EBP
  1083 000009C6 E9 00000354                     	JMP	_cmd_start
  1084 000009CB                                 L173:
  1085 000009CB 8B 45 F0                        	MOV	EAX,DWORD [-16+EBP]
  1086 000009CE 89 5D 08                        	MOV	DWORD [8+EBP],EBX
  1087 000009D1 89 45 0C                        	MOV	DWORD [12+EBP],EAX
  1088 000009D4 8D 65 F4                        	LEA	ESP,DWORD [-12+EBP]
  1089 000009D7 5B                              	POP	EBX
  1090 000009D8 5E                              	POP	ESI
  1091 000009D9 5F                              	POP	EDI
  1092 000009DA 5D                              	POP	EBP
  1093 000009DB E9 000002BD                     	JMP	_cmd_exit
  1094 000009E0                                 L172:
  1095 000009E0 89 5D 08                        	MOV	DWORD [8+EBP],EBX
  1096 000009E3 8D 65 F4                        	LEA	ESP,DWORD [-12+EBP]
  1097 000009E6 5B                              	POP	EBX
  1098 000009E7 5E                              	POP	ESI
  1099 000009E8 5F                              	POP	EDI
  1100 000009E9 5D                              	POP	EBP
  1101 000009EA E9 000000BF                     	JMP	_cmd_dir
  1102 000009EF                                 L171:
  1103 000009EF 89 5D 08                        	MOV	DWORD [8+EBP],EBX
  1104 000009F2 8D 65 F4                        	LEA	ESP,DWORD [-12+EBP]
  1105 000009F5 5B                              	POP	EBX
  1106 000009F6 5E                              	POP	ESI
  1107 000009F7 5F                              	POP	EDI
  1108 000009F8 5D                              	POP	EBP
  1109 000009F9 EB 53                           	JMP	_cmd_cls
  1110 000009FB                                 L170:
  1111 000009FB 8B 45 EC                        	MOV	EAX,DWORD [-20+EBP]
  1112 000009FE 89 5D 08                        	MOV	DWORD [8+EBP],EBX
  1113 00000A01 89 45 0C                        	MOV	DWORD [12+EBP],EAX
  1114 00000A04 8D 65 F4                        	LEA	ESP,DWORD [-12+EBP]
  1115 00000A07 5B                              	POP	EBX
  1116 00000A08 5E                              	POP	ESI
  1117 00000A09 5F                              	POP	EDI
  1118 00000A0A 5D                              	POP	EBP
  1119 00000A0B EB 00                           	JMP	_cmd_mem
  1120                                          [SECTION .data]
  1121 0000009E                                 LC28:
  1122 0000009E 74 6F 74 61 6C 20 20 20 25 64   	DB	"total   %dMB",0x0A,"free %dKB",0x0A,0x0A,0x00
       000000A8 4D 42 0A 66 72 65 65 20 25 64 
       000000B2 4B 42 0A 0A 00 
  1123                                          [SECTION .text]
  1124 00000A0D                                 	GLOBAL	_cmd_mem
  1125 00000A0D                                 _cmd_mem:
  1126 00000A0D 55                              	PUSH	EBP
  1127 00000A0E 89 E5                           	MOV	EBP,ESP
  1128 00000A10 53                              	PUSH	EBX
  1129 00000A11 83 EC 40                        	SUB	ESP,64
  1130 00000A14 68 003C0000                     	PUSH	3932160
  1131 00000A19 E8 [00000000]                   	CALL	_memman_total
  1132 00000A1E BA 00100000                     	MOV	EDX,1048576
  1133 00000A23 C1 E8 0A                        	SHR	EAX,10
  1134 00000A26 89 D3                           	MOV	EBX,EDX
  1135 00000A28 89 04 24                        	MOV	DWORD [ESP],EAX
  1136 00000A2B 8B 45 0C                        	MOV	EAX,DWORD [12+EBP]
  1137 00000A2E 99                              	CDQ
  1138 00000A2F F7 FB                           	IDIV	EBX
  1139 00000A31 50                              	PUSH	EAX
  1140 00000A32 8D 5D BC                        	LEA	EBX,DWORD [-68+EBP]
  1141 00000A35 68 [0000009E]                   	PUSH	LC28
  1142 00000A3A 53                              	PUSH	EBX
  1143 00000A3B E8 [00000000]                   	CALL	_sprintf
  1144 00000A40 53                              	PUSH	EBX
  1145 00000A41 FF 75 08                        	PUSH	DWORD [8+EBP]
  1146 00000A44 E8 FFFFFA71                     	CALL	_cons_putstr0
  1147 00000A49 8B 5D FC                        	MOV	EBX,DWORD [-4+EBP]
  1148 00000A4C C9                              	LEAVE
  1149 00000A4D C3                              	RET
  1150 00000A4E                                 	GLOBAL	_cmd_cls
  1151 00000A4E                                 _cmd_cls:
  1152 00000A4E 55                              	PUSH	EBP
  1153 00000A4F 89 E5                           	MOV	EBP,ESP
  1154 00000A51 57                              	PUSH	EDI
  1155 00000A52 56                              	PUSH	ESI
  1156 00000A53 8B 45 08                        	MOV	EAX,DWORD [8+EBP]
  1157 00000A56 53                              	PUSH	EBX
  1158 00000A57 BB 0000001C                     	MOV	EBX,28
  1159 00000A5C 8B 08                           	MOV	ECX,DWORD [EAX]
  1160 00000A5E                                 L197:
  1161 00000A5E BA 00000008                     	MOV	EDX,8
  1162 00000A63 8B 79 04                        	MOV	EDI,DWORD [4+ECX]
  1163 00000A66 8B 31                           	MOV	ESI,DWORD [ECX]
  1164 00000A68                                 L196:
  1165 00000A68 89 D8                           	MOV	EAX,EBX
  1166 00000A6A 0F AF C7                        	IMUL	EAX,EDI
  1167 00000A6D 8D 04 10                        	LEA	EAX,DWORD [EAX+EDX*1]
  1168 00000A70 42                              	INC	EDX
  1169 00000A71 81 FA 0000024F                  	CMP	EDX,591
  1170 00000A77 66 C7 04 46 0000                	MOV	WORD [ESI+EAX*2],0
  1171 00000A7D 7E E9                           	JLE	L196
  1172 00000A7F 43                              	INC	EBX
  1173 00000A80 81 FB 00000186                  	CMP	EBX,390
  1174 00000A86 7E D6                           	JLE	L197
  1175 00000A88 68 00000187                     	PUSH	391
  1176 00000A8D 68 00000250                     	PUSH	592
  1177 00000A92 6A 1C                           	PUSH	28
  1178 00000A94 6A 08                           	PUSH	8
  1179 00000A96 51                              	PUSH	ECX
  1180 00000A97 E8 [00000000]                   	CALL	_sheet_refresh
  1181 00000A9C 8B 45 08                        	MOV	EAX,DWORD [8+EBP]
  1182 00000A9F C7 40 08 0000001C               	MOV	DWORD [8+EAX],28
  1183 00000AA6 8D 65 F4                        	LEA	ESP,DWORD [-12+EBP]
  1184 00000AA9 5B                              	POP	EBX
  1185 00000AAA 5E                              	POP	ESI
  1186 00000AAB 5F                              	POP	EDI
  1187 00000AAC 5D                              	POP	EBP
  1188 00000AAD C3                              	RET
  1189                                          [SECTION .data]
  1190 000000B7                                 LC29:
  1191 000000B7 25 64 00                        	DB	"%d",0x00
  1192 000000BA                                 LC30:
  1193 000000BA 25 30 34 64 00                  	DB	"%04d",0x00
  1194 000000BF                                 LC31:
  1195 000000BF 25 30 32 64 00                  	DB	"%02d",0x00
  1196 000000C4                                 LC32:
  1197 000000C4 25 73 2F 25 73 2F 25 73 20 20   	DB	"%s/%s/%s  %s:%s <DIR>%7d filename.ext",0x0A,0x00
       000000CE 25 73 3A 25 73 20 3C 44 49 52 
       000000D8 3E 25 37 64 20 66 69 6C 65 6E 
       000000E2 61 6D 65 2E 65 78 74 0A 00 
  1198                                          [SECTION .text]
  1199 00000AAE                                 	GLOBAL	_cmd_dir
  1200 00000AAE                                 _cmd_dir:
  1201 00000AAE 55                              	PUSH	EBP
  1202 00000AAF 89 E5                           	MOV	EBP,ESP
  1203 00000AB1 57                              	PUSH	EDI
  1204 00000AB2 56                              	PUSH	ESI
  1205 00000AB3 31 F6                           	XOR	ESI,ESI
  1206 00000AB5 53                              	PUSH	EBX
  1207 00000AB6 81 EC 000000F8                  	SUB	ESP,248
  1208 00000ABC C7 85 FFFFFF00 00000000         	MOV	DWORD [-256+EBP],0
  1209 00000AC6                                 L219:
  1210 00000AC6 FC                              	CLD
  1211 00000AC7 31 C0                           	XOR	EAX,EAX
  1212 00000AC9 8D BD FFFFFF04                  	LEA	EDI,DWORD [-252+EBP]
  1213 00000ACF B9 00000014                     	MOV	ECX,20
  1214 00000AD4 8D 9D FFFFFF04                  	LEA	EBX,DWORD [-252+EBP]
  1215 00000ADA F3                              	REP
  1216 00000ADB AB                              	STOSD
  1217 00000ADC FF B5 FFFFFF00                  	PUSH	DWORD [-256+EBP]
  1218 00000AE2 68 [000000B7]                   	PUSH	LC29
  1219 00000AE7 53                              	PUSH	EBX
  1220 00000AE8 E8 [00000000]                   	CALL	_sprintf
  1221 00000AED 6A 07                           	PUSH	7
  1222 00000AEF 53                              	PUSH	EBX
  1223 00000AF0 E8 [00000000]                   	CALL	_dbg_putstr0
  1224 00000AF5 8A 86 00102600                  	MOV	AL,BYTE [1058304+ESI]
  1225 00000AFB 83 C4 14                        	ADD	ESP,20
  1226 00000AFE 84 C0                           	TEST	AL,AL
  1227 00000B00 0F 84 00000187                  	JE	L204
  1228 00000B06 3C E5                           	CMP	AL,-27
  1229 00000B08 0F 84 00000166                  	JE	L205
  1230 00000B0E 8A 86 0010260B                  	MOV	AL,BYTE [1058315+ESI]
  1231 00000B14 83 E0 18                        	AND	EAX,24
  1232 00000B17 88 85 FFFFFEFF                  	MOV	BYTE [-257+EBP],AL
  1233 00000B1D 0F 85 00000151                  	JNE	L205
  1234 00000B23 66 8B 86 00102618               	MOV	AX,WORD [1058328+ESI]
  1235 00000B2A 8D 55 A4                        	LEA	EDX,DWORD [-92+EBP]
  1236 00000B2D 66 C1 E8 09                     	SHR	AX,9
  1237 00000B31 8D 9D FFFFFF64                  	LEA	EBX,DWORD [-156+EBP]
  1238 00000B37 98                              	CWDE
  1239 00000B38 05 000007BC                     	ADD	EAX,1980
  1240 00000B3D 8D 7D B4                        	LEA	EDI,DWORD [-76+EBP]
  1241 00000B40 50                              	PUSH	EAX
  1242 00000B41 68 [000000BA]                   	PUSH	LC30
  1243 00000B46 52                              	PUSH	EDX
  1244 00000B47 C7 45 A4 00000000               	MOV	DWORD [-92+EBP],0
  1245 00000B4E C6 45 A8 00                     	MOV	BYTE [-88+EBP],0
  1246 00000B52 E8 [00000000]                   	CALL	_sprintf
  1247 00000B57 66 8B 86 00102618               	MOV	AX,WORD [1058328+ESI]
  1248 00000B5E 66 C1 E8 05                     	SHR	AX,5
  1249 00000B62 83 E0 0F                        	AND	EAX,15
  1250 00000B65 50                              	PUSH	EAX
  1251 00000B66 8D 45 94                        	LEA	EAX,DWORD [-108+EBP]
  1252 00000B69 68 [000000BF]                   	PUSH	LC31
  1253 00000B6E 50                              	PUSH	EAX
  1254 00000B6F 66 C7 45 94 0000                	MOV	WORD [-108+EBP],0
  1255 00000B75 C6 45 96 00                     	MOV	BYTE [-106+EBP],0
  1256 00000B79 E8 [00000000]                   	CALL	_sprintf
  1257 00000B7E 8D 55 84                        	LEA	EDX,DWORD [-124+EBP]
  1258 00000B81 66 8B 86 00102618               	MOV	AX,WORD [1058328+ESI]
  1259 00000B88 83 E0 1F                        	AND	EAX,31
  1260 00000B8B 98                              	CWDE
  1261 00000B8C 50                              	PUSH	EAX
  1262 00000B8D 68 [000000BF]                   	PUSH	LC31
  1263 00000B92 52                              	PUSH	EDX
  1264 00000B93 66 C7 45 84 0000                	MOV	WORD [-124+EBP],0
  1265 00000B99 C6 45 86 00                     	MOV	BYTE [-122+EBP],0
  1266 00000B9D E8 [00000000]                   	CALL	_sprintf
  1267 00000BA2 83 C4 24                        	ADD	ESP,36
  1268 00000BA5 66 8B 86 00102616               	MOV	AX,WORD [1058326+ESI]
  1269 00000BAC 66 C1 E8 09                     	SHR	AX,9
  1270 00000BB0 98                              	CWDE
  1271 00000BB1 50                              	PUSH	EAX
  1272 00000BB2 8D 85 FFFFFF74                  	LEA	EAX,DWORD [-140+EBP]
  1273 00000BB8 68 [000000BF]                   	PUSH	LC31
  1274 00000BBD 50                              	PUSH	EAX
  1275 00000BBE 66 C7 85 FFFFFF74 0000          	MOV	WORD [-140+EBP],0
  1276 00000BC7 C6 85 FFFFFF76 00               	MOV	BYTE [-138+EBP],0
  1277 00000BCE E8 [00000000]                   	CALL	_sprintf
  1278 00000BD3 66 8B 86 00102616               	MOV	AX,WORD [1058326+ESI]
  1279 00000BDA 66 C1 E8 05                     	SHR	AX,5
  1280 00000BDE 83 E0 0F                        	AND	EAX,15
  1281 00000BE1 50                              	PUSH	EAX
  1282 00000BE2 68 [000000BF]                   	PUSH	LC31
  1283 00000BE7 53                              	PUSH	EBX
  1284 00000BE8 66 C7 85 FFFFFF64 0000          	MOV	WORD [-156+EBP],0
  1285 00000BF1 C6 85 FFFFFF66 00               	MOV	BYTE [-154+EBP],0
  1286 00000BF8 E8 [00000000]                   	CALL	_sprintf
  1287 00000BFD 8D 95 FFFFFF74                  	LEA	EDX,DWORD [-140+EBP]
  1288 00000C03 FC                              	CLD
  1289 00000C04 8A 85 FFFFFEFF                  	MOV	AL,BYTE [-257+EBP]
  1290 00000C0A B9 00000032                     	MOV	ECX,50
  1291 00000C0F F3                              	REP
  1292 00000C10 AA                              	STOSB
  1293 00000C11 FF B6 0010261C                  	PUSH	DWORD [1058332+ESI]
  1294 00000C17 53                              	PUSH	EBX
  1295 00000C18 8D 45 B4                        	LEA	EAX,DWORD [-76+EBP]
  1296 00000C1B 52                              	PUSH	EDX
  1297 00000C1C 8D 55 84                        	LEA	EDX,DWORD [-124+EBP]
  1298 00000C1F 52                              	PUSH	EDX
  1299 00000C20 8D 55 94                        	LEA	EDX,DWORD [-108+EBP]
  1300 00000C23 52                              	PUSH	EDX
  1301 00000C24 8D 55 A4                        	LEA	EDX,DWORD [-92+EBP]
  1302 00000C27 52                              	PUSH	EDX
  1303 00000C28 68 [000000C4]                   	PUSH	LC32
  1304 00000C2D 50                              	PUSH	EAX
  1305 00000C2E E8 [00000000]                   	CALL	_sprintf
  1306 00000C33 8D 96 00102600                  	LEA	EDX,DWORD [1058304+ESI]
  1307 00000C39 31 C9                           	XOR	ECX,ECX
  1308 00000C3B 83 C4 38                        	ADD	ESP,56
  1309 00000C3E                                 L218:
  1310 00000C3E 8A 02                           	MOV	AL,BYTE [EDX]
  1311 00000C40 42                              	INC	EDX
  1312 00000C41 88 44 0D D3                     	MOV	BYTE [-45+EBP+ECX*1],AL
  1313 00000C45 41                              	INC	ECX
  1314 00000C46 83 F9 07                        	CMP	ECX,7
  1315 00000C49 7E F3                           	JLE	L218
  1316 00000C4B 8A 86 00102608                  	MOV	AL,BYTE [1058312+ESI]
  1317 00000C51 88 45 DC                        	MOV	BYTE [-36+EBP],AL
  1318 00000C54 8A 86 00102609                  	MOV	AL,BYTE [1058313+ESI]
  1319 00000C5A 88 45 DD                        	MOV	BYTE [-35+EBP],AL
  1320 00000C5D 8A 86 0010260A                  	MOV	AL,BYTE [1058314+ESI]
  1321 00000C63 88 45 DE                        	MOV	BYTE [-34+EBP],AL
  1322 00000C66 8D 45 B4                        	LEA	EAX,DWORD [-76+EBP]
  1323 00000C69 50                              	PUSH	EAX
  1324 00000C6A FF 75 08                        	PUSH	DWORD [8+EBP]
  1325 00000C6D E8 FFFFF848                     	CALL	_cons_putstr0
  1326 00000C72 58                              	POP	EAX
  1327 00000C73 5A                              	POP	EDX
  1328 00000C74                                 L205:
  1329 00000C74 FF 85 FFFFFF00                  	INC	DWORD [-256+EBP]
  1330 00000C7A 83 C6 20                        	ADD	ESI,32
  1331 00000C7D 81 BD FFFFFF00 000000DF         	CMP	DWORD [-256+EBP],223
  1332 00000C87 0F 8E FFFFFE39                  	JLE	L219
  1333 00000C8D                                 L204:
  1334 00000C8D FF 75 08                        	PUSH	DWORD [8+EBP]
  1335 00000C90 E8 FFFFF727                     	CALL	_cons_newline
  1336 00000C95 8D 65 F4                        	LEA	ESP,DWORD [-12+EBP]
  1337 00000C98 5B                              	POP	EBX
  1338 00000C99 5E                              	POP	ESI
  1339 00000C9A 5F                              	POP	EDI
  1340 00000C9B 5D                              	POP	EBP
  1341 00000C9C C3                              	RET
  1342 00000C9D                                 	GLOBAL	_cmd_exit
  1343 00000C9D                                 _cmd_exit:
  1344 00000C9D 55                              	PUSH	EBP
  1345 00000C9E 89 E5                           	MOV	EBP,ESP
  1346 00000CA0 57                              	PUSH	EDI
  1347 00000CA1 56                              	PUSH	ESI
  1348 00000CA2 53                              	PUSH	EBX
  1349 00000CA3 50                              	PUSH	EAX
  1350 00000CA4 8B 5D 08                        	MOV	EBX,DWORD [8+EBP]
  1351 00000CA7 E8 [00000000]                   	CALL	_task_now
  1352 00000CAC 8B 35 000005E4                  	MOV	ESI,DWORD [1508]
  1353 00000CB2 8B 3D 000005EC                  	MOV	EDI,DWORD [1516]
  1354 00000CB8 89 45 F0                        	MOV	DWORD [-16+EBP],EAX
  1355 00000CBB 83 3B 00                        	CMP	DWORD [EBX],0
  1356 00000CBE 74 09                           	JE	L224
  1357 00000CC0 FF 73 10                        	PUSH	DWORD [16+EBX]
  1358 00000CC3 E8 [00000000]                   	CALL	_timer_cancel
  1359 00000CC8 58                              	POP	EAX
  1360 00000CC9                                 L224:
  1361 00000CC9 E8 [00000000]                   	CALL	_io_cli
  1362 00000CCE 8B 03                           	MOV	EAX,DWORD [EBX]
  1363 00000CD0 85 C0                           	TEST	EAX,EAX
  1364 00000CD2 74 2E                           	JE	L225
  1365 00000CD4 29 F0                           	SUB	EAX,ESI
  1366 00000CD6 2D 00000414                     	SUB	EAX,1044
  1367 00000CDB C1 F8 02                        	SAR	EAX,2
  1368 00000CDE 69 C0 BA2E8BA3                  	IMUL	EAX,EAX,-1171354717
  1369 00000CE4 05 00000300                     	ADD	EAX,768
  1370 00000CE9                                 L230:
  1371 00000CE9 50                              	PUSH	EAX
  1372 00000CEA 57                              	PUSH	EDI
  1373 00000CEB E8 [00000000]                   	CALL	_fifo32_put
  1374 00000CF0 5B                              	POP	EBX
  1375 00000CF1 5E                              	POP	ESI
  1376 00000CF2 E8 [00000000]                   	CALL	_io_sti
  1377 00000CF7                                 L227:
  1378 00000CF7 FF 75 F0                        	PUSH	DWORD [-16+EBP]
  1379 00000CFA E8 [00000000]                   	CALL	_task_sleep
  1380 00000CFF 59                              	POP	ECX
  1381 00000D00 EB F5                           	JMP	L227
  1382 00000D02                                 L225:
  1383 00000D02 8B 45 F0                        	MOV	EAX,DWORD [-16+EBP]
  1384 00000D05 2B 05 [00000000]                	SUB	EAX,DWORD [_taskctl]
  1385 00000D0B 2D 00000FF5                     	SUB	EAX,4085
  1386 00000D10 D1 F8                           	SAR	EAX,1
  1387 00000D12 69 C0 D8FD8FD9                  	IMUL	EAX,EAX,-654471207
  1388 00000D18 05 00000400                     	ADD	EAX,1024
  1389 00000D1D EB CA                           	JMP	L230
  1390 00000D1F                                 	GLOBAL	_cmd_start
  1391 00000D1F                                 _cmd_start:
  1392 00000D1F 55                              	PUSH	EBP
  1393 00000D20 89 E5                           	MOV	EBP,ESP
  1394 00000D22 57                              	PUSH	EDI
  1395 00000D23 56                              	PUSH	ESI
  1396 00000D24 53                              	PUSH	EBX
  1397 00000D25 57                              	PUSH	EDI
  1398 00000D26 57                              	PUSH	EDI
  1399 00000D27 8B 45 08                        	MOV	EAX,DWORD [8+EBP]
  1400 00000D2A 8B 7D 0C                        	MOV	EDI,DWORD [12+EBP]
  1401 00000D2D 8B 35 000005E4                  	MOV	ESI,DWORD [1508]
  1402 00000D33 89 45 F0                        	MOV	DWORD [-16+EBP],EAX
  1403 00000D36 FF 75 10                        	PUSH	DWORD [16+EBP]
  1404 00000D39 56                              	PUSH	ESI
  1405 00000D3A E8 [00000000]                   	CALL	_open_console
  1406 00000D3F 89 C3                           	MOV	EBX,EAX
  1407 00000D41 8B 40 24                        	MOV	EAX,DWORD [36+EAX]
  1408 00000D44 83 C0 10                        	ADD	EAX,16
  1409 00000D47 89 45 EC                        	MOV	DWORD [-20+EBP],EAX
  1410 00000D4A 6A 04                           	PUSH	4
  1411 00000D4C 6A 20                           	PUSH	32
  1412 00000D4E 53                              	PUSH	EBX
  1413 00000D4F E8 [00000000]                   	CALL	_sheet_slide
  1414 00000D54 FF 76 10                        	PUSH	DWORD [16+ESI]
  1415 00000D57 53                              	PUSH	EBX
  1416 00000D58 BB 00000006                     	MOV	EBX,6
  1417 00000D5D E8 [00000000]                   	CALL	_sheet_updown
  1418 00000D62 83 C4 1C                        	ADD	ESP,28
  1419 00000D65 80 7F 06 00                     	CMP	BYTE [6+EDI],0
  1420 00000D69 75 21                           	JNE	L236
  1421 00000D6B                                 L238:
  1422 00000D6B 68 0000010A                     	PUSH	266
  1423 00000D70 FF 75 EC                        	PUSH	DWORD [-20+EBP]
  1424 00000D73 E8 [00000000]                   	CALL	_fifo32_put
  1425 00000D78 58                              	POP	EAX
  1426 00000D79 8B 45 F0                        	MOV	EAX,DWORD [-16+EBP]
  1427 00000D7C 5A                              	POP	EDX
  1428 00000D7D 89 45 08                        	MOV	DWORD [8+EBP],EAX
  1429 00000D80 8D 65 F4                        	LEA	ESP,DWORD [-12+EBP]
  1430 00000D83 5B                              	POP	EBX
  1431 00000D84 5E                              	POP	ESI
  1432 00000D85 5F                              	POP	EDI
  1433 00000D86 5D                              	POP	EBP
  1434 00000D87 E9 FFFFF630                     	JMP	_cons_newline
  1435 00000D8C                                 L236:
  1436 00000D8C 0F BE 04 3B                     	MOVSX	EAX,BYTE [EBX+EDI*1]
  1437 00000D90 05 00000100                     	ADD	EAX,256
  1438 00000D95 43                              	INC	EBX
  1439 00000D96 50                              	PUSH	EAX
  1440 00000D97 FF 75 EC                        	PUSH	DWORD [-20+EBP]
  1441 00000D9A E8 [00000000]                   	CALL	_fifo32_put
  1442 00000D9F 80 3C 3B 00                     	CMP	BYTE [EBX+EDI*1],0
  1443 00000DA3 59                              	POP	ECX
  1444 00000DA4 5E                              	POP	ESI
  1445 00000DA5 75 E5                           	JNE	L236
  1446 00000DA7 EB C2                           	JMP	L238
  1447 00000DA9                                 	GLOBAL	_cmd_ncst
  1448 00000DA9                                 _cmd_ncst:
  1449 00000DA9 55                              	PUSH	EBP
  1450 00000DAA 89 E5                           	MOV	EBP,ESP
  1451 00000DAC 57                              	PUSH	EDI
  1452 00000DAD 56                              	PUSH	ESI
  1453 00000DAE BE 00000005                     	MOV	ESI,5
  1454 00000DB3 53                              	PUSH	EBX
  1455 00000DB4 51                              	PUSH	ECX
  1456 00000DB5 8B 45 08                        	MOV	EAX,DWORD [8+EBP]
  1457 00000DB8 8B 5D 0C                        	MOV	EBX,DWORD [12+EBP]
  1458 00000DBB 89 45 F0                        	MOV	DWORD [-16+EBP],EAX
  1459 00000DBE FF 75 10                        	PUSH	DWORD [16+EBP]
  1460 00000DC1 6A 00                           	PUSH	0
  1461 00000DC3 E8 [00000000]                   	CALL	_open_constask
  1462 00000DC8 80 7B 05 00                     	CMP	BYTE [5+EBX],0
  1463 00000DCC 8D 78 10                        	LEA	EDI,DWORD [16+EAX]
  1464 00000DCF 58                              	POP	EAX
  1465 00000DD0 5A                              	POP	EDX
  1466 00000DD1 75 1F                           	JNE	L244
  1467 00000DD3                                 L246:
  1468 00000DD3 68 0000010A                     	PUSH	266
  1469 00000DD8 57                              	PUSH	EDI
  1470 00000DD9 E8 [00000000]                   	CALL	_fifo32_put
  1471 00000DDE 58                              	POP	EAX
  1472 00000DDF 8B 45 F0                        	MOV	EAX,DWORD [-16+EBP]
  1473 00000DE2 5A                              	POP	EDX
  1474 00000DE3 89 45 08                        	MOV	DWORD [8+EBP],EAX
  1475 00000DE6 8D 65 F4                        	LEA	ESP,DWORD [-12+EBP]
  1476 00000DE9 5B                              	POP	EBX
  1477 00000DEA 5E                              	POP	ESI
  1478 00000DEB 5F                              	POP	EDI
  1479 00000DEC 5D                              	POP	EBP
  1480 00000DED E9 FFFFF5CA                     	JMP	_cons_newline
  1481 00000DF2                                 L244:
  1482 00000DF2 0F BE 04 1E                     	MOVSX	EAX,BYTE [ESI+EBX*1]
  1483 00000DF6 05 00000100                     	ADD	EAX,256
  1484 00000DFB 46                              	INC	ESI
  1485 00000DFC 50                              	PUSH	EAX
  1486 00000DFD 57                              	PUSH	EDI
  1487 00000DFE E8 [00000000]                   	CALL	_fifo32_put
  1488 00000E03 80 3C 1E 00                     	CMP	BYTE [ESI+EBX*1],0
  1489 00000E07 59                              	POP	ECX
  1490 00000E08 58                              	POP	EAX
  1491 00000E09 75 E7                           	JNE	L244
  1492 00000E0B EB C6                           	JMP	L246
  1493                                          [SECTION .data]
  1494 000000EB                                 LC33:
  1495 000000EB 6D 6F 64 65 20 6E 75 6D 62 65   	DB	"mode number error.",0x0A,0x00
       000000F5 72 20 65 72 72 6F 72 2E 0A 00 
  1496                                          [SECTION .text]
  1497 00000E0D                                 	GLOBAL	_cmd_langmode
  1498 00000E0D                                 _cmd_langmode:
  1499 00000E0D 55                              	PUSH	EBP
  1500 00000E0E 89 E5                           	MOV	EBP,ESP
  1501 00000E10 56                              	PUSH	ESI
  1502 00000E11 53                              	PUSH	EBX
  1503 00000E12 8B 5D 0C                        	MOV	EBX,DWORD [12+EBP]
  1504 00000E15 8B 75 08                        	MOV	ESI,DWORD [8+EBP]
  1505 00000E18 E8 [00000000]                   	CALL	_task_now
  1506 00000E1D 8A 53 09                        	MOV	DL,BYTE [9+EBX]
  1507 00000E20 83 EA 30                        	SUB	EDX,48
  1508 00000E23 80 FA 02                        	CMP	DL,2
  1509 00000E26 77 14                           	JA	L248
  1510 00000E28 88 90 000000BC                  	MOV	BYTE [188+EAX],DL
  1511 00000E2E                                 L249:
  1512 00000E2E 89 75 08                        	MOV	DWORD [8+EBP],ESI
  1513 00000E31 8D 65 F8                        	LEA	ESP,DWORD [-8+EBP]
  1514 00000E34 5B                              	POP	EBX
  1515 00000E35 5E                              	POP	ESI
  1516 00000E36 5D                              	POP	EBP
  1517 00000E37 E9 FFFFF580                     	JMP	_cons_newline
  1518 00000E3C                                 L248:
  1519 00000E3C 68 [000000EB]                   	PUSH	LC33
  1520 00000E41 56                              	PUSH	ESI
  1521 00000E42 E8 FFFFF673                     	CALL	_cons_putstr0
  1522 00000E47 5B                              	POP	EBX
  1523 00000E48 58                              	POP	EAX
  1524 00000E49 EB E3                           	JMP	L249
  1525                                          [SECTION .data]
  1526 000000FF                                 LC34:
  1527 000000FF 63 6C 73 20 20 20 20 20 20 64   	DB	"cls      dir      exit     help      langmode mem      ncst     start ",0x0A,0x00
       00000109 69 72 20 20 20 20 20 20 65 78 
       00000113 69 74 20 20 20 20 20 68 65 6C 
       0000011D 70 20 20 20 20 20 20 6C 61 6E 
       00000127 67 6D 6F 64 65 20 6D 65 6D 20 
       00000131 20 20 20 20 20 6E 63 73 74 20 
       0000013B 20 20 20 20 73 74 61 72 74 20 
       00000145 0A 00 
  1528 00000147                                 LC35:
  1529 00000147 70 77 64 20 20 20 20 20 20 0A   	DB	"pwd      ",0x0A,0x00
       00000151 00 
  1530 00000152                                 LC36:
  1531 00000152 49 6E 74 65 72 6E 61 6D 20 63   	DB	"Internam commands available:",0x0A,0x00
       0000015C 6F 6D 6D 61 6E 64 73 20 61 76 
       00000166 61 69 6C 61 62 6C 65 3A 0A 00 
  1532 00000170                                 LC37:
  1533 00000170 41 4C 49 41 53 20 20 20 20 42   	DB	"ALIAS    BEEP     BREAK    CALL      CD=      CHDIR=   CDD      CHCP",0x0A,0x00
       0000017A 45 45 50 20 20 20 20 20 42 52 
       00000184 45 41 4B 20 20 20 20 43 41 4C 
       0000018E 4C 20 20 20 20 20 20 43 44 3D 
       00000198 20 20 20 20 20 20 43 48 44 49 
       000001A2 52 3D 20 20 20 43 44 44 20 20 
       000001AC 20 20 20 20 43 48 43 50 0A 00 
  1534 000001B6                                 LC38:
  1535 000001B6 43 4C 53 2A 20 20 20 20 20 43   	DB	"CLS*     COPY     CTTY     DATE*     DEL*     DIR*     DIRS     DOSKEY",0x0A,0x00
       000001C0 4F 50 59 20 20 20 20 20 43 54 
       000001CA 54 59 20 20 20 20 20 44 41 54 
       000001D4 45 2A 20 20 20 20 20 44 45 4C 
       000001DE 2A 20 20 20 20 20 44 49 52 2A 
       000001E8 20 20 20 20 20 44 49 52 53 20 
       000001F2 20 20 20 20 44 4F 53 4B 45 59 
       000001FC 0A 00 
  1536 000001FE                                 LC39:
  1537 000001FE 45 43 48 4F 20 20 20 20 20 45   	DB	"ECHO     ERASE    EXIT     FOR       GOTO     HISTORY  IF       LFNFOR",0x0A,0x00
       00000208 52 41 53 45 20 20 20 20 45 58 
       00000212 49 54 20 20 20 20 20 46 4F 52 
       0000021C 20 20 20 20 20 20 20 47 4F 54 
       00000226 4F 20 20 20 20 20 48 49 53 54 
       00000230 4F 52 59 20 20 49 46 20 20 20 
       0000023A 20 20 20 20 4C 46 4E 46 4F 52 
       00000244 0A 00 
  1538 00000246                                 LC40:
  1539 00000246 4C 48 20 20 20 20 20 20 20 4C   	DB	"LH       LOADHIGH LOADFIX  MEMORY    MD=      MKDIR=   PATH     PAUSE",0x0A,0x00
       00000250 4F 41 44 48 49 47 48 20 4C 4F 
       0000025A 41 44 46 49 58 20 20 4D 45 4D 
       00000264 4F 52 59 20 20 20 20 4D 44 3D 
       0000026E 20 20 20 20 20 20 4D 4B 44 49 
       00000278 52 3D 20 20 20 50 41 54 48 20 
       00000282 20 20 20 20 50 41 55 53 45 0A 
       0000028C 00 
  1540 0000028D                                 LC41:
  1541 0000028D 50 52 4F 4D 50 54 20 20 20 50   	DB	"PROMPT   PUSHD    POPD     RD=       REM      REN      RENAME   RMDIR=",0x0A,0x00
       00000297 55 53 48 44 20 20 20 20 50 4F 
       000002A1 50 44 20 20 20 20 20 52 44 3D 
       000002AB 20 20 20 20 20 20 20 52 45 4D 
       000002B5 20 20 20 20 20 20 52 45 4E 20 
       000002BF 20 20 20 20 20 52 45 4E 41 4D 
       000002C9 45 20 20 20 52 4D 44 49 52 3D 
       000002D3 0A 00 
  1542 000002D5                                 LC42:
  1543 000002D5 53 45 54 20 20 20 20 20 20 53   	DB	"SET      SHIFT    TIME*    TRUENAME  TYPE*    VER*     VERIFY   VOL",0x0A,0x00
       000002DF 48 49 46 54 20 20 20 20 54 49 
       000002E9 4D 45 2A 20 20 20 20 54 52 55 
       000002F3 45 4E 41 4D 45 20 20 54 59 50 
       000002FD 45 2A 20 20 20 20 56 45 52 2A 
       00000307 20 20 20 20 20 56 45 52 49 46 
       00000311 59 20 20 20 56 4F 4C 0A 00 
  1544 0000031A                                 LC43:
  1545 0000031A 3F 20 20 20 20 20 20 20 20 57   	DB	"?        WHICH    TITLE",0x0A,0x00
       00000324 48 49 43 48 20 20 20 20 54 49 
       0000032E 54 4C 45 0A 00 
  1546                                          [SECTION .text]
  1547 00000E4B                                 	GLOBAL	_cmd_help
  1548 00000E4B                                 _cmd_help:
  1549 00000E4B 55                              	PUSH	EBP
  1550 00000E4C 89 E5                           	MOV	EBP,ESP
  1551 00000E4E 56                              	PUSH	ESI
  1552 00000E4F 53                              	PUSH	EBX
  1553 00000E50 83 EC 60                        	SUB	ESP,96
  1554 00000E53 8D 5D 98                        	LEA	EBX,DWORD [-104+EBP]
  1555 00000E56 8B 75 08                        	MOV	ESI,DWORD [8+EBP]
  1556 00000E59 68 [000000FF]                   	PUSH	LC34
  1557 00000E5E 53                              	PUSH	EBX
  1558 00000E5F E8 [00000000]                   	CALL	_sprintf
  1559 00000E64 53                              	PUSH	EBX
  1560 00000E65 56                              	PUSH	ESI
  1561 00000E66 E8 FFFFF64F                     	CALL	_cons_putstr0
  1562 00000E6B 68 [00000147]                   	PUSH	LC35
  1563 00000E70 53                              	PUSH	EBX
  1564 00000E71 E8 [00000000]                   	CALL	_sprintf
  1565 00000E76 53                              	PUSH	EBX
  1566 00000E77 56                              	PUSH	ESI
  1567 00000E78 E8 FFFFF63D                     	CALL	_cons_putstr0
  1568 00000E7D 83 C4 20                        	ADD	ESP,32
  1569 00000E80 68 [00000152]                   	PUSH	LC36
  1570 00000E85 53                              	PUSH	EBX
  1571 00000E86 E8 [00000000]                   	CALL	_sprintf
  1572 00000E8B 53                              	PUSH	EBX
  1573 00000E8C 56                              	PUSH	ESI
  1574 00000E8D E8 FFFFF628                     	CALL	_cons_putstr0
  1575 00000E92 68 [00000170]                   	PUSH	LC37
  1576 00000E97 53                              	PUSH	EBX
  1577 00000E98 E8 [00000000]                   	CALL	_sprintf
  1578 00000E9D 53                              	PUSH	EBX
  1579 00000E9E 56                              	PUSH	ESI
  1580 00000E9F E8 FFFFF616                     	CALL	_cons_putstr0
  1581 00000EA4 83 C4 20                        	ADD	ESP,32
  1582 00000EA7 68 [000001B6]                   	PUSH	LC38
  1583 00000EAC 53                              	PUSH	EBX
  1584 00000EAD E8 [00000000]                   	CALL	_sprintf
  1585 00000EB2 53                              	PUSH	EBX
  1586 00000EB3 56                              	PUSH	ESI
  1587 00000EB4 E8 FFFFF601                     	CALL	_cons_putstr0
  1588 00000EB9 68 [000001FE]                   	PUSH	LC39
  1589 00000EBE 53                              	PUSH	EBX
  1590 00000EBF E8 [00000000]                   	CALL	_sprintf
  1591 00000EC4 53                              	PUSH	EBX
  1592 00000EC5 56                              	PUSH	ESI
  1593 00000EC6 E8 FFFFF5EF                     	CALL	_cons_putstr0
  1594 00000ECB 83 C4 20                        	ADD	ESP,32
  1595 00000ECE 68 [00000246]                   	PUSH	LC40
  1596 00000ED3 53                              	PUSH	EBX
  1597 00000ED4 E8 [00000000]                   	CALL	_sprintf
  1598 00000ED9 53                              	PUSH	EBX
  1599 00000EDA 56                              	PUSH	ESI
  1600 00000EDB E8 FFFFF5DA                     	CALL	_cons_putstr0
  1601 00000EE0 68 [0000028D]                   	PUSH	LC41
  1602 00000EE5 53                              	PUSH	EBX
  1603 00000EE6 E8 [00000000]                   	CALL	_sprintf
  1604 00000EEB 53                              	PUSH	EBX
  1605 00000EEC 56                              	PUSH	ESI
  1606 00000EED E8 FFFFF5C8                     	CALL	_cons_putstr0
  1607 00000EF2 83 C4 20                        	ADD	ESP,32
  1608 00000EF5 68 [000002D5]                   	PUSH	LC42
  1609 00000EFA 53                              	PUSH	EBX
  1610 00000EFB E8 [00000000]                   	CALL	_sprintf
  1611 00000F00 53                              	PUSH	EBX
  1612 00000F01 56                              	PUSH	ESI
  1613 00000F02 E8 FFFFF5B3                     	CALL	_cons_putstr0
  1614 00000F07 68 [0000031A]                   	PUSH	LC43
  1615 00000F0C 53                              	PUSH	EBX
  1616 00000F0D E8 [00000000]                   	CALL	_sprintf
  1617 00000F12 53                              	PUSH	EBX
  1618 00000F13 56                              	PUSH	ESI
  1619 00000F14 E8 FFFFF5A1                     	CALL	_cons_putstr0
  1620 00000F19 83 C4 20                        	ADD	ESP,32
  1621 00000F1C 56                              	PUSH	ESI
  1622 00000F1D E8 FFFFF49A                     	CALL	_cons_newline
  1623 00000F22 8D 65 F8                        	LEA	ESP,DWORD [-8+EBP]
  1624 00000F25 5B                              	POP	EBX
  1625 00000F26 5E                              	POP	ESI
  1626 00000F27 5D                              	POP	EBP
  1627 00000F28 C3                              	RET
  1628                                          [SECTION .data]
  1629 00000333                                 LC44:
  1630 00000333 0A 48 61 72 69 62 6F 74 65 20   	DB	0x0A,"Haribote version 1.0 [2010].",0x0A,0x00
       0000033D 76 65 72 73 69 6F 6E 20 31 2E 
       00000347 30 20 5B 32 30 31 30 5D 2E 0A 
       00000351 00 
  1631                                          [SECTION .text]
  1632 00000F29                                 	GLOBAL	_cmd_ver
  1633 00000F29                                 _cmd_ver:
  1634 00000F29 55                              	PUSH	EBP
  1635 00000F2A 89 E5                           	MOV	EBP,ESP
  1636 00000F2C 56                              	PUSH	ESI
  1637 00000F2D 53                              	PUSH	EBX
  1638 00000F2E 83 EC 60                        	SUB	ESP,96
  1639 00000F31 8D 5D 98                        	LEA	EBX,DWORD [-104+EBP]
  1640 00000F34 8B 75 08                        	MOV	ESI,DWORD [8+EBP]
  1641 00000F37 68 [00000333]                   	PUSH	LC44
  1642 00000F3C 53                              	PUSH	EBX
  1643 00000F3D E8 [00000000]                   	CALL	_sprintf
  1644 00000F42 53                              	PUSH	EBX
  1645 00000F43 56                              	PUSH	ESI
  1646 00000F44 E8 FFFFF571                     	CALL	_cons_putstr0
  1647 00000F49 56                              	PUSH	ESI
  1648 00000F4A E8 FFFFF46D                     	CALL	_cons_newline
  1649 00000F4F 8D 65 F8                        	LEA	ESP,DWORD [-8+EBP]
  1650 00000F52 5B                              	POP	EBX
  1651 00000F53 5E                              	POP	ESI
  1652 00000F54 5D                              	POP	EBP
  1653 00000F55 C3                              	RET
  1654                                          [SECTION .data]
  1655 00000352                                 LC45:
  1656 00000352 25 30 34 64 2F 25 30 32 64 2F   	DB	"%04d/%02d/%02d %02d:%02d:%02d",0x0A,0x00
       0000035C 25 30 32 64 20 25 30 32 64 3A 
       00000366 25 30 32 64 3A 25 30 32 64 0A 
       00000370 00 
  1657                                          [SECTION .text]
  1658 00000F56                                 	GLOBAL	_cmd_time
  1659 00000F56                                 _cmd_time:
  1660 00000F56 55                              	PUSH	EBP
  1661 00000F57 89 E5                           	MOV	EBP,ESP
  1662 00000F59 56                              	PUSH	ESI
  1663 00000F5A 53                              	PUSH	EBX
  1664 00000F5B 31 DB                           	XOR	EBX,EBX
  1665 00000F5D 83 EC 40                        	SUB	ESP,64
  1666 00000F60 8B 75 08                        	MOV	ESI,DWORD [8+EBP]
  1667 00000F63                                 L257:
  1668 00000F63 53                              	PUSH	EBX
  1669 00000F64 E8 [00000000]                   	CALL	_rtc_get
  1670 00000F69 89 44 9D D8                     	MOV	DWORD [-40+EBP+EBX*4],EAX
  1671 00000F6D 43                              	INC	EBX
  1672 00000F6E 58                              	POP	EAX
  1673 00000F6F 83 FB 06                        	CMP	EBX,6
  1674 00000F72 7E EF                           	JLE	L257
  1675 00000F74 FF 75 EC                        	PUSH	DWORD [-20+EBP]
  1676 00000F77 FF 75 E8                        	PUSH	DWORD [-24+EBP]
  1677 00000F7A FF 75 E4                        	PUSH	DWORD [-28+EBP]
  1678 00000F7D FF 75 E0                        	PUSH	DWORD [-32+EBP]
  1679 00000F80 FF 75 DC                        	PUSH	DWORD [-36+EBP]
  1680 00000F83 FF 75 D8                        	PUSH	DWORD [-40+EBP]
  1681 00000F86 8D 5D B8                        	LEA	EBX,DWORD [-72+EBP]
  1682 00000F89 68 [00000352]                   	PUSH	LC45
  1683 00000F8E 53                              	PUSH	EBX
  1684 00000F8F E8 [00000000]                   	CALL	_sprintf
  1685 00000F94 83 C4 20                        	ADD	ESP,32
  1686 00000F97 53                              	PUSH	EBX
  1687 00000F98 56                              	PUSH	ESI
  1688 00000F99 E8 FFFFF51C                     	CALL	_cons_putstr0
  1689 00000F9E 56                              	PUSH	ESI
  1690 00000F9F E8 FFFFF418                     	CALL	_cons_newline
  1691 00000FA4 8D 65 F8                        	LEA	ESP,DWORD [-8+EBP]
  1692 00000FA7 5B                              	POP	EBX
  1693 00000FA8 5E                              	POP	ESI
  1694 00000FA9 5D                              	POP	EBP
  1695 00000FAA C3                              	RET
  1696                                          [SECTION .data]
  1697 00000371                                 LC47:
  1698 00000371 25 73 00                        	DB	"%s",0x00
  1699 00000374                                 LC48:
  1700 00000374 0A 00                           	DB	0x0A,0x00
  1701 00000376                                 LC46:
  1702 00000376 5B 55 53 45 41 47 45 5D 54 49   	DB	"[USEAGE]TITLE title",0x0A,0x00
       00000380 54 4C 45 20 74 69 74 6C 65 0A 
       0000038A 00 
  1703                                          [SECTION .text]
  1704 00000FAB                                 	GLOBAL	_cmd_title
  1705 00000FAB                                 _cmd_title:
  1706 00000FAB 55                              	PUSH	EBP
  1707 00000FAC 83 C9 FF                        	OR	ECX,-1
  1708 00000FAF 89 E5                           	MOV	EBP,ESP
  1709 00000FB1 31 C0                           	XOR	EAX,EAX
  1710 00000FB3 57                              	PUSH	EDI
  1711 00000FB4 56                              	PUSH	ESI
  1712 00000FB5 53                              	PUSH	EBX
  1713 00000FB6 83 EC 60                        	SUB	ESP,96
  1714 00000FB9 8B 5D 0C                        	MOV	EBX,DWORD [12+EBP]
  1715 00000FBC 8B 75 08                        	MOV	ESI,DWORD [8+EBP]
  1716 00000FBF FC                              	CLD
  1717 00000FC0 89 DF                           	MOV	EDI,EBX
  1718 00000FC2 F2                              	REPNE
  1719 00000FC3 AE                              	SCASB
  1720 00000FC4 F7 D1                           	NOT	ECX
  1721 00000FC6 49                              	DEC	ECX
  1722 00000FC7 83 F9 06                        	CMP	ECX,6
  1723 00000FCA 7E 57                           	JLE	L272
  1724 00000FCC B8 00000005                     	MOV	EAX,5
  1725 00000FD1 39 C8                           	CMP	EAX,ECX
  1726 00000FD3 7D 17                           	JGE	L263
  1727 00000FD5                                 L268:
  1728 00000FD5 8A 14 18                        	MOV	DL,BYTE [EAX+EBX*1]
  1729 00000FD8 80 FA 2F                        	CMP	DL,47
  1730 00000FDB 74 0A                           	JE	L271
  1731 00000FDD 80 FA 3F                        	CMP	DL,63
  1732 00000FE0 74 36                           	JE	L270
  1733 00000FE2 80 FA 20                        	CMP	DL,32
  1734 00000FE5 75 05                           	JNE	L263
  1735 00000FE7                                 L271:
  1736 00000FE7 40                              	INC	EAX
  1737 00000FE8 39 C8                           	CMP	EAX,ECX
  1738 00000FEA 7C E9                           	JL	L268
  1739 00000FEC                                 L263:
  1740 00000FEC 8D 04 18                        	LEA	EAX,DWORD [EAX+EBX*1]
  1741 00000FEF 8D 5D 94                        	LEA	EBX,DWORD [-108+EBP]
  1742 00000FF2 50                              	PUSH	EAX
  1743 00000FF3 68 [00000371]                   	PUSH	LC47
  1744 00000FF8 53                              	PUSH	EBX
  1745 00000FF9 E8 [00000000]                   	CALL	_sprintf
  1746 00000FFE 68 [00000374]                   	PUSH	LC48
  1747 00001003 56                              	PUSH	ESI
  1748 00001004 E8 FFFFF4B1                     	CALL	_cons_putstr0
  1749 00001009 53                              	PUSH	EBX
  1750 0000100A 56                              	PUSH	ESI
  1751 0000100B E8 000014AF                     	CALL	_set_console_title
  1752 00001010                                 L260:
  1753 00001010 8D 65 F4                        	LEA	ESP,DWORD [-12+EBP]
  1754 00001013 5B                              	POP	EBX
  1755 00001014 5E                              	POP	ESI
  1756 00001015 5F                              	POP	EDI
  1757 00001016 5D                              	POP	EBP
  1758 00001017 C3                              	RET
  1759 00001018                                 L270:
  1760 00001018 68 [00000376]                   	PUSH	LC46
  1761 0000101D 56                              	PUSH	ESI
  1762 0000101E E8 FFFFF497                     	CALL	_cons_putstr0
  1763 00001023                                 L272:
  1764 00001023 56                              	PUSH	ESI
  1765 00001024 E8 FFFFF393                     	CALL	_cons_newline
  1766 00001029 EB E5                           	JMP	L260
  1767                                          [SECTION .data]
  1768 0000038B                                 LC49:
  1769 0000038B 72 65 61 64 2E 0A 00            	DB	"read.",0x0A,0x00
  1770                                          [SECTION .text]
  1771 0000102B                                 	GLOBAL	_cmd_read
  1772 0000102B                                 _cmd_read:
  1773 0000102B 55                              	PUSH	EBP
  1774 0000102C 89 E5                           	MOV	EBP,ESP
  1775 0000102E C7 45 0C [0000038B]             	MOV	DWORD [12+EBP],LC49
  1776 00001035 5D                              	POP	EBP
  1777 00001036 E9 FFFFF47F                     	JMP	_cons_putstr0
  1778                                          [SECTION .data]
  1779 00000392                                 LC50:
  1780 00000392 2D 43 72 65 61 74 69 76 65 20   	DB	"-Creative Sound Blaster Series -",0x00
       0000039C 53 6F 75 6E 64 20 42 6C 61 73 
       000003A6 74 65 72 20 53 65 72 69 65 73 
       000003B0 20 2D 00 
  1781 000003B3 00                              	RESB	1
  1782 000003B4 53 6F 75 6E 64 20 42 6C 61 73   	DB	"Sound Blaster",0x00
       000003BE 74 65 72 00 
  1783 000003C2 00 00 00 00 00 00 00 00 00 00   	RESB	20
       000003CC 00 00 00 00 00 00 00 00 00 00 
  1784 000003D6 53 6F 75 6E 64 20 42 6C 61 73   	DB	"Sound Blaster Pro",0x00
       000003E0 74 65 72 20 50 72 6F 00 
  1785 000003E8 00 00 00 00 00 00 00 00 00 00   	RESB	16
       000003F2 00 00 00 00 00 00 
  1786 000003F8 53 6F 75 6E 64 20 42 6C 61 73   	DB	"Sound Blaster 2.0",0x00
       00000402 74 65 72 20 32 2E 30 00 
  1787 0000040A 00 00 00 00 00 00 00 00 00 00   	RESB	16
       00000414 00 00 00 00 00 00 
  1788 0000041A 53 6F 75 6E 64 20 42 6C 61 73   	DB	"Sound Blaster Pro 2.0",0x00
       00000424 74 65 72 20 50 72 6F 20 32 2E 
       0000042E 30 00 
  1789 00000430 00 00 00 00 00 00 00 00 00 00   	RESB	12
       0000043A 00 00 
  1790 0000043C 53 6F 75 6E 64 20 42 6C 61 73   	DB	"Sound Blaster Pro MCV",0x00
       00000446 74 65 72 20 50 72 6F 20 4D 43 
       00000450 56 00 
  1791 00000452 00 00 00 00 00 00 00 00 00 00   	RESB	12
       0000045C 00 00 
  1792 0000045E 53 6F 75 6E 64 20 42 6C 61 73   	DB	"Sound Blaster 16",0x00
       00000468 74 65 72 20 31 36 00 
  1793 0000046F 00 00 00 00 00 00 00 00 00 00   	RESB	17
       00000479 00 00 00 00 00 00 00 
  1794 00000480                                 LC52:
  1795 00000480 0A 0A 54 68 65 20 25 73 20 69   	DB	0x0A,0x0A,"The %s is detected",0x0A,0x00
       0000048A 73 20 64 65 74 65 63 74 65 64 
       00000494 0A 00 
  1796 00000496                                 LC53:
  1797 00000496 42 6C 61 73 74 65 72 20 49 2F   	DB	"Blaster I/O Port : %x",0x0A,0x00
       000004A0 4F 20 50 6F 72 74 20 3A 20 25 
       000004AA 78 0A 00 
  1798 000004AD                                 LC54:
  1799 000004AD 44 53 50 20 56 65 72 73 69 6F   	DB	"DSP Version : %d.%d",0x0A,0x00
       000004B7 6E 20 3A 20 25 64 2E 25 64 0A 
       000004C1 00 
  1800 000004C2                                 LC55:
  1801 000004C2 49 52 51 20 3A 20 25 64 0A 00   	DB	"IRQ : %d",0x0A,0x00
  1802 000004CC                                 LC56:
  1803 000004CC 44 4D 41 20 3A 20 25 64 0A 00   	DB	"DMA : %d",0x0A,0x00
  1804 000004D6                                 LC61:
  1805 000004D6 73 6F 6E 64 2E 0A 00            	DB	"sond.",0x0A,0x00
  1806 000004DD                                 LC59:
  1807 000004DD 4D 69 78 65 72 20 41 64 64 72   	DB	"Mixer Addr : %x",0x0A,0x00
       000004E7 20 3A 20 25 78 0A 00 
  1808 000004EE                                 LC58:
  1809 000004EE 4D 49 44 49 20 3A 20 25 78 0A   	DB	"MIDI : %x",0x0A,0x00
       000004F8 00 
  1810 000004F9                                 LC57:
  1811 000004F9 48 44 4D 41 20 3A 20 25 64 0A   	DB	"HDMA : %d",0x0A,0x00
       00000503 00 
  1812 00000504                                 LC60:
  1813 00000504 55 6E 6B 6E 6F 77 6E 20 43 61   	DB	"Unknown Card!",0x0A,0x00
       0000050E 72 64 21 0A 00 
  1814 00000513                                 LC51:
  1815 00000513 45 72 72 6F 72 0A 00            	DB	"Error",0x0A,0x00
  1816                                          [SECTION .text]
  1817 0000103B                                 	GLOBAL	_cmd_sond
  1818 0000103B                                 _cmd_sond:
  1819 0000103B 55                              	PUSH	EBP
  1820 0000103C B9 000000EE                     	MOV	ECX,238
  1821 00001041 89 E5                           	MOV	EBP,ESP
  1822 00001043 57                              	PUSH	EDI
  1823 00001044 56                              	PUSH	ESI
  1824 00001045 BE [00000392]                   	MOV	ESI,LC50
  1825 0000104A 53                              	PUSH	EBX
  1826 0000104B 8D BD FFFFFE74                  	LEA	EDI,DWORD [-396+EBP]
  1827 00001051 FC                              	CLD
  1828 00001052 81 EC 00000180                  	SUB	ESP,384
  1829 00001058 F3                              	REP
  1830 00001059 A4                              	MOVSB
  1831 0000105A E8 [00000000]                   	CALL	_test_sb16
  1832 0000105F 40                              	INC	EAX
  1833 00001060 0F 84 000001F6                  	JE	L282
  1834 00001066                                 L276:
  1835 00001066 66 83 3D [00000000] 06          	CMP	WORD [_CardID],6
  1836 0000106E 0F 87 000001B6                  	JA	L277
  1837 00001074 31 F6                           	XOR	ESI,ESI
  1838 00001076 8D BD FFFFFF64                  	LEA	EDI,DWORD [-156+EBP]
  1839 0000107C FC                              	CLD
  1840 0000107D 89 F0                           	MOV	EAX,ESI
  1841 0000107F B9 00000081                     	MOV	ECX,129
  1842 00001084 F3                              	REP
  1843 00001085 AA                              	STOSB
  1844 00001086 0F BF 05 [00000000]             	MOVSX	EAX,WORD [_CardID]
  1845 0000108D 6B C0 22                        	IMUL	EAX,EAX,34
  1846 00001090 8D 9D FFFFFF64                  	LEA	EBX,DWORD [-156+EBP]
  1847 00001096 8D 84 28 FFFFFE74               	LEA	EAX,DWORD [-396+EAX+EBP*1]
  1848 0000109D 89 DF                           	MOV	EDI,EBX
  1849 0000109F 50                              	PUSH	EAX
  1850 000010A0 68 [00000480]                   	PUSH	LC52
  1851 000010A5 53                              	PUSH	EBX
  1852 000010A6 E8 [00000000]                   	CALL	_sprintf
  1853 000010AB 53                              	PUSH	EBX
  1854 000010AC FF 75 08                        	PUSH	DWORD [8+EBP]
  1855 000010AF E8 FFFFF406                     	CALL	_cons_putstr0
  1856 000010B4 89 F0                           	MOV	EAX,ESI
  1857 000010B6 FC                              	CLD
  1858 000010B7 B9 00000081                     	MOV	ECX,129
  1859 000010BC F3                              	REP
  1860 000010BD AA                              	STOSB
  1861 000010BE 0F BF 05 [00000000]             	MOVSX	EAX,WORD [_IOAddr]
  1862 000010C5 50                              	PUSH	EAX
  1863 000010C6 89 DF                           	MOV	EDI,EBX
  1864 000010C8 68 [00000496]                   	PUSH	LC53
  1865 000010CD 53                              	PUSH	EBX
  1866 000010CE E8 [00000000]                   	CALL	_sprintf
  1867 000010D3 83 C4 20                        	ADD	ESP,32
  1868 000010D6 53                              	PUSH	EBX
  1869 000010D7 FF 75 08                        	PUSH	DWORD [8+EBP]
  1870 000010DA E8 FFFFF3DB                     	CALL	_cons_putstr0
  1871 000010DF 89 F0                           	MOV	EAX,ESI
  1872 000010E1 FC                              	CLD
  1873 000010E2 B9 00000081                     	MOV	ECX,129
  1874 000010E7 F3                              	REP
  1875 000010E8 AA                              	STOSB
  1876 000010E9 0F BE 05 [00000000]             	MOVSX	EAX,BYTE [_ver2]
  1877 000010F0 50                              	PUSH	EAX
  1878 000010F1 89 DF                           	MOV	EDI,EBX
  1879 000010F3 0F BE 05 [00000000]             	MOVSX	EAX,BYTE [_ver1]
  1880 000010FA 50                              	PUSH	EAX
  1881 000010FB 68 [000004AD]                   	PUSH	LC54
  1882 00001100 53                              	PUSH	EBX
  1883 00001101 E8 [00000000]                   	CALL	_sprintf
  1884 00001106 53                              	PUSH	EBX
  1885 00001107 FF 75 08                        	PUSH	DWORD [8+EBP]
  1886 0000110A E8 FFFFF3AB                     	CALL	_cons_putstr0
  1887 0000110F 83 C4 20                        	ADD	ESP,32
  1888 00001112 FC                              	CLD
  1889 00001113 89 F0                           	MOV	EAX,ESI
  1890 00001115 B9 00000081                     	MOV	ECX,129
  1891 0000111A F3                              	REP
  1892 0000111B AA                              	STOSB
  1893 0000111C 0F BF 05 [00000000]             	MOVSX	EAX,WORD [_SBIntr]
  1894 00001123 50                              	PUSH	EAX
  1895 00001124 89 DF                           	MOV	EDI,EBX
  1896 00001126 68 [000004C2]                   	PUSH	LC55
  1897 0000112B 53                              	PUSH	EBX
  1898 0000112C E8 [00000000]                   	CALL	_sprintf
  1899 00001131 53                              	PUSH	EBX
  1900 00001132 FF 75 08                        	PUSH	DWORD [8+EBP]
  1901 00001135 E8 FFFFF380                     	CALL	_cons_putstr0
  1902 0000113A 89 F0                           	MOV	EAX,ESI
  1903 0000113C FC                              	CLD
  1904 0000113D B9 00000081                     	MOV	ECX,129
  1905 00001142 F3                              	REP
  1906 00001143 AA                              	STOSB
  1907 00001144 0F BF 05 [00000000]             	MOVSX	EAX,WORD [_DMA]
  1908 0000114B 50                              	PUSH	EAX
  1909 0000114C 68 [000004CC]                   	PUSH	LC56
  1910 00001151 53                              	PUSH	EBX
  1911 00001152 E8 [00000000]                   	CALL	_sprintf
  1912 00001157 83 C4 20                        	ADD	ESP,32
  1913 0000115A 53                              	PUSH	EBX
  1914 0000115B FF 75 08                        	PUSH	DWORD [8+EBP]
  1915 0000115E E8 FFFFF357                     	CALL	_cons_putstr0
  1916 00001163 58                              	POP	EAX
  1917 00001164 5A                              	POP	EDX
  1918 00001165 66 8B 15 [00000000]             	MOV	DX,WORD [_HDMA]
  1919 0000116C 66 85 D2                        	TEST	DX,DX
  1920 0000116F 0F 85 00000089                  	JNE	L283
  1921 00001175                                 L278:
  1922 00001175 66 8B 15 [00000000]             	MOV	DX,WORD [_MIDI]
  1923 0000117C 66 85 D2                        	TEST	DX,DX
  1924 0000117F 75 54                           	JNE	L284
  1925 00001181                                 L279:
  1926 00001181 66 8B 15 [00000000]             	MOV	DX,WORD [_Mixer]
  1927 00001188 66 85 D2                        	TEST	DX,DX
  1928 0000118B 75 1F                           	JNE	L285
  1929 0000118D                                 L281:
  1930 0000118D 68 000000D1                     	PUSH	209
  1931 00001192 E8 [00000000]                   	CALL	_write_dsp
  1932 00001197 68 [000004D6]                   	PUSH	LC61
  1933 0000119C FF 75 08                        	PUSH	DWORD [8+EBP]
  1934 0000119F E8 FFFFF316                     	CALL	_cons_putstr0
  1935 000011A4 8D 65 F4                        	LEA	ESP,DWORD [-12+EBP]
  1936 000011A7 5B                              	POP	EBX
  1937 000011A8 5E                              	POP	ESI
  1938 000011A9 5F                              	POP	EDI
  1939 000011AA 5D                              	POP	EBP
  1940 000011AB C3                              	RET
  1941 000011AC                                 L285:
  1942 000011AC FC                              	CLD
  1943 000011AD 89 F0                           	MOV	EAX,ESI
  1944 000011AF B9 00000081                     	MOV	ECX,129
  1945 000011B4 89 DF                           	MOV	EDI,EBX
  1946 000011B6 F3                              	REP
  1947 000011B7 AA                              	STOSB
  1948 000011B8 0F BF C2                        	MOVSX	EAX,DX
  1949 000011BB 50                              	PUSH	EAX
  1950 000011BC 68 [000004DD]                   	PUSH	LC59
  1951 000011C1 53                              	PUSH	EBX
  1952 000011C2 E8 [00000000]                   	CALL	_sprintf
  1953 000011C7 53                              	PUSH	EBX
  1954 000011C8 FF 75 08                        	PUSH	DWORD [8+EBP]
  1955 000011CB E8 FFFFF2EA                     	CALL	_cons_putstr0
  1956 000011D0 83 C4 14                        	ADD	ESP,20
  1957 000011D3 EB B8                           	JMP	L281
  1958 000011D5                                 L284:
  1959 000011D5 FC                              	CLD
  1960 000011D6 89 F0                           	MOV	EAX,ESI
  1961 000011D8 B9 00000081                     	MOV	ECX,129
  1962 000011DD 89 DF                           	MOV	EDI,EBX
  1963 000011DF F3                              	REP
  1964 000011E0 AA                              	STOSB
  1965 000011E1 0F BF C2                        	MOVSX	EAX,DX
  1966 000011E4 50                              	PUSH	EAX
  1967 000011E5 68 [000004EE]                   	PUSH	LC58
  1968 000011EA 53                              	PUSH	EBX
  1969 000011EB E8 [00000000]                   	CALL	_sprintf
  1970 000011F0 53                              	PUSH	EBX
  1971 000011F1 FF 75 08                        	PUSH	DWORD [8+EBP]
  1972 000011F4 E8 FFFFF2C1                     	CALL	_cons_putstr0
  1973 000011F9 83 C4 14                        	ADD	ESP,20
  1974 000011FC EB 83                           	JMP	L279
  1975 000011FE                                 L283:
  1976 000011FE FC                              	CLD
  1977 000011FF 89 F0                           	MOV	EAX,ESI
  1978 00001201 B9 00000081                     	MOV	ECX,129
  1979 00001206 89 DF                           	MOV	EDI,EBX
  1980 00001208 F3                              	REP
  1981 00001209 AA                              	STOSB
  1982 0000120A 0F BF C2                        	MOVSX	EAX,DX
  1983 0000120D 50                              	PUSH	EAX
  1984 0000120E 68 [000004F9]                   	PUSH	LC57
  1985 00001213 53                              	PUSH	EBX
  1986 00001214 E8 [00000000]                   	CALL	_sprintf
  1987 00001219 53                              	PUSH	EBX
  1988 0000121A FF 75 08                        	PUSH	DWORD [8+EBP]
  1989 0000121D E8 FFFFF298                     	CALL	_cons_putstr0
  1990 00001222 83 C4 14                        	ADD	ESP,20
  1991 00001225 E9 FFFFFF4B                     	JMP	L278
  1992 0000122A                                 L277:
  1993 0000122A FC                              	CLD
  1994 0000122B 31 C0                           	XOR	EAX,EAX
  1995 0000122D 8D BD FFFFFF64                  	LEA	EDI,DWORD [-156+EBP]
  1996 00001233 B9 00000081                     	MOV	ECX,129
  1997 00001238 8D 9D FFFFFF64                  	LEA	EBX,DWORD [-156+EBP]
  1998 0000123E F3                              	REP
  1999 0000123F AA                              	STOSB
  2000 00001240 68 [00000504]                   	PUSH	LC60
  2001 00001245 53                              	PUSH	EBX
  2002 00001246 E8 [00000000]                   	CALL	_sprintf
  2003 0000124B 53                              	PUSH	EBX
  2004 0000124C FF 75 08                        	PUSH	DWORD [8+EBP]
  2005 0000124F E8 FFFFF266                     	CALL	_cons_putstr0
  2006 00001254 83 C4 10                        	ADD	ESP,16
  2007 00001257 E9 FFFFFF31                     	JMP	L281
  2008 0000125C                                 L282:
  2009 0000125C 68 [00000513]                   	PUSH	LC51
  2010 00001261 FF 75 08                        	PUSH	DWORD [8+EBP]
  2011 00001264 E8 FFFFF251                     	CALL	_cons_putstr0
  2012 00001269 59                              	POP	ECX
  2013 0000126A 5B                              	POP	EBX
  2014 0000126B E9 FFFFFDF6                     	JMP	L276
  2015                                          [SECTION .data]
  2016 0000051A                                 LC62:
  2017 0000051A 63 75 72 72 65 6E 74 20 6C 65   	DB	"current level:%d",0x0A,0x00
       00000524 76 65 6C 3A 25 64 0A 00 
  2018 0000052C                                 LC63:
  2019 0000052C 73 65 61 72 63 68 20 20 74 61   	DB	"search  task :%d",0x0A,0x00
       00000536 73 6B 20 3A 25 64 0A 00 
  2020 0000053E                                 LC64:
  2021 0000053E 63 75 72 72 65 6E 74 20 74 61   	DB	"current task:%s",0x0A,0x00
       00000548 73 6B 3A 25 73 0A 00 
  2022 0000054F                                 LC65:
  2023 0000054F 4E 6F 2E 20 43 6F 6D 6D 61 6E   	DB	"No. Command Line    lvl p  name       state      mode byte",0x0A,0x00
       00000559 64 20 4C 69 6E 65 20 20 20 20 
       00000563 6C 76 6C 20 70 20 20 6E 61 6D 
       0000056D 65 20 20 20 20 20 20 20 73 74 
       00000577 61 74 65 20 20 20 20 20 20 6D 
       00000581 6F 64 65 20 62 79 74 65 0A 00 
  2024 0000058B                                 LC66:
  2025 0000058B 2D 2D 2D 20 2D 2D 2D 2D 2D 2D   	DB	"--- --------------- --- -- ---------- ---------- ---- ----",0x0A,0x00
       00000595 2D 2D 2D 2D 2D 2D 2D 2D 2D 20 
       0000059F 2D 2D 2D 20 2D 2D 20 2D 2D 2D 
       000005A9 2D 2D 2D 2D 2D 2D 2D 20 2D 2D 
       000005B3 2D 2D 2D 2D 2D 2D 2D 2D 20 2D 
       000005BD 2D 2D 2D 20 2D 2D 2D 2D 0A 00 
  2026 000005C7                                 LC70:
  2027 000005C7 25 33 64 20 25 2D 31 35 73 20   	DB	"%3d %-15s %3d %2d %-10s %s %4d %4d",0x0A,0x00
       000005D1 25 33 64 20 25 32 64 20 25 2D 
       000005DB 31 30 73 20 25 73 20 25 34 64 
       000005E5 20 25 34 64 0A 00 
  2028 000005EB                                 LC69:
  2029 000005EB 75 6E 75 73 65 64 00            	DB	"unused",0x00
  2030 000005F2                                 LC68:
  2031 000005F2 73 6C 65 65 70 69 6E 67 00      	DB	"sleeping",0x00
  2032 000005FB                                 LC67:
  2033 000005FB 72 75 6E 6E 69 6E 67 20 00      	DB	"running ",0x00
  2034                                          [SECTION .text]
  2035 00001270                                 	GLOBAL	_cmd_tasklst
  2036 00001270                                 _cmd_tasklst:
  2037 00001270 55                              	PUSH	EBP
  2038 00001271 89 E5                           	MOV	EBP,ESP
  2039 00001273 57                              	PUSH	EDI
  2040 00001274 56                              	PUSH	ESI
  2041 00001275 31 F6                           	XOR	ESI,ESI
  2042 00001277 53                              	PUSH	EBX
  2043 00001278 BB 00000014                     	MOV	EBX,20
  2044 0000127D 83 EC 74                        	SUB	ESP,116
  2045 00001280 89 D9                           	MOV	ECX,EBX
  2046 00001282 8B 15 [00000000]                	MOV	EDX,DWORD [_taskctl]
  2047 00001288 FC                              	CLD
  2048 00001289 8B 02                           	MOV	EAX,DWORD [EDX]
  2049 0000128B 69 C0 00000198                  	IMUL	EAX,EAX,408
  2050 00001291 8D 44 10 05                     	LEA	EAX,DWORD [5+EAX+EDX*1]
  2051 00001295 89 45 8C                        	MOV	DWORD [-116+EBP],EAX
  2052 00001298 8D 45 A4                        	LEA	EAX,DWORD [-92+EBP]
  2053 0000129B 89 45 88                        	MOV	DWORD [-120+EBP],EAX
  2054 0000129E 89 C7                           	MOV	EDI,EAX
  2055 000012A0 89 F0                           	MOV	EAX,ESI
  2056 000012A2 F3                              	REP
  2057 000012A3 AB                              	STOSD
  2058 000012A4 FF 32                           	PUSH	DWORD [EDX]
  2059 000012A6 68 [0000051A]                   	PUSH	LC62
  2060 000012AB 8D 45 A4                        	LEA	EAX,DWORD [-92+EBP]
  2061 000012AE 50                              	PUSH	EAX
  2062 000012AF 8D 7D A4                        	LEA	EDI,DWORD [-92+EBP]
  2063 000012B2 E8 [00000000]                   	CALL	_sprintf
  2064 000012B7 8D 55 A4                        	LEA	EDX,DWORD [-92+EBP]
  2065 000012BA 52                              	PUSH	EDX
  2066 000012BB FF 75 08                        	PUSH	DWORD [8+EBP]
  2067 000012BE E8 FFFFF1F7                     	CALL	_cons_putstr0
  2068 000012C3 8D 55 A4                        	LEA	EDX,DWORD [-92+EBP]
  2069 000012C6 FC                              	CLD
  2070 000012C7 89 F0                           	MOV	EAX,ESI
  2071 000012C9 89 D9                           	MOV	ECX,EBX
  2072 000012CB F3                              	REP
  2073 000012CC AB                              	STOSD
  2074 000012CD A1 [00000000]                   	MOV	EAX,DWORD [_taskctl]
  2075 000012D2 8D 7D A4                        	LEA	EDI,DWORD [-92+EBP]
  2076 000012D5 0F BE 40 04                     	MOVSX	EAX,BYTE [4+EAX]
  2077 000012D9 50                              	PUSH	EAX
  2078 000012DA 68 [0000052C]                   	PUSH	LC63
  2079 000012DF 52                              	PUSH	EDX
  2080 000012E0 E8 [00000000]                   	CALL	_sprintf
  2081 000012E5 83 C4 20                        	ADD	ESP,32
  2082 000012E8 57                              	PUSH	EDI
  2083 000012E9 FF 75 08                        	PUSH	DWORD [8+EBP]
  2084 000012EC E8 FFFFF1C9                     	CALL	_cons_putstr0
  2085 000012F1 89 F0                           	MOV	EAX,ESI
  2086 000012F3 FC                              	CLD
  2087 000012F4 89 D9                           	MOV	ECX,EBX
  2088 000012F6 F3                              	REP
  2089 000012F7 AB                              	STOSD
  2090 000012F8 8B 55 8C                        	MOV	EDX,DWORD [-116+EBP]
  2091 000012FB 8D 7D A4                        	LEA	EDI,DWORD [-92+EBP]
  2092 000012FE 8B 42 04                        	MOV	EAX,DWORD [4+EDX]
  2093 00001301 8B 44 82 08                     	MOV	EAX,DWORD [8+EDX+EAX*4]
  2094 00001305 05 000000BE                     	ADD	EAX,190
  2095 0000130A 50                              	PUSH	EAX
  2096 0000130B 68 [0000053E]                   	PUSH	LC64
  2097 00001310 57                              	PUSH	EDI
  2098 00001311 E8 [00000000]                   	CALL	_sprintf
  2099 00001316 57                              	PUSH	EDI
  2100 00001317 FF 75 08                        	PUSH	DWORD [8+EBP]
  2101 0000131A E8 FFFFF19B                     	CALL	_cons_putstr0
  2102 0000131F 68 [0000054F]                   	PUSH	LC65
  2103 00001324 FF 75 08                        	PUSH	DWORD [8+EBP]
  2104 00001327 E8 FFFFF18E                     	CALL	_cons_putstr0
  2105 0000132C 83 C4 24                        	ADD	ESP,36
  2106 0000132F 68 [0000058B]                   	PUSH	LC66
  2107 00001334 FF 75 08                        	PUSH	DWORD [8+EBP]
  2108 00001337 E8 FFFFF17E                     	CALL	_cons_putstr0
  2109 0000133C 58                              	POP	EAX
  2110 0000133D C7 45 90 00000000               	MOV	DWORD [-112+EBP],0
  2111 00001344 5A                              	POP	EDX
  2112 00001345                                 L295:
  2113 00001345 89 F0                           	MOV	EAX,ESI
  2114 00001347 03 05 [00000000]                	ADD	EAX,DWORD [_taskctl]
  2115 0000134D 05 00000FF0                     	ADD	EAX,4080
  2116 00001352 83 78 09 00                     	CMP	DWORD [9+EAX],0
  2117 00001356 0F 84 0000009F                  	JE	L289
  2118 0000135C C6 45 94 00                     	MOV	BYTE [-108+EBP],0
  2119 00001360 83 78 09 02                     	CMP	DWORD [9+EAX],2
  2120 00001364 0F 84 000000E1                  	JE	L298
  2121 0000136A                                 L292:
  2122 0000136A 89 F0                           	MOV	EAX,ESI
  2123 0000136C 03 05 [00000000]                	ADD	EAX,DWORD [_taskctl]
  2124 00001372 83 B8 00000FF9 01               	CMP	DWORD [4089+EAX],1
  2125 00001379 0F 84 000000B7                  	JE	L299
  2126 0000137F                                 L293:
  2127 0000137F 89 F0                           	MOV	EAX,ESI
  2128 00001381 03 05 [00000000]                	ADD	EAX,DWORD [_taskctl]
  2129 00001387 83 B8 00000FF9 00               	CMP	DWORD [4089+EAX],0
  2130 0000138E 0F 84 0000008D                  	JE	L300
  2131 00001394                                 L294:
  2132 00001394 8D 55 A4                        	LEA	EDX,DWORD [-92+EBP]
  2133 00001397 31 C0                           	XOR	EAX,EAX
  2134 00001399 FC                              	CLD
  2135 0000139A 89 D7                           	MOV	EDI,EDX
  2136 0000139C B9 00000014                     	MOV	ECX,20
  2137 000013A1 89 55 80                        	MOV	DWORD [-128+EBP],EDX
  2138 000013A4 89 D3                           	MOV	EBX,EDX
  2139 000013A6 F3                              	REP
  2140 000013A7 AB                              	STOSD
  2141 000013A8 89 F2                           	MOV	EDX,ESI
  2142 000013AA 03 15 [00000000]                	ADD	EDX,DWORD [_taskctl]
  2143 000013B0 0F B6 82 000010B2               	MOVZX	EAX,BYTE [4274+EDX]
  2144 000013B7 50                              	PUSH	EAX
  2145 000013B8 0F B6 82 000010B1               	MOVZX	EAX,BYTE [4273+EDX]
  2146 000013BF 50                              	PUSH	EAX
  2147 000013C0 8D 45 94                        	LEA	EAX,DWORD [-108+EBP]
  2148 000013C3 50                              	PUSH	EAX
  2149 000013C4 8D 82 000010B3                  	LEA	EAX,DWORD [4275+EDX]
  2150 000013CA 50                              	PUSH	EAX
  2151 000013CB 8D 82 00000FF0                  	LEA	EAX,DWORD [4080+EDX]
  2152 000013D1 FF 70 11                        	PUSH	DWORD [17+EAX]
  2153 000013D4 FF 70 0D                        	PUSH	DWORD [13+EAX]
  2154 000013D7 8B 45 90                        	MOV	EAX,DWORD [-112+EBP]
  2155 000013DA FF B2 000010AD                  	PUSH	DWORD [4269+EDX]
  2156 000013E0 40                              	INC	EAX
  2157 000013E1 50                              	PUSH	EAX
  2158 000013E2 68 [000005C7]                   	PUSH	LC70
  2159 000013E7 53                              	PUSH	EBX
  2160 000013E8 E8 [00000000]                   	CALL	_sprintf
  2161 000013ED 83 C4 28                        	ADD	ESP,40
  2162 000013F0 53                              	PUSH	EBX
  2163 000013F1 FF 75 08                        	PUSH	DWORD [8+EBP]
  2164 000013F4 E8 FFFFF0C1                     	CALL	_cons_putstr0
  2165 000013F9 5F                              	POP	EDI
  2166 000013FA 58                              	POP	EAX
  2167 000013FB                                 L289:
  2168 000013FB FF 45 90                        	INC	DWORD [-112+EBP]
  2169 000013FE 81 C6 000000D2                  	ADD	ESI,210
  2170 00001404 81 7D 90 000003E7               	CMP	DWORD [-112+EBP],999
  2171 0000140B 0F 8E FFFFFF34                  	JLE	L295
  2172 00001411 FF 75 08                        	PUSH	DWORD [8+EBP]
  2173 00001414 E8 FFFFEFA3                     	CALL	_cons_newline
  2174 00001419 8D 65 F4                        	LEA	ESP,DWORD [-12+EBP]
  2175 0000141C 5B                              	POP	EBX
  2176 0000141D 5E                              	POP	ESI
  2177 0000141E 5F                              	POP	EDI
  2178 0000141F 5D                              	POP	EBP
  2179 00001420 C3                              	RET
  2180 00001421                                 L300:
  2181 00001421 68 [000005EB]                   	PUSH	LC69
  2182 00001426 8D 45 94                        	LEA	EAX,DWORD [-108+EBP]
  2183 00001429 50                              	PUSH	EAX
  2184 0000142A E8 [00000000]                   	CALL	_sprintf
  2185 0000142F 58                              	POP	EAX
  2186 00001430 5A                              	POP	EDX
  2187 00001431 E9 FFFFFF5E                     	JMP	L294
  2188 00001436                                 L299:
  2189 00001436 68 [000005F2]                   	PUSH	LC68
  2190 0000143B 8D 45 94                        	LEA	EAX,DWORD [-108+EBP]
  2191 0000143E 50                              	PUSH	EAX
  2192 0000143F E8 [00000000]                   	CALL	_sprintf
  2193 00001444 59                              	POP	ECX
  2194 00001445 5B                              	POP	EBX
  2195 00001446 E9 FFFFFF34                     	JMP	L293
  2196 0000144B                                 L298:
  2197 0000144B 68 [000005FB]                   	PUSH	LC67
  2198 00001450 8D 45 94                        	LEA	EAX,DWORD [-108+EBP]
  2199 00001453 50                              	PUSH	EAX
  2200 00001454 E8 [00000000]                   	CALL	_sprintf
  2201 00001459 5F                              	POP	EDI
  2202 0000145A 58                              	POP	EAX
  2203 0000145B E9 FFFFFF0A                     	JMP	L292
  2204                                          [SECTION .data]
  2205 00000604                                 LC71:
  2206 00000604 49 6E 66 6F 72 6D 61 74 69 6F   	DB	"Information of TIMERCTL:",0x0A,0x00
       0000060E 6E 20 6F 66 20 54 49 4D 45 52 
       00000618 43 54 4C 3A 0A 00 
  2207 0000061E                                 LC72:
  2208 0000061E 63 6F 75 6E 74 3A 25 64 0A 00   	DB	"count:%d",0x0A,0x00
  2209 00000628                                 LC73:
  2210 00000628 6E 65 78 74 3A 20 25 64 20 0A   	DB	"next: %d ",0x0A,0x00
       00000632 00 
  2211 00000633                                 LC76:
  2212 00000633 74 30 3A 20 25 73 20 25 31 30   	DB	"t0: %s %10d %10s %10d %10d",0x0A,0x00
       0000063D 64 20 25 31 30 73 20 25 31 30 
       00000647 64 20 25 31 30 64 0A 00 
  2213 0000064F                                 LC77:
  2214 0000064F 6E 61 6D 65 20 20 20 20 20 20   	DB	"name            timeout      state      flag2       data",0x0A,0x00
       00000659 20 20 20 20 20 20 74 69 6D 65 
       00000663 6F 75 74 20 20 20 20 20 20 73 
       0000066D 74 61 74 65 20 20 20 20 20 20 
       00000677 66 6C 61 67 32 20 20 20 20 20 
       00000681 20 20 64 61 74 61 0A 00 
  2215 00000689                                 LC78:
  2216 00000689 2D 2D 2D 2D 2D 2D 2D 2D 2D 2D   	DB	"------------ ---------- ---------- ---------- ----------",0x0A,0x00
       00000693 2D 2D 20 2D 2D 2D 2D 2D 2D 2D 
       0000069D 2D 2D 2D 20 2D 2D 2D 2D 2D 2D 
       000006A7 2D 2D 2D 2D 20 2D 2D 2D 2D 2D 
       000006B1 2D 2D 2D 2D 2D 20 2D 2D 2D 2D 
       000006BB 2D 2D 2D 2D 2D 2D 0A 00 
  2217 000006C3                                 LC79:
  2218 000006C3 25 31 32 73 20 25 31 30 75 20   	DB	"%12s %10u %10s %10d %10d",0x0A,0x00
       000006CD 25 31 30 73 20 25 31 30 64 20 
       000006D7 25 31 30 64 0A 00 
  2219 000006DD                                 LC75:
  2220 000006DD 61 6C 6C 6F 63 00               	DB	"alloc",0x00
  2221 000006E3                                 LC74:
  2222 000006E3 75 73 69 6E 67 00               	DB	"using",0x00
  2223                                          [SECTION .text]
  2224 00001460                                 	GLOBAL	_cmd_timerlst
  2225 00001460                                 _cmd_timerlst:
  2226 00001460 55                              	PUSH	EBP
  2227 00001461 89 E5                           	MOV	EBP,ESP
  2228 00001463 57                              	PUSH	EDI
  2229 00001464 56                              	PUSH	ESI
  2230 00001465 53                              	PUSH	EBX
  2231 00001466 8D 5D A4                        	LEA	EBX,DWORD [-92+EBP]
  2232 00001469 83 EC 64                        	SUB	ESP,100
  2233 0000146C 68 [00000604]                   	PUSH	LC71
  2234 00001471 FF 75 08                        	PUSH	DWORD [8+EBP]
  2235 00001474 E8 FFFFF041                     	CALL	_cons_putstr0
  2236 00001479 FF 35 [00000000]                	PUSH	DWORD [_timerctl]
  2237 0000147F 68 [0000061E]                   	PUSH	LC72
  2238 00001484 53                              	PUSH	EBX
  2239 00001485 C6 45 A4 00                     	MOV	BYTE [-92+EBP],0
  2240 00001489 E8 [00000000]                   	CALL	_sprintf
  2241 0000148E 53                              	PUSH	EBX
  2242 0000148F FF 75 08                        	PUSH	DWORD [8+EBP]
  2243 00001492 E8 FFFFF023                     	CALL	_cons_putstr0
  2244 00001497 FF 35 [00000004]                	PUSH	DWORD [_timerctl+4]
  2245 0000149D 68 [00000628]                   	PUSH	LC73
  2246 000014A2 53                              	PUSH	EBX
  2247 000014A3 E8 [00000000]                   	CALL	_sprintf
  2248 000014A8 83 C4 28                        	ADD	ESP,40
  2249 000014AB 53                              	PUSH	EBX
  2250 000014AC FF 75 08                        	PUSH	DWORD [8+EBP]
  2251 000014AF E8 FFFFF006                     	CALL	_cons_putstr0
  2252 000014B4 A1 [00000008]                   	MOV	EAX,DWORD [_timerctl+8]
  2253 000014B9 C6 45 94 00                     	MOV	BYTE [-108+EBP],0
  2254 000014BD 59                              	POP	ECX
  2255 000014BE 5E                              	POP	ESI
  2256 000014BF 80 78 08 02                     	CMP	BYTE [8+EAX],2
  2257 000014C3 0F 84 00000163                  	JE	L316
  2258 000014C9                                 L302:
  2259 000014C9 A1 [00000008]                   	MOV	EAX,DWORD [_timerctl+8]
  2260 000014CE 80 78 08 01                     	CMP	BYTE [8+EAX],1
  2261 000014D2 0F 84 0000013F                  	JE	L317
  2262 000014D8                                 L303:
  2263 000014D8 A1 [00000008]                   	MOV	EAX,DWORD [_timerctl+8]
  2264 000014DD 80 78 08 00                     	CMP	BYTE [8+EAX],0
  2265 000014E1 0F 84 0000011B                  	JE	L318
  2266 000014E7                                 L304:
  2267 000014E7 A1 [00000008]                   	MOV	EAX,DWORD [_timerctl+8]
  2268 000014EC 31 F6                           	XOR	ESI,ESI
  2269 000014EE FF 70 0E                        	PUSH	DWORD [14+EAX]
  2270 000014F1 0F BE 50 09                     	MOVSX	EDX,BYTE [9+EAX]
  2271 000014F5 52                              	PUSH	EDX
  2272 000014F6 8D 55 94                        	LEA	EDX,DWORD [-108+EBP]
  2273 000014F9 52                              	PUSH	EDX
  2274 000014FA FF 70 04                        	PUSH	DWORD [4+EAX]
  2275 000014FD 83 C0 12                        	ADD	EAX,18
  2276 00001500 50                              	PUSH	EAX
  2277 00001501 68 [00000633]                   	PUSH	LC76
  2278 00001506 53                              	PUSH	EBX
  2279 00001507 E8 [00000000]                   	CALL	_sprintf
  2280 0000150C 53                              	PUSH	EBX
  2281 0000150D FF 75 08                        	PUSH	DWORD [8+EBP]
  2282 00001510 E8 FFFFEFA5                     	CALL	_cons_putstr0
  2283 00001515 83 C4 24                        	ADD	ESP,36
  2284 00001518 68 [0000064F]                   	PUSH	LC77
  2285 0000151D FF 75 08                        	PUSH	DWORD [8+EBP]
  2286 00001520 E8 FFFFEF95                     	CALL	_cons_putstr0
  2287 00001525 68 [00000689]                   	PUSH	LC78
  2288 0000152A FF 75 08                        	PUSH	DWORD [8+EBP]
  2289 0000152D E8 FFFFEF88                     	CALL	_cons_putstr0
  2290 00001532 83 C4 10                        	ADD	ESP,16
  2291 00001535 C7 45 90 000001F3               	MOV	DWORD [-112+EBP],499
  2292 0000153C                                 L313:
  2293 0000153C 8A 86 [00000014]                	MOV	AL,BYTE [_timerctl+20+ESI]
  2294 00001542 C6 45 A4 00                     	MOV	BYTE [-92+EBP],0
  2295 00001546 84 C0                           	TEST	AL,AL
  2296 00001548 74 64                           	JE	L307
  2297 0000154A C6 45 94 00                     	MOV	BYTE [-108+EBP],0
  2298 0000154E 3C 02                           	CMP	AL,2
  2299 00001550 0F 84 00000097                  	JE	L319
  2300 00001556                                 L310:
  2301 00001556 80 BE [00000014] 01             	CMP	BYTE [_timerctl+20+ESI],1
  2302 0000155D 74 79                           	JE	L320
  2303 0000155F                                 L311:
  2304 0000155F 80 BE [00000014] 00             	CMP	BYTE [_timerctl+20+ESI],0
  2305 00001566 74 5E                           	JE	L321
  2306 00001568                                 L312:
  2307 00001568 FC                              	CLD
  2308 00001569 31 C0                           	XOR	EAX,EAX
  2309 0000156B 8D 7D A4                        	LEA	EDI,DWORD [-92+EBP]
  2310 0000156E B9 00000014                     	MOV	ECX,20
  2311 00001573 8D 5D A4                        	LEA	EBX,DWORD [-92+EBP]
  2312 00001576 F3                              	REP
  2313 00001577 AB                              	STOSD
  2314 00001578 FF B6 [0000001A]                	PUSH	DWORD [_timerctl+26+ESI]
  2315 0000157E 0F BE 86 [00000015]             	MOVSX	EAX,BYTE [_timerctl+21+ESI]
  2316 00001585 50                              	PUSH	EAX
  2317 00001586 8D 45 94                        	LEA	EAX,DWORD [-108+EBP]
  2318 00001589 50                              	PUSH	EAX
  2319 0000158A 8D 86 [0000001E]                	LEA	EAX,DWORD [_timerctl+30+ESI]
  2320 00001590 FF B6 [00000010]                	PUSH	DWORD [_timerctl+16+ESI]
  2321 00001596 50                              	PUSH	EAX
  2322 00001597 68 [000006C3]                   	PUSH	LC79
  2323 0000159C 53                              	PUSH	EBX
  2324 0000159D E8 [00000000]                   	CALL	_sprintf
  2325 000015A2 53                              	PUSH	EBX
  2326 000015A3 FF 75 08                        	PUSH	DWORD [8+EBP]
  2327 000015A6 E8 FFFFEF0F                     	CALL	_cons_putstr0
  2328 000015AB 83 C4 24                        	ADD	ESP,36
  2329 000015AE                                 L307:
  2330 000015AE 83 C6 22                        	ADD	ESI,34
  2331 000015B1 FF 4D 90                        	DEC	DWORD [-112+EBP]
  2332 000015B4 79 86                           	JNS	L313
  2333 000015B6 FF 75 08                        	PUSH	DWORD [8+EBP]
  2334 000015B9 E8 FFFFEDFE                     	CALL	_cons_newline
  2335 000015BE 8D 65 F4                        	LEA	ESP,DWORD [-12+EBP]
  2336 000015C1 5B                              	POP	EBX
  2337 000015C2 5E                              	POP	ESI
  2338 000015C3 5F                              	POP	EDI
  2339 000015C4 5D                              	POP	EBP
  2340 000015C5 C3                              	RET
  2341 000015C6                                 L321:
  2342 000015C6 68 [000005EB]                   	PUSH	LC69
  2343 000015CB 8D 45 94                        	LEA	EAX,DWORD [-108+EBP]
  2344 000015CE 50                              	PUSH	EAX
  2345 000015CF E8 [00000000]                   	CALL	_sprintf
  2346 000015D4 59                              	POP	ECX
  2347 000015D5 5B                              	POP	EBX
  2348 000015D6 EB 90                           	JMP	L312
  2349 000015D8                                 L320:
  2350 000015D8 68 [000006DD]                   	PUSH	LC75
  2351 000015DD 8D 45 94                        	LEA	EAX,DWORD [-108+EBP]
  2352 000015E0 50                              	PUSH	EAX
  2353 000015E1 E8 [00000000]                   	CALL	_sprintf
  2354 000015E6 5F                              	POP	EDI
  2355 000015E7 58                              	POP	EAX
  2356 000015E8 E9 FFFFFF72                     	JMP	L311
  2357 000015ED                                 L319:
  2358 000015ED 68 [000006E3]                   	PUSH	LC74
  2359 000015F2 8D 45 94                        	LEA	EAX,DWORD [-108+EBP]
  2360 000015F5 50                              	PUSH	EAX
  2361 000015F6 E8 [00000000]                   	CALL	_sprintf
  2362 000015FB 58                              	POP	EAX
  2363 000015FC 5A                              	POP	EDX
  2364 000015FD E9 FFFFFF54                     	JMP	L310
  2365 00001602                                 L318:
  2366 00001602 68 [000005EB]                   	PUSH	LC69
  2367 00001607 8D 45 94                        	LEA	EAX,DWORD [-108+EBP]
  2368 0000160A 50                              	PUSH	EAX
  2369 0000160B E8 [00000000]                   	CALL	_sprintf
  2370 00001610 59                              	POP	ECX
  2371 00001611 5E                              	POP	ESI
  2372 00001612 E9 FFFFFED0                     	JMP	L304
  2373 00001617                                 L317:
  2374 00001617 68 [000006DD]                   	PUSH	LC75
  2375 0000161C 8D 45 94                        	LEA	EAX,DWORD [-108+EBP]
  2376 0000161F 50                              	PUSH	EAX
  2377 00001620 E8 [00000000]                   	CALL	_sprintf
  2378 00001625 5F                              	POP	EDI
  2379 00001626 58                              	POP	EAX
  2380 00001627 E9 FFFFFEAC                     	JMP	L303
  2381 0000162C                                 L316:
  2382 0000162C 68 [000006E3]                   	PUSH	LC74
  2383 00001631 8D 45 94                        	LEA	EAX,DWORD [-108+EBP]
  2384 00001634 50                              	PUSH	EAX
  2385 00001635 E8 [00000000]                   	CALL	_sprintf
  2386 0000163A 58                              	POP	EAX
  2387 0000163B 5A                              	POP	EDX
  2388 0000163C E9 FFFFFE88                     	JMP	L302
  2389                                          [SECTION .data]
  2390 000006E9                                 LC80:
  2391 000006E9 49 6E 66 6F 72 6D 61 74 69 6F   	DB	"Information of SHEETCTL:",0x0A,0x00
       000006F3 6E 20 6F 66 20 53 48 45 45 54 
       000006FD 43 54 4C 3A 0A 00 
  2392 00000703                                 LC81:
  2393 00000703 76 72 61 6D 3A 25 70 0A 00      	DB	"vram:%p",0x0A,0x00
  2394 0000070C                                 LC82:
  2395 0000070C 6D 61 70 3A 20 25 64 20 0A 00   	DB	"map: %d ",0x0A,0x00
  2396 00000716                                 LC83:
  2397 00000716 78 73 69 7A 65 3A 20 25 64 20   	DB	"xsize: %d ",0x0A,0x00
       00000720 0A 00 
  2398 00000722                                 LC84:
  2399 00000722 79 73 69 7A 65 3A 20 25 64 20   	DB	"ysize: %d ",0x0A,0x00
       0000072C 0A 00 
  2400 0000072E                                 LC85:
  2401 0000072E 74 6F 70 3A 20 25 64 20 0A 00   	DB	"top: %d ",0x0A,0x00
  2402 00000738                                 LC86:
  2403 00000738 4E 6F 2E 20 62 75 66 20 20 20   	DB	"No. buf        bxsize bysize vx0    vy0    taskname  ",0x0A,0x00
       00000742 20 20 20 20 20 62 78 73 69 7A 
       0000074C 65 20 62 79 73 69 7A 65 20 76 
       00000756 78 30 20 20 20 20 76 79 30 20 
       00000760 20 20 20 74 61 73 6B 6E 61 6D 
       0000076A 65 20 20 0A 00 
  2404 0000076F                                 LC87:
  2405 0000076F 2D 2D 2D 20 2D 2D 2D 2D 2D 2D   	DB	"--- ---------- ------ ------ ------ ------ ----------",0x0A,0x00
       00000779 2D 2D 2D 2D 20 2D 2D 2D 2D 2D 
       00000783 2D 20 2D 2D 2D 2D 2D 2D 20 2D 
       0000078D 2D 2D 2D 2D 2D 20 2D 2D 2D 2D 
       00000797 2D 2D 20 2D 2D 2D 2D 2D 2D 2D 
       000007A1 2D 2D 2D 0A 00 
  2406 000007A6                                 LC90:
  2407 000007A6 25 33 64 20 25 31 30 64 20 25   	DB	"%3d %10d %6d %6d %6d %6d %-10s%X",0x0A,0x00
       000007B0 36 64 20 25 36 64 20 25 36 64 
       000007BA 20 25 36 64 20 25 2D 31 30 73 
       000007C4 25 58 0A 00 
  2408 000007C8                                 LC89:
  2409 000007C8 25 2D 31 30 73 00               	DB	"%-10s",0x00
  2410 000007CE                                 LC88:
  2411 000007CE 6E 5F 61 6C 6C 6F 63 00         	DB	"n_alloc",0x00
  2412                                          [SECTION .text]
  2413 00001641                                 	GLOBAL	_cmd_sheetlst
  2414 00001641                                 _cmd_sheetlst:
  2415 00001641 55                              	PUSH	EBP
  2416 00001642 89 E5                           	MOV	EBP,ESP
  2417 00001644 57                              	PUSH	EDI
  2418 00001645 56                              	PUSH	ESI
  2419 00001646 53                              	PUSH	EBX
  2420 00001647 8D 5D A4                        	LEA	EBX,DWORD [-92+EBP]
  2421 0000164A 83 EC 68                        	SUB	ESP,104
  2422 0000164D 68 [000006E9]                   	PUSH	LC80
  2423 00001652 FF 75 08                        	PUSH	DWORD [8+EBP]
  2424 00001655 E8 FFFFEE60                     	CALL	_cons_putstr0
  2425 0000165A 8B 35 000005E4                  	MOV	ESI,DWORD [1508]
  2426 00001660 C6 45 A4 00                     	MOV	BYTE [-92+EBP],0
  2427 00001664 FF 36                           	PUSH	DWORD [ESI]
  2428 00001666 68 [00000703]                   	PUSH	LC81
  2429 0000166B 53                              	PUSH	EBX
  2430 0000166C E8 [00000000]                   	CALL	_sprintf
  2431 00001671 53                              	PUSH	EBX
  2432 00001672 FF 75 08                        	PUSH	DWORD [8+EBP]
  2433 00001675 E8 FFFFEE40                     	CALL	_cons_putstr0
  2434 0000167A FF 76 04                        	PUSH	DWORD [4+ESI]
  2435 0000167D 68 [0000070C]                   	PUSH	LC82
  2436 00001682 53                              	PUSH	EBX
  2437 00001683 E8 [00000000]                   	CALL	_sprintf
  2438 00001688 83 C4 28                        	ADD	ESP,40
  2439 0000168B 53                              	PUSH	EBX
  2440 0000168C FF 75 08                        	PUSH	DWORD [8+EBP]
  2441 0000168F E8 FFFFEE26                     	CALL	_cons_putstr0
  2442 00001694 FF 76 08                        	PUSH	DWORD [8+ESI]
  2443 00001697 68 [00000716]                   	PUSH	LC83
  2444 0000169C 53                              	PUSH	EBX
  2445 0000169D E8 [00000000]                   	CALL	_sprintf
  2446 000016A2 53                              	PUSH	EBX
  2447 000016A3 FF 75 08                        	PUSH	DWORD [8+EBP]
  2448 000016A6 E8 FFFFEE0F                     	CALL	_cons_putstr0
  2449 000016AB FF 76 0C                        	PUSH	DWORD [12+ESI]
  2450 000016AE 68 [00000722]                   	PUSH	LC84
  2451 000016B3 53                              	PUSH	EBX
  2452 000016B4 E8 [00000000]                   	CALL	_sprintf
  2453 000016B9 83 C4 28                        	ADD	ESP,40
  2454 000016BC 53                              	PUSH	EBX
  2455 000016BD FF 75 08                        	PUSH	DWORD [8+EBP]
  2456 000016C0 E8 FFFFEDF5                     	CALL	_cons_putstr0
  2457 000016C5 FF 76 10                        	PUSH	DWORD [16+ESI]
  2458 000016C8 68 [0000072E]                   	PUSH	LC85
  2459 000016CD 53                              	PUSH	EBX
  2460 000016CE E8 [00000000]                   	CALL	_sprintf
  2461 000016D3 53                              	PUSH	EBX
  2462 000016D4 FF 75 08                        	PUSH	DWORD [8+EBP]
  2463 000016D7 E8 FFFFEDDE                     	CALL	_cons_putstr0
  2464 000016DC 68 [00000738]                   	PUSH	LC86
  2465 000016E1 FF 75 08                        	PUSH	DWORD [8+EBP]
  2466 000016E4 E8 FFFFEDD1                     	CALL	_cons_putstr0
  2467 000016E9 83 C4 24                        	ADD	ESP,36
  2468 000016EC 68 [0000076F]                   	PUSH	LC87
  2469 000016F1 FF 75 08                        	PUSH	DWORD [8+EBP]
  2470 000016F4 E8 FFFFEDC1                     	CALL	_cons_putstr0
  2471 000016F9 5F                              	POP	EDI
  2472 000016FA C7 45 90 00000000               	MOV	DWORD [-112+EBP],0
  2473 00001701 58                              	POP	EAX
  2474 00001702                                 L331:
  2475 00001702 C6 45 A4 00                     	MOV	BYTE [-92+EBP],0
  2476 00001706 83 BE 00000430 00               	CMP	DWORD [1072+ESI],0
  2477 0000170D 0F 84 00000087                  	JE	L325
  2478 00001713 C6 45 94 00                     	MOV	BYTE [-108+EBP],0
  2479 00001717 83 BE 00000430 01               	CMP	DWORD [1072+ESI],1
  2480 0000171E 0F 84 000000CA                  	JE	L334
  2481 00001724                                 L328:
  2482 00001724 83 BE 00000430 00               	CMP	DWORD [1072+ESI],0
  2483 0000172B 0F 84 000000A8                  	JE	L335
  2484 00001731                                 L329:
  2485 00001731 8D 86 00000430                  	LEA	EAX,DWORD [1072+ESI]
  2486 00001737 89 45 8C                        	MOV	DWORD [-116+EBP],EAX
  2487 0000173A 8B 86 00000438                  	MOV	EAX,DWORD [1080+ESI]
  2488 00001740 85 C0                           	TEST	EAX,EAX
  2489 00001742 75 79                           	JNE	L336
  2490 00001744                                 L330:
  2491 00001744 FC                              	CLD
  2492 00001745 31 C0                           	XOR	EAX,EAX
  2493 00001747 8D 7D A4                        	LEA	EDI,DWORD [-92+EBP]
  2494 0000174A B9 00000014                     	MOV	ECX,20
  2495 0000174F 8D 5D A4                        	LEA	EBX,DWORD [-92+EBP]
  2496 00001752 F3                              	REP
  2497 00001753 AB                              	STOSD
  2498 00001754 8B 45 8C                        	MOV	EAX,DWORD [-116+EBP]
  2499 00001757 FF 70 0C                        	PUSH	DWORD [12+EAX]
  2500 0000175A 8D 45 94                        	LEA	EAX,DWORD [-108+EBP]
  2501 0000175D 50                              	PUSH	EAX
  2502 0000175E 8B 45 90                        	MOV	EAX,DWORD [-112+EBP]
  2503 00001761 FF B6 00000424                  	PUSH	DWORD [1060+ESI]
  2504 00001767 FF B6 00000420                  	PUSH	DWORD [1056+ESI]
  2505 0000176D FF B6 0000041C                  	PUSH	DWORD [1052+ESI]
  2506 00001773 FF B6 00000418                  	PUSH	DWORD [1048+ESI]
  2507 00001779 FF B6 00000414                  	PUSH	DWORD [1044+ESI]
  2508 0000177F 40                              	INC	EAX
  2509 00001780 50                              	PUSH	EAX
  2510 00001781 68 [000007A6]                   	PUSH	LC90
  2511 00001786 53                              	PUSH	EBX
  2512 00001787 E8 [00000000]                   	CALL	_sprintf
  2513 0000178C 83 C4 28                        	ADD	ESP,40
  2514 0000178F 53                              	PUSH	EBX
  2515 00001790 FF 75 08                        	PUSH	DWORD [8+EBP]
  2516 00001793 E8 FFFFED22                     	CALL	_cons_putstr0
  2517 00001798 5F                              	POP	EDI
  2518 00001799 58                              	POP	EAX
  2519 0000179A                                 L325:
  2520 0000179A FF 45 90                        	INC	DWORD [-112+EBP]
  2521 0000179D 83 C6 2C                        	ADD	ESI,44
  2522 000017A0 81 7D 90 000000FF               	CMP	DWORD [-112+EBP],255
  2523 000017A7 0F 8E FFFFFF55                  	JLE	L331
  2524 000017AD FF 75 08                        	PUSH	DWORD [8+EBP]
  2525 000017B0 E8 FFFFEC07                     	CALL	_cons_newline
  2526 000017B5 8D 65 F4                        	LEA	ESP,DWORD [-12+EBP]
  2527 000017B8 5B                              	POP	EBX
  2528 000017B9 5E                              	POP	ESI
  2529 000017BA 5F                              	POP	EDI
  2530 000017BB 5D                              	POP	EBP
  2531 000017BC C3                              	RET
  2532 000017BD                                 L336:
  2533 000017BD 05 000000BE                     	ADD	EAX,190
  2534 000017C2 50                              	PUSH	EAX
  2535 000017C3 8D 45 94                        	LEA	EAX,DWORD [-108+EBP]
  2536 000017C6 68 [000007C8]                   	PUSH	LC89
  2537 000017CB 50                              	PUSH	EAX
  2538 000017CC E8 [00000000]                   	CALL	_sprintf
  2539 000017D1 83 C4 0C                        	ADD	ESP,12
  2540 000017D4 E9 FFFFFF6B                     	JMP	L330
  2541 000017D9                                 L335:
  2542 000017D9 68 [000005EB]                   	PUSH	LC69
  2543 000017DE 8D 45 94                        	LEA	EAX,DWORD [-108+EBP]
  2544 000017E1 50                              	PUSH	EAX
  2545 000017E2 E8 [00000000]                   	CALL	_sprintf
  2546 000017E7 58                              	POP	EAX
  2547 000017E8 5A                              	POP	EDX
  2548 000017E9 E9 FFFFFF43                     	JMP	L329
  2549 000017EE                                 L334:
  2550 000017EE 68 [000007CE]                   	PUSH	LC88
  2551 000017F3 8D 45 94                        	LEA	EAX,DWORD [-108+EBP]
  2552 000017F6 50                              	PUSH	EAX
  2553 000017F7 E8 [00000000]                   	CALL	_sprintf
  2554 000017FC 59                              	POP	ECX
  2555 000017FD 5B                              	POP	EBX
  2556 000017FE E9 FFFFFF21                     	JMP	L328
  2557                                          [SECTION .data]
  2558 000007D6                                 LC92:
  2559 000007D6 2F 00                           	DB	"/",0x00
  2560 000007D8                                 LC91:
  2561 000007D8 4E 6F 20 73 75 63 68 20 64 69   	DB	"No such directory.",0x0A,0x0A,0x00
       000007E2 72 65 63 74 6F 72 79 2E 0A 0A 
       000007EC 00 
  2562                                          [SECTION .text]
  2563 00001803                                 	GLOBAL	_cmd_cd
  2564 00001803                                 _cmd_cd:
  2565 00001803 55                              	PUSH	EBP
  2566 00001804 89 E5                           	MOV	EBP,ESP
  2567 00001806 57                              	PUSH	EDI
  2568 00001807 56                              	PUSH	ESI
  2569 00001808 53                              	PUSH	EBX
  2570 00001809 8D 9D FFFFFEF4                  	LEA	EBX,DWORD [-268+EBP]
  2571 0000180F 81 EC 00000100                  	SUB	ESP,256
  2572 00001815 8B 45 0C                        	MOV	EAX,DWORD [12+EBP]
  2573 00001818 68 00000100                     	PUSH	256
  2574 0000181D 83 C0 03                        	ADD	EAX,3
  2575 00001820 50                              	PUSH	EAX
  2576 00001821 53                              	PUSH	EBX
  2577 00001822 E8 [00000000]                   	CALL	_file_path
  2578 00001827 83 C4 0C                        	ADD	ESP,12
  2579 0000182A 80 BD FFFFFEF4 00               	CMP	BYTE [-268+EBP],0
  2580 00001831 0F 84 000000BB                  	JE	L344
  2581 00001837 FC                              	CLD
  2582 00001838 89 DE                           	MOV	ESI,EBX
  2583 0000183A BF [000007D6]                   	MOV	EDI,LC92
  2584 0000183F B9 00000002                     	MOV	ECX,2
  2585 00001844 F3                              	REPE
  2586 00001845 A6                              	CMPSB
  2587 00001846 0F 92 C0                        	SETB	AL
  2588 00001849 0F 97 C2                        	SETA	DL
  2589 0000184C 28 C2                           	SUB	DL,AL
  2590 0000184E 0F BE C2                        	MOVSX	EAX,DL
  2591 00001851 85 C0                           	TEST	EAX,EAX
  2592 00001853 75 1B                           	JNE	L339
  2593 00001855 BF [00000000]                   	MOV	EDI,_current_path
  2594 0000185A B9 00000040                     	MOV	ECX,64
  2595 0000185F F3                              	REP
  2596 00001860 AB                              	STOSD
  2597 00001861 C6 05 [00000000] 2F             	MOV	BYTE [_current_path],47
  2598 00001868                                 L337:
  2599 00001868 8D 65 F4                        	LEA	ESP,DWORD [-12+EBP]
  2600 0000186B 5B                              	POP	EBX
  2601 0000186C 5E                              	POP	ESI
  2602 0000186D 5F                              	POP	EDI
  2603 0000186E 5D                              	POP	EBP
  2604 0000186F C3                              	RET
  2605 00001870                                 L339:
  2606 00001870 FF 75 10                        	PUSH	DWORD [16+EBP]
  2607 00001873 68 000000E0                     	PUSH	224
  2608 00001878 68 00102600                     	PUSH	1058304
  2609 0000187D 53                              	PUSH	EBX
  2610 0000187E E8 [00000000]                   	CALL	_file_search2
  2611 00001883 83 C4 10                        	ADD	ESP,16
  2612 00001886 85 C0                           	TEST	EAX,EAX
  2613 00001888 74 0A                           	JE	L341
  2614 0000188A 8A 40 0B                        	MOV	AL,BYTE [11+EAX]
  2615 0000188D 83 E0 10                        	AND	EAX,16
  2616 00001890 84 C0                           	TEST	AL,AL
  2617 00001892 75 11                           	JNE	L345
  2618 00001894                                 L341:
  2619 00001894 68 [000007D8]                   	PUSH	LC91
  2620 00001899 FF 75 08                        	PUSH	DWORD [8+EBP]
  2621 0000189C E8 FFFFEC19                     	CALL	_cons_putstr0
  2622 000018A1 58                              	POP	EAX
  2623 000018A2 5A                              	POP	EDX
  2624 000018A3 EB C3                           	JMP	L337
  2625 000018A5                                 L345:
  2626 000018A5 FC                              	CLD
  2627 000018A6 31 C0                           	XOR	EAX,EAX
  2628 000018A8 BF [00000000]                   	MOV	EDI,_current_path
  2629 000018AD B9 00000040                     	MOV	ECX,64
  2630 000018B2 F3                              	REP
  2631 000018B3 AB                              	STOSD
  2632 000018B4 53                              	PUSH	EBX
  2633 000018B5 BF [00000000]                   	MOV	EDI,_current_path
  2634 000018BA 68 [00000000]                   	PUSH	_current_path
  2635 000018BF E8 [00000000]                   	CALL	_strcpy
  2636 000018C4 5B                              	POP	EBX
  2637 000018C5 83 CA FF                        	OR	EDX,-1
  2638 000018C8 31 C0                           	XOR	EAX,EAX
  2639 000018CA FC                              	CLD
  2640 000018CB 89 D1                           	MOV	ECX,EDX
  2641 000018CD 5E                              	POP	ESI
  2642 000018CE F2                              	REPNE
  2643 000018CF AE                              	SCASB
  2644 000018D0 F7 D1                           	NOT	ECX
  2645 000018D2 80 B9 [FFFFFFFE] 2F             	CMP	BYTE [_current_path-2+ECX],47
  2646 000018D9 74 8D                           	JE	L337
  2647 000018DB BF [00000000]                   	MOV	EDI,_current_path
  2648 000018E0 89 D1                           	MOV	ECX,EDX
  2649 000018E2 F2                              	REPNE
  2650 000018E3 AE                              	SCASB
  2651 000018E4 F7 D1                           	NOT	ECX
  2652 000018E6 C6 81 [FFFFFFFF] 2F             	MOV	BYTE [_current_path-1+ECX],47
  2653 000018ED E9 FFFFFF76                     	JMP	L337
  2654 000018F2                                 L344:
  2655 000018F2 68 [000007D8]                   	PUSH	LC91
  2656 000018F7 FF 75 08                        	PUSH	DWORD [8+EBP]
  2657 000018FA E8 FFFFEBBB                     	CALL	_cons_putstr0
  2658 000018FF E9 FFFFFF64                     	JMP	L337
  2659 00001904                                 	GLOBAL	_cmd_md
  2660 00001904                                 _cmd_md:
  2661 00001904 55                              	PUSH	EBP
  2662 00001905 89 E5                           	MOV	EBP,ESP
  2663 00001907 5D                              	POP	EBP
  2664 00001908 C3                              	RET
  2665 00001909                                 	GLOBAL	_cmd_rd
  2666 00001909                                 _cmd_rd:
  2667 00001909 55                              	PUSH	EBP
  2668 0000190A 89 E5                           	MOV	EBP,ESP
  2669 0000190C 5D                              	POP	EBP
  2670 0000190D C3                              	RET
  2671 0000190E                                 	GLOBAL	_cmd_del
  2672 0000190E                                 _cmd_del:
  2673 0000190E 55                              	PUSH	EBP
  2674 0000190F 89 E5                           	MOV	EBP,ESP
  2675 00001911 5D                              	POP	EBP
  2676 00001912 C3                              	RET
  2677 00001913                                 	GLOBAL	_cmd_pwd
  2678 00001913                                 _cmd_pwd:
  2679 00001913 55                              	PUSH	EBP
  2680 00001914 31 C0                           	XOR	EAX,EAX
  2681 00001916 89 E5                           	MOV	EBP,ESP
  2682 00001918 B9 00000040                     	MOV	ECX,64
  2683 0000191D 57                              	PUSH	EDI
  2684 0000191E 53                              	PUSH	EBX
  2685 0000191F 8D BD FFFFFEF8                  	LEA	EDI,DWORD [-264+EBP]
  2686 00001925 FC                              	CLD
  2687 00001926 81 EC 00000100                  	SUB	ESP,256
  2688 0000192C 8B 5D 08                        	MOV	EBX,DWORD [8+EBP]
  2689 0000192F F3                              	REP
  2690 00001930 AB                              	STOSD
  2691 00001931 68 000000FF                     	PUSH	255
  2692 00001936 8D BD FFFFFEF8                  	LEA	EDI,DWORD [-264+EBP]
  2693 0000193C 68 [00000000]                   	PUSH	_current_path
  2694 00001941 57                              	PUSH	EDI
  2695 00001942 E8 [00000000]                   	CALL	_strncpy
  2696 00001947 83 C4 0C                        	ADD	ESP,12
  2697 0000194A FC                              	CLD
  2698 0000194B 31 C0                           	XOR	EAX,EAX
  2699 0000194D 83 C9 FF                        	OR	ECX,-1
  2700 00001950 F2                              	REPNE
  2701 00001951 AE                              	SCASB
  2702 00001952 F7 D1                           	NOT	ECX
  2703 00001954 8D 41 FF                        	LEA	EAX,DWORD [-1+ECX]
  2704 00001957 83 F8 01                        	CMP	EAX,1
  2705 0000195A 7E 27                           	JLE	L350
  2706 0000195C C6 84 05 FFFFFEF7 0A            	MOV	BYTE [-265+EBP+EAX*1],10
  2707 00001964                                 L351:
  2708 00001964 8D 85 FFFFFEF8                  	LEA	EAX,DWORD [-264+EBP]
  2709 0000196A 50                              	PUSH	EAX
  2710 0000196B 53                              	PUSH	EBX
  2711 0000196C E8 FFFFEB49                     	CALL	_cons_putstr0
  2712 00001971 68 [00000374]                   	PUSH	LC48
  2713 00001976 53                              	PUSH	EBX
  2714 00001977 E8 FFFFEB3E                     	CALL	_cons_putstr0
  2715 0000197C 8D 65 F8                        	LEA	ESP,DWORD [-8+EBP]
  2716 0000197F 5B                              	POP	EBX
  2717 00001980 5F                              	POP	EDI
  2718 00001981 5D                              	POP	EBP
  2719 00001982 C3                              	RET
  2720 00001983                                 L350:
  2721 00001983 C6 85 FFFFFEF9 0A               	MOV	BYTE [-263+EBP],10
  2722 0000198A EB D8                           	JMP	L351
  2723                                          [SECTION .data]
  2724 000007ED                                 LC93:
  2725 000007ED 48 61 72 69 00                  	DB	"Hari",0x00
  2726 000007F2                                 LC94:
  2727 000007F2 2E 68 72 62 20 66 69 6C 65 20   	DB	".hrb file format error.",0x0A,0x00
       000007FC 66 6F 72 6D 61 74 20 65 72 72 
       00000806 6F 72 2E 0A 00 
  2728                                          [SECTION .text]
  2729 0000198C                                 	GLOBAL	_cmd_app
  2730 0000198C                                 _cmd_app:
  2731 0000198C 55                              	PUSH	EBP
  2732 0000198D 89 E5                           	MOV	EBP,ESP
  2733 0000198F 57                              	PUSH	EDI
  2734 00001990 56                              	PUSH	ESI
  2735 00001991 31 F6                           	XOR	ESI,ESI
  2736 00001993 53                              	PUSH	EBX
  2737 00001994 83 EC 34                        	SUB	ESP,52
  2738 00001997 8B 5D 10                        	MOV	EBX,DWORD [16+EBP]
  2739 0000199A E8 [00000000]                   	CALL	_task_now
  2740 0000199F 89 45 C8                        	MOV	DWORD [-56+EBP],EAX
  2741 000019A2                                 L358:
  2742 000019A2 8A 04 1E                        	MOV	AL,BYTE [ESI+EBX*1]
  2743 000019A5 3C 20                           	CMP	AL,32
  2744 000019A7 7E 0A                           	JLE	L354
  2745 000019A9 88 44 35 D4                     	MOV	BYTE [-44+EBP+ESI*1],AL
  2746 000019AD 46                              	INC	ESI
  2747 000019AE 83 FE 0C                        	CMP	ESI,12
  2748 000019B1 7E EF                           	JLE	L358
  2749 000019B3                                 L354:
  2750 000019B3 68 000000E0                     	PUSH	224
  2751 000019B8 8D 5D D4                        	LEA	EBX,DWORD [-44+EBP]
  2752 000019BB 68 00102600                     	PUSH	1058304
  2753 000019C0 53                              	PUSH	EBX
  2754 000019C1 C6 44 35 D4 00                  	MOV	BYTE [-44+EBP+ESI*1],0
  2755 000019C6 E8 [00000000]                   	CALL	_file_search
  2756 000019CB 83 C4 0C                        	ADD	ESP,12
  2757 000019CE 89 C2                           	MOV	EDX,EAX
  2758 000019D0 85 C0                           	TEST	EAX,EAX
  2759 000019D2 0F 84 000001B6                  	JE	L388
  2760 000019D8                                 L387:
  2761 000019D8 8B 42 1C                        	MOV	EAX,DWORD [28+EDX]
  2762 000019DB 89 45 D0                        	MOV	DWORD [-48+EBP],EAX
  2763 000019DE 8D 45 D0                        	LEA	EAX,DWORD [-48+EBP]
  2764 000019E1 FF 75 0C                        	PUSH	DWORD [12+EBP]
  2765 000019E4 50                              	PUSH	EAX
  2766 000019E5 0F B7 42 1A                     	MOVZX	EAX,WORD [26+EDX]
  2767 000019E9 50                              	PUSH	EAX
  2768 000019EA E8 [00000000]                   	CALL	_file_loadfile2
  2769 000019EF 83 C4 0C                        	ADD	ESP,12
  2770 000019F2 83 7D D0 23                     	CMP	DWORD [-48+EBP],35
  2771 000019F6 89 45 CC                        	MOV	DWORD [-52+EBP],EAX
  2772 000019F9 7E 1C                           	JLE	L361
  2773 000019FB 89 C6                           	MOV	ESI,EAX
  2774 000019FD BF [000007ED]                   	MOV	EDI,LC93
  2775 00001A02 FC                              	CLD
  2776 00001A03 83 C6 04                        	ADD	ESI,4
  2777 00001A06 B9 00000004                     	MOV	ECX,4
  2778 00001A0B F3                              	REPE
  2779 00001A0C A6                              	CMPSB
  2780 00001A0D 75 08                           	JNE	L361
  2781 00001A0F 8B 45 CC                        	MOV	EAX,DWORD [-52+EBP]
  2782 00001A12 80 38 00                        	CMP	BYTE [EAX],0
  2783 00001A15 74 34                           	JE	L389
  2784 00001A17                                 L361:
  2785 00001A17 68 [000007F2]                   	PUSH	LC94
  2786 00001A1C FF 75 08                        	PUSH	DWORD [8+EBP]
  2787 00001A1F E8 FFFFEA96                     	CALL	_cons_putstr0
  2788 00001A24 5F                              	POP	EDI
  2789 00001A25 58                              	POP	EAX
  2790 00001A26                                 L379:
  2791 00001A26 FF 75 D0                        	PUSH	DWORD [-48+EBP]
  2792 00001A29 FF 75 CC                        	PUSH	DWORD [-52+EBP]
  2793 00001A2C 68 003C0000                     	PUSH	3932160
  2794 00001A31 E8 [00000000]                   	CALL	_memman_free_4k
  2795 00001A36 FF 75 08                        	PUSH	DWORD [8+EBP]
  2796 00001A39 E8 FFFFE97E                     	CALL	_cons_newline
  2797 00001A3E B8 00000001                     	MOV	EAX,1
  2798 00001A43                                 L352:
  2799 00001A43 8D 65 F4                        	LEA	ESP,DWORD [-12+EBP]
  2800 00001A46 5B                              	POP	EBX
  2801 00001A47 5E                              	POP	ESI
  2802 00001A48 5F                              	POP	EDI
  2803 00001A49 5D                              	POP	EBP
  2804 00001A4A C3                              	RET
  2805 00001A4B                                 L389:
  2806 00001A4B 8B 10                           	MOV	EDX,DWORD [EAX]
  2807 00001A4D 8B 40 0C                        	MOV	EAX,DWORD [12+EAX]
  2808 00001A50 89 55 C4                        	MOV	DWORD [-60+EBP],EDX
  2809 00001A53 89 45 C0                        	MOV	DWORD [-64+EBP],EAX
  2810 00001A56 8B 55 CC                        	MOV	EDX,DWORD [-52+EBP]
  2811 00001A59 8B 5A 10                        	MOV	EBX,DWORD [16+EDX]
  2812 00001A5C 8B 72 14                        	MOV	ESI,DWORD [20+EDX]
  2813 00001A5F FF 75 C4                        	PUSH	DWORD [-60+EBP]
  2814 00001A62 68 003C0000                     	PUSH	3932160
  2815 00001A67 E8 [00000000]                   	CALL	_memman_alloc_4k
  2816 00001A6C 89 C7                           	MOV	EDI,EAX
  2817 00001A6E 8B 45 C8                        	MOV	EAX,DWORD [-56+EBP]
  2818 00001A71 89 B8 000000A8                  	MOV	DWORD [168+EAX],EDI
  2819 00001A77 8B 45 D0                        	MOV	EAX,DWORD [-48+EBP]
  2820 00001A7A 68 000040FA                     	PUSH	16634
  2821 00001A7F 48                              	DEC	EAX
  2822 00001A80 FF 75 CC                        	PUSH	DWORD [-52+EBP]
  2823 00001A83 50                              	PUSH	EAX
  2824 00001A84 8B 45 C8                        	MOV	EAX,DWORD [-56+EBP]
  2825 00001A87 05 00000094                     	ADD	EAX,148
  2826 00001A8C 50                              	PUSH	EAX
  2827 00001A8D E8 [00000000]                   	CALL	_set_segmdesc
  2828 00001A92 8B 45 C4                        	MOV	EAX,DWORD [-60+EBP]
  2829 00001A95 68 000040F2                     	PUSH	16626
  2830 00001A9A 48                              	DEC	EAX
  2831 00001A9B 57                              	PUSH	EDI
  2832 00001A9C 50                              	PUSH	EAX
  2833 00001A9D 8B 45 C8                        	MOV	EAX,DWORD [-56+EBP]
  2834 00001AA0 05 0000009C                     	ADD	EAX,156
  2835 00001AA5 50                              	PUSH	EAX
  2836 00001AA6 E8 [00000000]                   	CALL	_set_segmdesc
  2837 00001AAB 83 C4 28                        	ADD	ESP,40
  2838 00001AAE 85 DB                           	TEST	EBX,EBX
  2839 00001AB0 7E 16                           	JLE	L382
  2840 00001AB2 8B 45 CC                        	MOV	EAX,DWORD [-52+EBP]
  2841 00001AB5 8B 4D C0                        	MOV	ECX,DWORD [-64+EBP]
  2842 00001AB8 01 F9                           	ADD	ECX,EDI
  2843 00001ABA 8D 14 30                        	LEA	EDX,DWORD [EAX+ESI*1]
  2844 00001ABD 89 DE                           	MOV	ESI,EBX
  2845 00001ABF                                 L366:
  2846 00001ABF 8A 02                           	MOV	AL,BYTE [EDX]
  2847 00001AC1 42                              	INC	EDX
  2848 00001AC2 88 01                           	MOV	BYTE [ECX],AL
  2849 00001AC4 41                              	INC	ECX
  2850 00001AC5 4E                              	DEC	ESI
  2851 00001AC6 75 F7                           	JNE	L366
  2852 00001AC8                                 L382:
  2853 00001AC8 8B 45 C8                        	MOV	EAX,DWORD [-56+EBP]
  2854 00001ACB BE 000000FF                     	MOV	ESI,255
  2855 00001AD0 83 C0 30                        	ADD	EAX,48
  2856 00001AD3 50                              	PUSH	EAX
  2857 00001AD4 6A 0C                           	PUSH	12
  2858 00001AD6 FF 75 C0                        	PUSH	DWORD [-64+EBP]
  2859 00001AD9 6A 04                           	PUSH	4
  2860 00001ADB 6A 1B                           	PUSH	27
  2861 00001ADD E8 [00000000]                   	CALL	_start_app
  2862 00001AE2 8B 1D 000005E4                  	MOV	EBX,DWORD [1508]
  2863 00001AE8 83 C4 14                        	ADD	ESP,20
  2864 00001AEB 81 C3 00000414                  	ADD	EBX,1044
  2865 00001AF1                                 L372:
  2866 00001AF1 8B 43 1C                        	MOV	EAX,DWORD [28+EBX]
  2867 00001AF4 83 E0 11                        	AND	EAX,17
  2868 00001AF7 83 F8 11                        	CMP	EAX,17
  2869 00001AFA 74 7A                           	JE	L390
  2870 00001AFC                                 L369:
  2871 00001AFC 83 C3 2C                        	ADD	EBX,44
  2872 00001AFF 4E                              	DEC	ESI
  2873 00001B00 79 EF                           	JNS	L372
  2874 00001B02 31 DB                           	XOR	EBX,EBX
  2875 00001B04 BE 00000007                     	MOV	ESI,7
  2876 00001B09                                 L378:
  2877 00001B09 8B 55 C8                        	MOV	EDX,DWORD [-56+EBP]
  2878 00001B0C 8B 82 000000B0                  	MOV	EAX,DWORD [176+EDX]
  2879 00001B12 83 3C 18 00                     	CMP	DWORD [EAX+EBX*1],0
  2880 00001B16 75 32                           	JNE	L391
  2881 00001B18                                 L375:
  2882 00001B18 83 C3 1C                        	ADD	EBX,28
  2883 00001B1B 4E                              	DEC	ESI
  2884 00001B1C 79 EB                           	JNS	L378
  2885 00001B1E 8B 45 C8                        	MOV	EAX,DWORD [-56+EBP]
  2886 00001B21 83 C0 10                        	ADD	EAX,16
  2887 00001B24 50                              	PUSH	EAX
  2888 00001B25 E8 [00000000]                   	CALL	_timer_cancelall
  2889 00001B2A FF 75 C4                        	PUSH	DWORD [-60+EBP]
  2890 00001B2D 57                              	PUSH	EDI
  2891 00001B2E 68 003C0000                     	PUSH	3932160
  2892 00001B33 E8 [00000000]                   	CALL	_memman_free_4k
  2893 00001B38 83 C4 10                        	ADD	ESP,16
  2894 00001B3B 8B 45 C8                        	MOV	EAX,DWORD [-56+EBP]
  2895 00001B3E C6 80 000000BD 00               	MOV	BYTE [189+EAX],0
  2896 00001B45 E9 FFFFFEDC                     	JMP	L379
  2897 00001B4A                                 L391:
  2898 00001B4A FF 74 18 04                     	PUSH	DWORD [4+EAX+EBX*1]
  2899 00001B4E 8B 82 000000B0                  	MOV	EAX,DWORD [176+EDX]
  2900 00001B54 FF 34 18                        	PUSH	DWORD [EAX+EBX*1]
  2901 00001B57 68 003C0000                     	PUSH	3932160
  2902 00001B5C E8 [00000000]                   	CALL	_memman_free_4k
  2903 00001B61 83 C4 0C                        	ADD	ESP,12
  2904 00001B64 8B 55 C8                        	MOV	EDX,DWORD [-56+EBP]
  2905 00001B67 8B 82 000000B0                  	MOV	EAX,DWORD [176+EDX]
  2906 00001B6D C7 04 18 00000000               	MOV	DWORD [EAX+EBX*1],0
  2907 00001B74 EB A2                           	JMP	L375
  2908 00001B76                                 L390:
  2909 00001B76 8B 55 C8                        	MOV	EDX,DWORD [-56+EBP]
  2910 00001B79 39 53 24                        	CMP	DWORD [36+EBX],EDX
  2911 00001B7C 0F 85 FFFFFF7A                  	JNE	L369
  2912 00001B82 53                              	PUSH	EBX
  2913 00001B83 E8 [00000000]                   	CALL	_sheet_free
  2914 00001B88 58                              	POP	EAX
  2915 00001B89 E9 FFFFFF6E                     	JMP	L369
  2916 00001B8E                                 L388:
  2917 00001B8E 80 7C 35 D3 2E                  	CMP	BYTE [-45+EBP+ESI*1],46
  2918 00001B93 74 2E                           	JE	L359
  2919 00001B95 68 000000E0                     	PUSH	224
  2920 00001B9A 68 00102600                     	PUSH	1058304
  2921 00001B9F 53                              	PUSH	EBX
  2922 00001BA0 C6 44 35 D4 2E                  	MOV	BYTE [-44+EBP+ESI*1],46
  2923 00001BA5 C6 44 35 D5 48                  	MOV	BYTE [-43+EBP+ESI*1],72
  2924 00001BAA C6 44 35 D6 52                  	MOV	BYTE [-42+EBP+ESI*1],82
  2925 00001BAF C6 44 35 D7 42                  	MOV	BYTE [-41+EBP+ESI*1],66
  2926 00001BB4 C6 44 35 D8 00                  	MOV	BYTE [-40+EBP+ESI*1],0
  2927 00001BB9 E8 [00000000]                   	CALL	_file_search
  2928 00001BBE 83 C4 0C                        	ADD	ESP,12
  2929 00001BC1 89 C2                           	MOV	EDX,EAX
  2930 00001BC3                                 L359:
  2931 00001BC3 85 D2                           	TEST	EDX,EDX
  2932 00001BC5 0F 85 FFFFFE0D                  	JNE	L387
  2933 00001BCB 31 C0                           	XOR	EAX,EAX
  2934 00001BCD E9 FFFFFE71                     	JMP	L352
  2935                                          [SECTION .data]
  2936 0000080B                                 LC99:
  2937 0000080B 61 70 69 00                     	DB	"api",0x00
  2938 0000080F                                 LC95:
  2939 0000080F 49 4E 54 20 30 78 34 30 20 35   	DB	"INT 0x40 5<start>",0x0A,0x00
       00000819 3C 73 74 61 72 74 3E 0A 00 
  2940 00000822                                 LC96:
  2941 00000822 49 4E 54 20 30 78 34 30 20 35   	DB	"INT 0x40 5[make_window8]<start>",0x0A,0x00
       0000082C 5B 6D 61 6B 65 5F 77 69 6E 64 
       00000836 6F 77 38 5D 3C 73 74 61 72 74 
       00000840 3E 0A 00 
  2942 00000843                                 LC97:
  2943 00000843 49 4E 54 20 30 78 34 30 20 35   	DB	"INT 0x40 5[make_window8]< end >",0x0A,0x00
       0000084D 5B 6D 61 6B 65 5F 77 69 6E 64 
       00000857 6F 77 38 5D 3C 20 65 6E 64 20 
       00000861 3E 0A 00 
  2944 00000864                                 LC98:
  2945 00000864 49 4E 54 20 30 78 34 30 20 35   	DB	"INT 0x40 5< end >",0x0A,0x00
       0000086E 3C 20 65 6E 64 20 3E 0A 00 
  2946                                          [SECTION .text]
  2947 00001BD2                                 	GLOBAL	_hrb_api
  2948 00001BD2                                 _hrb_api:
  2949 00001BD2 55                              	PUSH	EBP
  2950 00001BD3 89 E5                           	MOV	EBP,ESP
  2951 00001BD5 57                              	PUSH	EDI
  2952 00001BD6 56                              	PUSH	ESI
  2953 00001BD7 53                              	PUSH	EBX
  2954 00001BD8 83 EC 14                        	SUB	ESP,20
  2955 00001BDB 8B 5D 1C                        	MOV	EBX,DWORD [28+EBP]
  2956 00001BDE 8B 75 10                        	MOV	ESI,DWORD [16+EBP]
  2957 00001BE1 E8 [00000000]                   	CALL	_task_now
  2958 00001BE6 83 FB 01                        	CMP	EBX,1
  2959 00001BE9 8B 0D 000005E4                  	MOV	ECX,DWORD [1508]
  2960 00001BEF 89 45 F0                        	MOV	DWORD [-16+EBP],EAX
  2961 00001BF2 89 4D E8                        	MOV	DWORD [-24+EBP],ECX
  2962 00001BF5 8B 80 000000A8                  	MOV	EAX,DWORD [168+EAX]
  2963 00001BFB 8B 55 F0                        	MOV	EDX,DWORD [-16+EBP]
  2964 00001BFE 89 45 EC                        	MOV	DWORD [-20+EBP],EAX
  2965 00001C01 A1 000005EC                     	MOV	EAX,DWORD [1516]
  2966 00001C06 8B BA 000000A4                  	MOV	EDI,DWORD [164+EDX]
  2967 00001C0C 89 45 E4                        	MOV	DWORD [-28+EBP],EAX
  2968 00001C0F 0F 84 00000726                  	JE	L509
  2969 00001C15 83 FB 02                        	CMP	EBX,2
  2970 00001C18 0F 84 0000070B                  	JE	L510
  2971 00001C1E 83 FB 03                        	CMP	EBX,3
  2972 00001C21 0F 84 000006ED                  	JE	L511
  2973 00001C27 83 FB 04                        	CMP	EBX,4
  2974 00001C2A 0F 84 000006D9                  	JE	L512
  2975 00001C30 83 FB 05                        	CMP	EBX,5
  2976 00001C33 0F 84 00000604                  	JE	L513
  2977 00001C39 83 FB 06                        	CMP	EBX,6
  2978 00001C3C 0F 84 000005AD                  	JE	L514
  2979 00001C42 83 FB 07                        	CMP	EBX,7
  2980 00001C45 0F 84 0000056D                  	JE	L515
  2981 00001C4B 83 FB 08                        	CMP	EBX,8
  2982 00001C4E 0F 84 00000540                  	JE	L516
  2983 00001C54 83 FB 09                        	CMP	EBX,9
  2984 00001C57 0F 84 00000519                  	JE	L517
  2985 00001C5D 83 FB 0A                        	CMP	EBX,10
  2986 00001C60 0F 84 000004F2                  	JE	L518
  2987 00001C66 83 FB 0B                        	CMP	EBX,11
  2988 00001C69 0F 84 000004A9                  	JE	L519
  2989 00001C6F 83 FB 0C                        	CMP	EBX,12
  2990 00001C72 0F 84 0000048F                  	JE	L520
  2991 00001C78 83 FB 0D                        	CMP	EBX,13
  2992 00001C7B 0F 84 00000415                  	JE	L521
  2993 00001C81 83 FB 0E                        	CMP	EBX,14
  2994 00001C84 0F 84 000003FF                  	JE	L522
  2995 00001C8A 83 FB 0F                        	CMP	EBX,15
  2996 00001C8D 0F 84 0000030E                  	JE	L429
  2997 00001C93 83 FB 10                        	CMP	EBX,16
  2998 00001C96 0F 84 000002F2                  	JE	L523
  2999 00001C9C 83 FB 11                        	CMP	EBX,17
  3000 00001C9F 0F 84 000002CC                  	JE	L524
  3001 00001CA5 83 FB 12                        	CMP	EBX,18
  3002 00001CA8 0F 84 000002B1                  	JE	L525
  3003 00001CAE 83 FB 13                        	CMP	EBX,19
  3004 00001CB1 0F 84 0000029A                  	JE	L526
  3005 00001CB7 83 FB 14                        	CMP	EBX,20
  3006 00001CBA 0F 84 0000021E                  	JE	L527
  3007 00001CC0 83 FB 15                        	CMP	EBX,21
  3008 00001CC3 0F 84 00000192                  	JE	L528
  3009 00001CC9 83 FB 16                        	CMP	EBX,22
  3010 00001CCC 0F 84 00000169                  	JE	L529
  3011 00001CD2 83 FB 17                        	CMP	EBX,23
  3012 00001CD5 0F 84 00000112                  	JE	L530
  3013 00001CDB 83 FB 18                        	CMP	EBX,24
  3014 00001CDE 0F 84 000000D8                  	JE	L531
  3015 00001CE4 83 FB 19                        	CMP	EBX,25
  3016 00001CE7 0F 84 000000A4                  	JE	L532
  3017 00001CED 83 FB 1A                        	CMP	EBX,26
  3018 00001CF0 74 6C                           	JE	L533
  3019 00001CF2 83 FB 1B                        	CMP	EBX,27
  3020 00001CF5 74 58                           	JE	L534
  3021 00001CF7 81 FB 00001005                  	CMP	EBX,4101
  3022 00001CFD 74 0A                           	JE	L535
  3023 00001CFF                                 L394:
  3024 00001CFF 31 C0                           	XOR	EAX,EAX
  3025 00001D01                                 L392:
  3026 00001D01 8D 65 F4                        	LEA	ESP,DWORD [-12+EBP]
  3027 00001D04 5B                              	POP	EBX
  3028 00001D05 5E                              	POP	ESI
  3029 00001D06 5F                              	POP	EDI
  3030 00001D07 5D                              	POP	EBP
  3031 00001D08 C3                              	RET
  3032 00001D09                                 L535:
  3033 00001D09 8B 5D EC                        	MOV	EBX,DWORD [-20+EBP]
  3034 00001D0C 6A 00                           	PUSH	0
  3035 00001D0E 03 5D 24                        	ADD	EBX,DWORD [36+EBP]
  3036 00001D11 E8 [00000000]                   	CALL	_rtc_get
  3037 00001D16 89 03                           	MOV	DWORD [EBX],EAX
  3038 00001D18 6A 01                           	PUSH	1
  3039 00001D1A E8 [00000000]                   	CALL	_rtc_get
  3040 00001D1F 89 43 04                        	MOV	DWORD [4+EBX],EAX
  3041 00001D22 6A 02                           	PUSH	2
  3042 00001D24 E8 [00000000]                   	CALL	_rtc_get
  3043 00001D29 89 43 08                        	MOV	DWORD [8+EBX],EAX
  3044 00001D2C 6A 03                           	PUSH	3
  3045 00001D2E E8 [00000000]                   	CALL	_rtc_get
  3046 00001D33 89 43 0C                        	MOV	DWORD [12+EBX],EAX
  3047 00001D36 6A 04                           	PUSH	4
  3048 00001D38 E8 [00000000]                   	CALL	_rtc_get
  3049 00001D3D 89 43 10                        	MOV	DWORD [16+EBX],EAX
  3050 00001D40 6A 05                           	PUSH	5
  3051 00001D42 E8 [00000000]                   	CALL	_rtc_get
  3052 00001D47 83 C4 18                        	ADD	ESP,24
  3053 00001D4A 89 43 14                        	MOV	DWORD [20+EBX],EAX
  3054 00001D4D EB B0                           	JMP	L394
  3055 00001D4F                                 L534:
  3056 00001D4F 8B 5D F0                        	MOV	EBX,DWORD [-16+EBP]
  3057 00001D52 0F B6 83 000000BC               	MOVZX	EAX,BYTE [188+EBX]
  3058 00001D59                                 L502:
  3059 00001D59 89 45 44                        	MOV	DWORD [68+EBP],EAX
  3060 00001D5C EB A1                           	JMP	L394
  3061 00001D5E                                 L533:
  3062 00001D5E 31 F6                           	XOR	ESI,ESI
  3063 00001D60                                 L490:
  3064 00001D60 8B 4D F0                        	MOV	ECX,DWORD [-16+EBP]
  3065 00001D63 8B 55 18                        	MOV	EDX,DWORD [24+EBP]
  3066 00001D66 03 55 EC                        	ADD	EDX,DWORD [-20+EBP]
  3067 00001D69 8B 81 000000B8                  	MOV	EAX,DWORD [184+ECX]
  3068 00001D6F 8A 04 06                        	MOV	AL,BYTE [ESI+EAX*1]
  3069 00001D72 88 04 16                        	MOV	BYTE [ESI+EDX*1],AL
  3070 00001D75 8B 81 000000B8                  	MOV	EAX,DWORD [184+ECX]
  3071 00001D7B 80 3C 06 00                     	CMP	BYTE [ESI+EAX*1],0
  3072 00001D7F 74 08                           	JE	L491
  3073 00001D81 3B 75 20                        	CMP	ESI,DWORD [32+EBP]
  3074 00001D84 7D 03                           	JGE	L491
  3075 00001D86 46                              	INC	ESI
  3076 00001D87 EB D7                           	JMP	L490
  3077 00001D89                                 L491:
  3078 00001D89 89 75 44                        	MOV	DWORD [68+EBP],ESI
  3079 00001D8C E9 FFFFFF6E                     	JMP	L394
  3080 00001D91                                 L532:
  3081 00001D91 31 F6                           	XOR	ESI,ESI
  3082 00001D93 8B 5D 24                        	MOV	EBX,DWORD [36+EBP]
  3083 00001D96 3B 75 20                        	CMP	ESI,DWORD [32+EBP]
  3084 00001D99 7D EE                           	JGE	L491
  3085 00001D9B                                 L487:
  3086 00001D9B 8B 4B 08                        	MOV	ECX,DWORD [8+EBX]
  3087 00001D9E 3B 4B 04                        	CMP	ECX,DWORD [4+EBX]
  3088 00001DA1 74 E6                           	JE	L491
  3089 00001DA3 8B 45 18                        	MOV	EAX,DWORD [24+EBP]
  3090 00001DA6 8B 13                           	MOV	EDX,DWORD [EBX]
  3091 00001DA8 03 45 EC                        	ADD	EAX,DWORD [-20+EBP]
  3092 00001DAB 8A 14 11                        	MOV	DL,BYTE [ECX+EDX*1]
  3093 00001DAE 88 14 06                        	MOV	BYTE [ESI+EAX*1],DL
  3094 00001DB1 46                              	INC	ESI
  3095 00001DB2 FF 43 08                        	INC	DWORD [8+EBX]
  3096 00001DB5 3B 75 20                        	CMP	ESI,DWORD [32+EBP]
  3097 00001DB8 7C E1                           	JL	L487
  3098 00001DBA EB CD                           	JMP	L491
  3099 00001DBC                                 L531:
  3100 00001DBC 8B 5D 24                        	MOV	EBX,DWORD [36+EBP]
  3101 00001DBF 83 7D 20 00                     	CMP	DWORD [32+EBP],0
  3102 00001DC3 75 05                           	JNE	L475
  3103 00001DC5 8B 43 04                        	MOV	EAX,DWORD [4+EBX]
  3104 00001DC8 EB 8F                           	JMP	L502
  3105 00001DCA                                 L475:
  3106 00001DCA 83 7D 20 01                     	CMP	DWORD [32+EBP],1
  3107 00001DCE 74 15                           	JE	L536
  3108 00001DD0 83 7D 20 02                     	CMP	DWORD [32+EBP],2
  3109 00001DD4 0F 85 FFFFFF25                  	JNE	L394
  3110 00001DDA 8B 43 08                        	MOV	EAX,DWORD [8+EBX]
  3111 00001DDD 2B 43 04                        	SUB	EAX,DWORD [4+EBX]
  3112 00001DE0 E9 FFFFFF74                     	JMP	L502
  3113 00001DE5                                 L536:
  3114 00001DE5 8B 43 08                        	MOV	EAX,DWORD [8+EBX]
  3115 00001DE8 E9 FFFFFF6C                     	JMP	L502
  3116 00001DED                                 L530:
  3117 00001DED 8B 5D 24                        	MOV	EBX,DWORD [36+EBP]
  3118 00001DF0 83 7D 20 00                     	CMP	DWORD [32+EBP],0
  3119 00001DF4 74 35                           	JE	L501
  3120 00001DF6 83 7D 20 01                     	CMP	DWORD [32+EBP],1
  3121 00001DFA 74 37                           	JE	L537
  3122 00001DFC 83 7D 20 02                     	CMP	DWORD [32+EBP],2
  3123 00001E00 74 23                           	JE	L538
  3124 00001E02                                 L467:
  3125 00001E02 83 7B 08 00                     	CMP	DWORD [8+EBX],0
  3126 00001E06 78 14                           	JS	L539
  3127 00001E08                                 L471:
  3128 00001E08 8B 43 04                        	MOV	EAX,DWORD [4+EBX]
  3129 00001E0B 39 43 08                        	CMP	DWORD [8+EBX],EAX
  3130 00001E0E 0F 8E FFFFFEEB                  	JLE	L394
  3131 00001E14 89 43 08                        	MOV	DWORD [8+EBX],EAX
  3132 00001E17 E9 FFFFFEE3                     	JMP	L394
  3133 00001E1C                                 L539:
  3134 00001E1C C7 43 08 00000000               	MOV	DWORD [8+EBX],0
  3135 00001E23 EB E3                           	JMP	L471
  3136 00001E25                                 L538:
  3137 00001E25 8B 43 04                        	MOV	EAX,DWORD [4+EBX]
  3138 00001E28 01 45 18                        	ADD	DWORD [24+EBP],EAX
  3139 00001E2B                                 L501:
  3140 00001E2B 8B 55 18                        	MOV	EDX,DWORD [24+EBP]
  3141 00001E2E 89 53 08                        	MOV	DWORD [8+EBX],EDX
  3142 00001E31 EB CF                           	JMP	L467
  3143 00001E33                                 L537:
  3144 00001E33 8B 4D 18                        	MOV	ECX,DWORD [24+EBP]
  3145 00001E36 01 4B 08                        	ADD	DWORD [8+EBX],ECX
  3146 00001E39 EB C7                           	JMP	L467
  3147 00001E3B                                 L529:
  3148 00001E3B 8B 5D 24                        	MOV	EBX,DWORD [36+EBP]
  3149 00001E3E FF 73 04                        	PUSH	DWORD [4+EBX]
  3150 00001E41 FF 33                           	PUSH	DWORD [EBX]
  3151 00001E43 68 003C0000                     	PUSH	3932160
  3152 00001E48 E8 [00000000]                   	CALL	_memman_free_4k
  3153 00001E4D C7 03 00000000                  	MOV	DWORD [EBX],0
  3154 00001E53                                 L503:
  3155 00001E53 83 C4 0C                        	ADD	ESP,12
  3156 00001E56 E9 FFFFFEA4                     	JMP	L394
  3157 00001E5B                                 L528:
  3158 00001E5B 31 F6                           	XOR	ESI,ESI
  3159 00001E5D 31 C0                           	XOR	EAX,EAX
  3160 00001E5F                                 L459:
  3161 00001E5F 8B 4D F0                        	MOV	ECX,DWORD [-16+EBP]
  3162 00001E62 8B 91 000000B0                  	MOV	EDX,DWORD [176+ECX]
  3163 00001E68 83 3C 02 00                     	CMP	DWORD [EDX+EAX*1],0
  3164 00001E6C 74 09                           	JE	L455
  3165 00001E6E 46                              	INC	ESI
  3166 00001E6F 83 C0 1C                        	ADD	EAX,28
  3167 00001E72 83 FE 07                        	CMP	ESI,7
  3168 00001E75 7E E8                           	JLE	L459
  3169 00001E77                                 L455:
  3170 00001E77 6B C6 1C                        	IMUL	EAX,ESI,28
  3171 00001E7A C7 45 44 00000000               	MOV	DWORD [68+EBP],0
  3172 00001E81 8D 1C 10                        	LEA	EBX,DWORD [EAX+EDX*1]
  3173 00001E84 83 FE 07                        	CMP	ESI,7
  3174 00001E87 0F 8F FFFFFE72                  	JG	L394
  3175 00001E8D 8B 45 18                        	MOV	EAX,DWORD [24+EBP]
  3176 00001E90 68 000000E0                     	PUSH	224
  3177 00001E95 03 45 EC                        	ADD	EAX,DWORD [-20+EBP]
  3178 00001E98 68 00102600                     	PUSH	1058304
  3179 00001E9D 50                              	PUSH	EAX
  3180 00001E9E E8 [00000000]                   	CALL	_file_search
  3181 00001EA3 83 C4 0C                        	ADD	ESP,12
  3182 00001EA6 89 C2                           	MOV	EDX,EAX
  3183 00001EA8 85 C0                           	TEST	EAX,EAX
  3184 00001EAA 0F 84 FFFFFE4F                  	JE	L394
  3185 00001EB0 89 5D 44                        	MOV	DWORD [68+EBP],EBX
  3186 00001EB3 8B 40 1C                        	MOV	EAX,DWORD [28+EAX]
  3187 00001EB6 89 43 04                        	MOV	DWORD [4+EBX],EAX
  3188 00001EB9 8B 45 F0                        	MOV	EAX,DWORD [-16+EBP]
  3189 00001EBC C7 43 08 00000000               	MOV	DWORD [8+EBX],0
  3190 00001EC3 FF B0 000000B4                  	PUSH	DWORD [180+EAX]
  3191 00001EC9 8D 43 04                        	LEA	EAX,DWORD [4+EBX]
  3192 00001ECC 50                              	PUSH	EAX
  3193 00001ECD 0F B7 42 1A                     	MOVZX	EAX,WORD [26+EDX]
  3194 00001ED1 50                              	PUSH	EAX
  3195 00001ED2 E8 [00000000]                   	CALL	_file_loadfile2
  3196 00001ED7 89 03                           	MOV	DWORD [EBX],EAX
  3197 00001ED9 E9 FFFFFF75                     	JMP	L503
  3198 00001EDE                                 L527:
  3199 00001EDE 8B 55 24                        	MOV	EDX,DWORD [36+EBP]
  3200 00001EE1 85 D2                           	TEST	EDX,EDX
  3201 00001EE3 75 19                           	JNE	L450
  3202 00001EE5 6A 61                           	PUSH	97
  3203 00001EE7 E8 [00000000]                   	CALL	_io_in8
  3204 00001EEC 89 C6                           	MOV	ESI,EAX
  3205 00001EEE 83 E6 0D                        	AND	ESI,13
  3206 00001EF1 56                              	PUSH	ESI
  3207 00001EF2 6A 61                           	PUSH	97
  3208 00001EF4 E8 [00000000]                   	CALL	_io_out8
  3209 00001EF9 E9 FFFFFF55                     	JMP	L503
  3210 00001EFE                                 L450:
  3211 00001EFE B9 471E7B60                     	MOV	ECX,1193180000
  3212 00001F03 89 D3                           	MOV	EBX,EDX
  3213 00001F05 89 C8                           	MOV	EAX,ECX
  3214 00001F07 68 000000B6                     	PUSH	182
  3215 00001F0C 99                              	CDQ
  3216 00001F0D F7 FB                           	IDIV	EBX
  3217 00001F0F 6A 43                           	PUSH	67
  3218 00001F11 89 C6                           	MOV	ESI,EAX
  3219 00001F13 E8 [00000000]                   	CALL	_io_out8
  3220 00001F18 89 F0                           	MOV	EAX,ESI
  3221 00001F1A C1 FE 08                        	SAR	ESI,8
  3222 00001F1D 25 000000FF                     	AND	EAX,255
  3223 00001F22 50                              	PUSH	EAX
  3224 00001F23 6A 42                           	PUSH	66
  3225 00001F25 E8 [00000000]                   	CALL	_io_out8
  3226 00001F2A 56                              	PUSH	ESI
  3227 00001F2B 6A 42                           	PUSH	66
  3228 00001F2D E8 [00000000]                   	CALL	_io_out8
  3229 00001F32 6A 61                           	PUSH	97
  3230 00001F34 E8 [00000000]                   	CALL	_io_in8
  3231 00001F39 89 C6                           	MOV	ESI,EAX
  3232 00001F3B 83 CE 03                        	OR	ESI,3
  3233 00001F3E 83 E6 0F                        	AND	ESI,15
  3234 00001F41 56                              	PUSH	ESI
  3235 00001F42 6A 61                           	PUSH	97
  3236 00001F44 E8 [00000000]                   	CALL	_io_out8
  3237 00001F49 83 C4 24                        	ADD	ESP,36
  3238 00001F4C E9 FFFFFDAE                     	JMP	L394
  3239 00001F51                                 L526:
  3240 00001F51 FF 75 18                        	PUSH	DWORD [24+EBP]
  3241 00001F54 E8 [00000000]                   	CALL	_timer_free
  3242 00001F59                                 L504:
  3243 00001F59 58                              	POP	EAX
  3244 00001F5A E9 FFFFFDA0                     	JMP	L394
  3245 00001F5F                                 L525:
  3246 00001F5F FF 75 24                        	PUSH	DWORD [36+EBP]
  3247 00001F62 FF 75 18                        	PUSH	DWORD [24+EBP]
  3248 00001F65 E8 [00000000]                   	CALL	_timer_settime
  3249 00001F6A                                 L506:
  3250 00001F6A 58                              	POP	EAX
  3251 00001F6B 5A                              	POP	EDX
  3252 00001F6C E9 FFFFFD8E                     	JMP	L394
  3253 00001F71                                 L524:
  3254 00001F71 8B 45 24                        	MOV	EAX,DWORD [36+EBP]
  3255 00001F74 05 00000100                     	ADD	EAX,256
  3256 00001F79 50                              	PUSH	EAX
  3257 00001F7A 8B 45 F0                        	MOV	EAX,DWORD [-16+EBP]
  3258 00001F7D 83 C0 10                        	ADD	EAX,16
  3259 00001F80 50                              	PUSH	EAX
  3260 00001F81 FF 75 18                        	PUSH	DWORD [24+EBP]
  3261 00001F84 E8 [00000000]                   	CALL	_timer_init
  3262 00001F89 E9 FFFFFEC5                     	JMP	L503
  3263 00001F8E                                 L523:
  3264 00001F8E 68 [0000080B]                   	PUSH	LC99
  3265 00001F93 E8 [00000000]                   	CALL	_timer_alloc
  3266 00001F98 89 45 44                        	MOV	DWORD [68+EBP],EAX
  3267 00001F9B C6 40 09 01                     	MOV	BYTE [9+EAX],1
  3268 00001F9F EB B8                           	JMP	L504
  3269 00001FA1                                 L429:
  3270 00001FA1 E8 [00000000]                   	CALL	_io_cli
  3271 00001FA6 8B 45 F0                        	MOV	EAX,DWORD [-16+EBP]
  3272 00001FA9 83 C0 10                        	ADD	EAX,16
  3273 00001FAC 50                              	PUSH	EAX
  3274 00001FAD E8 [00000000]                   	CALL	_fifo32_status
  3275 00001FB2 5E                              	POP	ESI
  3276 00001FB3 85 C0                           	TEST	EAX,EAX
  3277 00001FB5 75 13                           	JNE	L432
  3278 00001FB7 83 7D 24 00                     	CMP	DWORD [36+EBP],0
  3279 00001FBB 0F 84 000000B7                  	JE	L433
  3280 00001FC1 FF 75 F0                        	PUSH	DWORD [-16+EBP]
  3281 00001FC4 E8 [00000000]                   	CALL	_task_sleep
  3282 00001FC9 5B                              	POP	EBX
  3283 00001FCA                                 L432:
  3284 00001FCA 8B 5D F0                        	MOV	EBX,DWORD [-16+EBP]
  3285 00001FCD 83 C3 10                        	ADD	EBX,16
  3286 00001FD0 53                              	PUSH	EBX
  3287 00001FD1 E8 [00000000]                   	CALL	_fifo32_get
  3288 00001FD6 89 C6                           	MOV	ESI,EAX
  3289 00001FD8 E8 [00000000]                   	CALL	_io_sti
  3290 00001FDD 59                              	POP	ECX
  3291 00001FDE 83 FE 01                        	CMP	ESI,1
  3292 00001FE1 7E 73                           	JLE	L540
  3293 00001FE3                                 L435:
  3294 00001FE3 83 FE 02                        	CMP	ESI,2
  3295 00001FE6 74 65                           	JE	L541
  3296 00001FE8                                 L436:
  3297 00001FE8 83 FE 03                        	CMP	ESI,3
  3298 00001FEB 74 57                           	JE	L542
  3299 00001FED                                 L437:
  3300 00001FED 83 FE 04                        	CMP	ESI,4
  3301 00001FF0 74 14                           	JE	L543
  3302 00001FF2                                 L438:
  3303 00001FF2 8D 86 FFFFFF00                  	LEA	EAX,DWORD [-256+ESI]
  3304 00001FF8 81 FE 000000FF                  	CMP	ESI,255
  3305 00001FFE 0F 8F FFFFFD55                  	JG	L502
  3306 00002004 EB 9B                           	JMP	L429
  3307 00002006                                 L543:
  3308 00002006 FF 77 10                        	PUSH	DWORD [16+EDI]
  3309 00002009 E8 [00000000]                   	CALL	_timer_cancel
  3310 0000200E E8 [00000000]                   	CALL	_io_cli
  3311 00002013 8B 07                           	MOV	EAX,DWORD [EDI]
  3312 00002015 2B 45 E8                        	SUB	EAX,DWORD [-24+EBP]
  3313 00002018 2D 00000414                     	SUB	EAX,1044
  3314 0000201D C1 F8 02                        	SAR	EAX,2
  3315 00002020 69 C0 BA2E8BA3                  	IMUL	EAX,EAX,-1171354717
  3316 00002026 05 000007E8                     	ADD	EAX,2024
  3317 0000202B 50                              	PUSH	EAX
  3318 0000202C FF 75 E4                        	PUSH	DWORD [-28+EBP]
  3319 0000202F E8 [00000000]                   	CALL	_fifo32_put
  3320 00002034 C7 07 00000000                  	MOV	DWORD [EDI],0
  3321 0000203A E8 [00000000]                   	CALL	_io_sti
  3322 0000203F 83 C4 0C                        	ADD	ESP,12
  3323 00002042 EB AE                           	JMP	L438
  3324 00002044                                 L542:
  3325 00002044 C7 47 0C FFFFFFFF               	MOV	DWORD [12+EDI],-1
  3326 0000204B EB A0                           	JMP	L437
  3327 0000204D                                 L541:
  3328 0000204D C7 47 0C 00000007               	MOV	DWORD [12+EDI],7
  3329 00002054 EB 92                           	JMP	L436
  3330 00002056                                 L540:
  3331 00002056 83 3F 00                        	CMP	DWORD [EDI],0
  3332 00002059 74 88                           	JE	L435
  3333 0000205B 6A 01                           	PUSH	1
  3334 0000205D 53                              	PUSH	EBX
  3335 0000205E FF 77 10                        	PUSH	DWORD [16+EDI]
  3336 00002061 E8 [00000000]                   	CALL	_timer_init
  3337 00002066 6A 32                           	PUSH	50
  3338 00002068 FF 77 10                        	PUSH	DWORD [16+EDI]
  3339 0000206B E8 [00000000]                   	CALL	_timer_settime
  3340 00002070 83 C4 14                        	ADD	ESP,20
  3341 00002073 E9 FFFFFF6B                     	JMP	L435
  3342 00002078                                 L433:
  3343 00002078 E8 [00000000]                   	CALL	_io_sti
  3344 0000207D C7 45 44 FFFFFFFF               	MOV	DWORD [68+EBP],-1
  3345 00002084 E9 FFFFFC76                     	JMP	L394
  3346 00002089                                 L522:
  3347 00002089 FF 75 18                        	PUSH	DWORD [24+EBP]
  3348 0000208C E8 [00000000]                   	CALL	_sheet_free
  3349 00002091 E9 FFFFFEC3                     	JMP	L504
  3350 00002096                                 L521:
  3351 00002096 0F B7 84 36 [00000000]          	MOVZX	EAX,WORD [_table_16_65536+ESI+ESI*1]
  3352 0000209E 50                              	PUSH	EAX
  3353 0000209F 8B 7D 18                        	MOV	EDI,DWORD [24+EBP]
  3354 000020A2 FF 75 08                        	PUSH	DWORD [8+EBP]
  3355 000020A5 FF 75 0C                        	PUSH	DWORD [12+EBP]
  3356 000020A8 FF 75 20                        	PUSH	DWORD [32+EBP]
  3357 000020AB FF 75 24                        	PUSH	DWORD [36+EBP]
  3358 000020AE 83 E7 FE                        	AND	EDI,-2
  3359 000020B1 57                              	PUSH	EDI
  3360 000020B2 E8 00000328                     	CALL	_hrb_api_linewin
  3361 000020B7 83 C4 18                        	ADD	ESP,24
  3362 000020BA F7 45 18 00000001               	TEST	DWORD [24+EBP],1
  3363 000020C1 0F 85 FFFFFC38                  	JNE	L394
  3364 000020C7 8B 45 24                        	MOV	EAX,DWORD [36+EBP]
  3365 000020CA 3B 45 0C                        	CMP	EAX,DWORD [12+EBP]
  3366 000020CD 7E 09                           	JLE	L423
  3367 000020CF 8B 55 0C                        	MOV	EDX,DWORD [12+EBP]
  3368 000020D2 89 45 0C                        	MOV	DWORD [12+EBP],EAX
  3369 000020D5 89 55 24                        	MOV	DWORD [36+EBP],EDX
  3370 000020D8                                 L423:
  3371 000020D8 8B 4D 08                        	MOV	ECX,DWORD [8+EBP]
  3372 000020DB 39 4D 20                        	CMP	DWORD [32+EBP],ECX
  3373 000020DE 7E 09                           	JLE	L424
  3374 000020E0 8B 75 20                        	MOV	ESI,DWORD [32+EBP]
  3375 000020E3 89 4D 20                        	MOV	DWORD [32+EBP],ECX
  3376 000020E6 89 75 08                        	MOV	DWORD [8+EBP],ESI
  3377 000020E9                                 L424:
  3378 000020E9 8B 45 08                        	MOV	EAX,DWORD [8+EBP]
  3379 000020EC 40                              	INC	EAX
  3380 000020ED 50                              	PUSH	EAX
  3381 000020EE 8B 45 0C                        	MOV	EAX,DWORD [12+EBP]
  3382 000020F1 40                              	INC	EAX
  3383 000020F2 50                              	PUSH	EAX
  3384 000020F3 FF 75 20                        	PUSH	DWORD [32+EBP]
  3385 000020F6 FF 75 24                        	PUSH	DWORD [36+EBP]
  3386 000020F9                                 L508:
  3387 000020F9 57                              	PUSH	EDI
  3388 000020FA                                 L505:
  3389 000020FA E8 [00000000]                   	CALL	_sheet_refresh
  3390 000020FF 83 C4 14                        	ADD	ESP,20
  3391 00002102 E9 FFFFFBF8                     	JMP	L394
  3392 00002107                                 L520:
  3393 00002107 FF 75 08                        	PUSH	DWORD [8+EBP]
  3394 0000210A FF 75 0C                        	PUSH	DWORD [12+EBP]
  3395 0000210D FF 75 20                        	PUSH	DWORD [32+EBP]
  3396 00002110 FF 75 24                        	PUSH	DWORD [36+EBP]
  3397 00002113 FF 75 18                        	PUSH	DWORD [24+EBP]
  3398 00002116 EB E2                           	JMP	L505
  3399 00002118                                 L519:
  3400 00002118 8B 7D 18                        	MOV	EDI,DWORD [24+EBP]
  3401 0000211B 8B 55 08                        	MOV	EDX,DWORD [8+EBP]
  3402 0000211E 83 E7 FE                        	AND	EDI,-2
  3403 00002121 8B 45 24                        	MOV	EAX,DWORD [36+EBP]
  3404 00002124 0F AF 57 04                     	IMUL	EDX,DWORD [4+EDI]
  3405 00002128 66 8B 84 00 [00000000]          	MOV	AX,WORD [_table_16_65536+EAX+EAX*1]
  3406 00002130 03 55 0C                        	ADD	EDX,DWORD [12+EBP]
  3407 00002133 8B 0F                           	MOV	ECX,DWORD [EDI]
  3408 00002135 F7 45 18 00000001               	TEST	DWORD [24+EBP],1
  3409 0000213C 66 89 04 51                     	MOV	WORD [ECX+EDX*2],AX
  3410 00002140 0F 85 FFFFFBB9                  	JNE	L394
  3411 00002146 8B 45 08                        	MOV	EAX,DWORD [8+EBP]
  3412 00002149 40                              	INC	EAX
  3413 0000214A 50                              	PUSH	EAX
  3414 0000214B 8B 45 0C                        	MOV	EAX,DWORD [12+EBP]
  3415 0000214E 40                              	INC	EAX
  3416 0000214F 50                              	PUSH	EAX
  3417 00002150 FF 75 08                        	PUSH	DWORD [8+EBP]
  3418 00002153 FF 75 0C                        	PUSH	DWORD [12+EBP]
  3419 00002156 EB A1                           	JMP	L508
  3420 00002158                                 L518:
  3421 00002158 8B 45 20                        	MOV	EAX,DWORD [32+EBP]
  3422 0000215B 83 C0 0F                        	ADD	EAX,15
  3423 0000215E 83 E0 F0                        	AND	EAX,-16
  3424 00002161 50                              	PUSH	EAX
  3425 00002162 8B 45 18                        	MOV	EAX,DWORD [24+EBP]
  3426 00002165 03 45 EC                        	ADD	EAX,DWORD [-20+EBP]
  3427 00002168 FF 75 24                        	PUSH	DWORD [36+EBP]
  3428 0000216B 50                              	PUSH	EAX
  3429 0000216C E8 [00000000]                   	CALL	_memman_free
  3430 00002171 E9 FFFFFCDD                     	JMP	L503
  3431 00002176                                 L517:
  3432 00002176 8B 45 20                        	MOV	EAX,DWORD [32+EBP]
  3433 00002179 83 C0 0F                        	ADD	EAX,15
  3434 0000217C 83 E0 F0                        	AND	EAX,-16
  3435 0000217F 50                              	PUSH	EAX
  3436 00002180 8B 45 18                        	MOV	EAX,DWORD [24+EBP]
  3437 00002183 03 45 EC                        	ADD	EAX,DWORD [-20+EBP]
  3438 00002186 50                              	PUSH	EAX
  3439 00002187 E8 [00000000]                   	CALL	_memman_alloc
  3440 0000218C 89 45 44                        	MOV	DWORD [68+EBP],EAX
  3441 0000218F E9 FFFFFDD6                     	JMP	L506
  3442 00002194                                 L516:
  3443 00002194 8B 5D 18                        	MOV	EBX,DWORD [24+EBP]
  3444 00002197 03 5D EC                        	ADD	EBX,DWORD [-20+EBP]
  3445 0000219A 53                              	PUSH	EBX
  3446 0000219B E8 [00000000]                   	CALL	_memman_init
  3447 000021A0 83 65 20 F0                     	AND	DWORD [32+EBP],-16
  3448 000021A4 FF 75 20                        	PUSH	DWORD [32+EBP]
  3449 000021A7 FF 75 24                        	PUSH	DWORD [36+EBP]
  3450 000021AA 53                              	PUSH	EBX
  3451 000021AB E8 [00000000]                   	CALL	_memman_free
  3452 000021B0                                 L507:
  3453 000021B0 83 C4 10                        	ADD	ESP,16
  3454 000021B3 E9 FFFFFB47                     	JMP	L394
  3455 000021B8                                 L515:
  3456 000021B8 FF 75 08                        	PUSH	DWORD [8+EBP]
  3457 000021BB FF 75 0C                        	PUSH	DWORD [12+EBP]
  3458 000021BE FF 75 20                        	PUSH	DWORD [32+EBP]
  3459 000021C1 8B 7D 18                        	MOV	EDI,DWORD [24+EBP]
  3460 000021C4 89 F3                           	MOV	EBX,ESI
  3461 000021C6 FF 75 24                        	PUSH	DWORD [36+EBP]
  3462 000021C9 83 E7 FE                        	AND	EDI,-2
  3463 000021CC 0F B6 C3                        	MOVZX	EAX,BL
  3464 000021CF 50                              	PUSH	EAX
  3465 000021D0 FF 77 04                        	PUSH	DWORD [4+EDI]
  3466 000021D3 FF 37                           	PUSH	DWORD [EDI]
  3467 000021D5 E8 [00000000]                   	CALL	_boxfill8
  3468 000021DA 83 C4 1C                        	ADD	ESP,28
  3469 000021DD F7 45 18 00000001               	TEST	DWORD [24+EBP],1
  3470 000021E4 0F 85 FFFFFB15                  	JNE	L394
  3471 000021EA E9 FFFFFEFA                     	JMP	L424
  3472 000021EF                                 L514:
  3473 000021EF 8B 5D EC                        	MOV	EBX,DWORD [-20+EBP]
  3474 000021F2 8B 7D 18                        	MOV	EDI,DWORD [24+EBP]
  3475 000021F5 83 E7 FE                        	AND	EDI,-2
  3476 000021F8 8D 04 33                        	LEA	EAX,DWORD [EBX+ESI*1]
  3477 000021FB 50                              	PUSH	EAX
  3478 000021FC 6A 01                           	PUSH	1
  3479 000021FE 0F B6 45 24                     	MOVZX	EAX,BYTE [36+EBP]
  3480 00002202 50                              	PUSH	EAX
  3481 00002203 FF 75 08                        	PUSH	DWORD [8+EBP]
  3482 00002206 FF 75 0C                        	PUSH	DWORD [12+EBP]
  3483 00002209 FF 77 04                        	PUSH	DWORD [4+EDI]
  3484 0000220C FF 37                           	PUSH	DWORD [EDI]
  3485 0000220E E8 [00000000]                   	CALL	_putfonts8_asc
  3486 00002213 83 C4 1C                        	ADD	ESP,28
  3487 00002216 F7 45 18 00000001               	TEST	DWORD [24+EBP],1
  3488 0000221D 0F 85 FFFFFADC                  	JNE	L394
  3489 00002223 8B 4D 0C                        	MOV	ECX,DWORD [12+EBP]
  3490 00002226 8B 45 08                        	MOV	EAX,DWORD [8+EBP]
  3491 00002229 8B 55 20                        	MOV	EDX,DWORD [32+EBP]
  3492 0000222C 83 C0 10                        	ADD	EAX,16
  3493 0000222F 50                              	PUSH	EAX
  3494 00002230 8D 04 D1                        	LEA	EAX,DWORD [ECX+EDX*8]
  3495 00002233 50                              	PUSH	EAX
  3496 00002234 FF 75 08                        	PUSH	DWORD [8+EBP]
  3497 00002237 51                              	PUSH	ECX
  3498 00002238 E9 FFFFFEBC                     	JMP	L508
  3499 0000223D                                 L513:
  3500 0000223D 6A 01                           	PUSH	1
  3501 0000223F 68 [0000080F]                   	PUSH	LC95
  3502 00002244 E8 [00000000]                   	CALL	_dbg_putstr0
  3503 00002249 FF 75 E8                        	PUSH	DWORD [-24+EBP]
  3504 0000224C E8 [00000000]                   	CALL	_sheet_alloc
  3505 00002251 83 C4 0C                        	ADD	ESP,12
  3506 00002254 8B 55 F0                        	MOV	EDX,DWORD [-16+EBP]
  3507 00002257 89 C7                           	MOV	EDI,EAX
  3508 00002259 89 50 24                        	MOV	DWORD [36+EAX],EDX
  3509 0000225C 8B 50 1C                        	MOV	EDX,DWORD [28+EAX]
  3510 0000225F 89 D0                           	MOV	EAX,EDX
  3511 00002261 83 C8 10                        	OR	EAX,16
  3512 00002264 89 47 1C                        	MOV	DWORD [28+EDI],EAX
  3513 00002267 83 7D 24 FF                     	CMP	DWORD [36+EBP],-1
  3514 0000226B 74 06                           	JE	L402
  3515 0000226D 83 CA 50                        	OR	EDX,80
  3516 00002270 89 57 1C                        	MOV	DWORD [28+EDI],EDX
  3517 00002273                                 L402:
  3518 00002273 FF 75 24                        	PUSH	DWORD [36+EBP]
  3519 00002276 8B 75 18                        	MOV	ESI,DWORD [24+EBP]
  3520 00002279 FF 75 08                        	PUSH	DWORD [8+EBP]
  3521 0000227C 03 75 EC                        	ADD	ESI,DWORD [-20+EBP]
  3522 0000227F FF 75 0C                        	PUSH	DWORD [12+EBP]
  3523 00002282 56                              	PUSH	ESI
  3524 00002283 57                              	PUSH	EDI
  3525 00002284 E8 [00000000]                   	CALL	_sheet_setbuf
  3526 00002289 6A 01                           	PUSH	1
  3527 0000228B 68 [00000822]                   	PUSH	LC96
  3528 00002290 E8 [00000000]                   	CALL	_dbg_putstr0
  3529 00002295 8B 5D 20                        	MOV	EBX,DWORD [32+EBP]
  3530 00002298 03 5D EC                        	ADD	EBX,DWORD [-20+EBP]
  3531 0000229B 6A 01                           	PUSH	1
  3532 0000229D 53                              	PUSH	EBX
  3533 0000229E E8 [00000000]                   	CALL	_dbg_putstr0
  3534 000022A3 83 C4 24                        	ADD	ESP,36
  3535 000022A6 6A 00                           	PUSH	0
  3536 000022A8 53                              	PUSH	EBX
  3537 000022A9 BB 00000002                     	MOV	EBX,2
  3538 000022AE FF 75 08                        	PUSH	DWORD [8+EBP]
  3539 000022B1 FF 75 0C                        	PUSH	DWORD [12+EBP]
  3540 000022B4 56                              	PUSH	ESI
  3541 000022B5 E8 [00000000]                   	CALL	_make_window8
  3542 000022BA 6A 01                           	PUSH	1
  3543 000022BC 68 [00000843]                   	PUSH	LC97
  3544 000022C1 E8 [00000000]                   	CALL	_dbg_putstr0
  3545 000022C6 8B 4D E8                        	MOV	ECX,DWORD [-24+EBP]
  3546 000022C9 8B 41 0C                        	MOV	EAX,DWORD [12+ECX]
  3547 000022CC 2B 45 08                        	SUB	EAX,DWORD [8+EBP]
  3548 000022CF 99                              	CDQ
  3549 000022D0 F7 FB                           	IDIV	EBX
  3550 000022D2 50                              	PUSH	EAX
  3551 000022D3 8B 41 08                        	MOV	EAX,DWORD [8+ECX]
  3552 000022D6 2B 45 0C                        	SUB	EAX,DWORD [12+EBP]
  3553 000022D9 99                              	CDQ
  3554 000022DA F7 FB                           	IDIV	EBX
  3555 000022DC 83 E0 FC                        	AND	EAX,-4
  3556 000022DF 50                              	PUSH	EAX
  3557 000022E0 57                              	PUSH	EDI
  3558 000022E1 E8 [00000000]                   	CALL	_sheet_slide
  3559 000022E6 8B 4D E8                        	MOV	ECX,DWORD [-24+EBP]
  3560 000022E9 83 C4 28                        	ADD	ESP,40
  3561 000022EC FF 71 10                        	PUSH	DWORD [16+ECX]
  3562 000022EF 57                              	PUSH	EDI
  3563 000022F0 E8 [00000000]                   	CALL	_sheet_updown
  3564 000022F5 6A 01                           	PUSH	1
  3565 000022F7 68 [00000864]                   	PUSH	LC98
  3566 000022FC 89 7D 44                        	MOV	DWORD [68+EBP],EDI
  3567 000022FF E8 [00000000]                   	CALL	_dbg_putstr0
  3568 00002304 E9 FFFFFEA7                     	JMP	L507
  3569 00002309                                 L512:
  3570 00002309 8B 45 F0                        	MOV	EAX,DWORD [-16+EBP]
  3571 0000230C 83 C0 30                        	ADD	EAX,48
  3572 0000230F E9 FFFFF9ED                     	JMP	L392
  3573 00002314                                 L511:
  3574 00002314 8B 45 18                        	MOV	EAX,DWORD [24+EBP]
  3575 00002317 03 45 EC                        	ADD	EAX,DWORD [-20+EBP]
  3576 0000231A FF 75 20                        	PUSH	DWORD [32+EBP]
  3577 0000231D 50                              	PUSH	EAX
  3578 0000231E 57                              	PUSH	EDI
  3579 0000231F E8 FFFFE1C4                     	CALL	_cons_putstr1
  3580 00002324 E9 FFFFFB2A                     	JMP	L503
  3581 00002329                                 L510:
  3582 00002329 8B 45 18                        	MOV	EAX,DWORD [24+EBP]
  3583 0000232C 03 45 EC                        	ADD	EAX,DWORD [-20+EBP]
  3584 0000232F 50                              	PUSH	EAX
  3585 00002330 57                              	PUSH	EDI
  3586 00002331 E8 FFFFE184                     	CALL	_cons_putstr0
  3587 00002336 E9 FFFFFC2F                     	JMP	L506
  3588 0000233B                                 L509:
  3589 0000233B 6A 01                           	PUSH	1
  3590 0000233D 0F B6 45 24                     	MOVZX	EAX,BYTE [36+EBP]
  3591 00002341 50                              	PUSH	EAX
  3592 00002342 57                              	PUSH	EDI
  3593 00002343 E8 FFFFDFC3                     	CALL	_cons_putchar
  3594 00002348 E9 FFFFFB06                     	JMP	L503
  3595                                          [SECTION .data]
  3596 00000877                                 LC100:
  3597 00000877 0A 49 4E 54 20 30 43 20 3A 0A   	DB	0x0A,"INT 0C :",0x0A," Stack Exception.",0x0A,0x00
       00000881 20 53 74 61 63 6B 20 45 78 63 
       0000088B 65 70 74 69 6F 6E 2E 0A 00 
  3598 00000894                                 LC101:
  3599 00000894 45 49 50 20 3D 20 25 30 38 58   	DB	"EIP = %08X",0x0A,0x00
       0000089E 0A 00 
  3600                                          [SECTION .text]
  3601 0000234D                                 	GLOBAL	_inthandler0c
  3602 0000234D                                 _inthandler0c:
  3603 0000234D 55                              	PUSH	EBP
  3604 0000234E 89 E5                           	MOV	EBP,ESP
  3605 00002350 57                              	PUSH	EDI
  3606 00002351 56                              	PUSH	ESI
  3607 00002352 53                              	PUSH	EBX
  3608 00002353 8D 5D D4                        	LEA	EBX,DWORD [-44+EBP]
  3609 00002356 83 EC 20                        	SUB	ESP,32
  3610 00002359 E8 [00000000]                   	CALL	_task_now
  3611 0000235E 89 C6                           	MOV	ESI,EAX
  3612 00002360 8B B8 000000A4                  	MOV	EDI,DWORD [164+EAX]
  3613 00002366 83 C6 30                        	ADD	ESI,48
  3614 00002369 68 [00000877]                   	PUSH	LC100
  3615 0000236E 57                              	PUSH	EDI
  3616 0000236F E8 FFFFE146                     	CALL	_cons_putstr0
  3617 00002374 8B 45 08                        	MOV	EAX,DWORD [8+EBP]
  3618 00002377 FF 70 2C                        	PUSH	DWORD [44+EAX]
  3619 0000237A 68 [00000894]                   	PUSH	LC101
  3620 0000237F 53                              	PUSH	EBX
  3621 00002380 E8 [00000000]                   	CALL	_sprintf
  3622 00002385 53                              	PUSH	EBX
  3623 00002386 57                              	PUSH	EDI
  3624 00002387 E8 FFFFE12E                     	CALL	_cons_putstr0
  3625 0000238C 8D 65 F4                        	LEA	ESP,DWORD [-12+EBP]
  3626 0000238F 5B                              	POP	EBX
  3627 00002390 89 F0                           	MOV	EAX,ESI
  3628 00002392 5E                              	POP	ESI
  3629 00002393 5F                              	POP	EDI
  3630 00002394 5D                              	POP	EBP
  3631 00002395 C3                              	RET
  3632                                          [SECTION .data]
  3633 000008A0                                 LC102:
  3634 000008A0 0A 49 4E 54 20 30 44 20 3A 0A   	DB	0x0A,"INT 0D :",0x0A," General Protected Exception.",0x0A,0x00
       000008AA 20 47 65 6E 65 72 61 6C 20 50 
       000008B4 72 6F 74 65 63 74 65 64 20 45 
       000008BE 78 63 65 70 74 69 6F 6E 2E 0A 
       000008C8 00 
  3635                                          [SECTION .text]
  3636 00002396                                 	GLOBAL	_inthandler0d
  3637 00002396                                 _inthandler0d:
  3638 00002396 55                              	PUSH	EBP
  3639 00002397 89 E5                           	MOV	EBP,ESP
  3640 00002399 57                              	PUSH	EDI
  3641 0000239A 56                              	PUSH	ESI
  3642 0000239B 53                              	PUSH	EBX
  3643 0000239C 8D 5D D4                        	LEA	EBX,DWORD [-44+EBP]
  3644 0000239F 83 EC 20                        	SUB	ESP,32
  3645 000023A2 E8 [00000000]                   	CALL	_task_now
  3646 000023A7 89 C6                           	MOV	ESI,EAX
  3647 000023A9 8B B8 000000A4                  	MOV	EDI,DWORD [164+EAX]
  3648 000023AF 83 C6 30                        	ADD	ESI,48
  3649 000023B2 68 [000008A0]                   	PUSH	LC102
  3650 000023B7 57                              	PUSH	EDI
  3651 000023B8 E8 FFFFE0FD                     	CALL	_cons_putstr0
  3652 000023BD 8B 45 08                        	MOV	EAX,DWORD [8+EBP]
  3653 000023C0 FF 70 2C                        	PUSH	DWORD [44+EAX]
  3654 000023C3 68 [00000894]                   	PUSH	LC101
  3655 000023C8 53                              	PUSH	EBX
  3656 000023C9 E8 [00000000]                   	CALL	_sprintf
  3657 000023CE 53                              	PUSH	EBX
  3658 000023CF 57                              	PUSH	EDI
  3659 000023D0 E8 FFFFE0E5                     	CALL	_cons_putstr0
  3660 000023D5 8D 65 F4                        	LEA	ESP,DWORD [-12+EBP]
  3661 000023D8 5B                              	POP	EBX
  3662 000023D9 89 F0                           	MOV	EAX,ESI
  3663 000023DB 5E                              	POP	ESI
  3664 000023DC 5F                              	POP	EDI
  3665 000023DD 5D                              	POP	EBP
  3666 000023DE C3                              	RET
  3667 000023DF                                 	GLOBAL	_hrb_api_linewin
  3668 000023DF                                 _hrb_api_linewin:
  3669 000023DF 55                              	PUSH	EBP
  3670 000023E0 89 E5                           	MOV	EBP,ESP
  3671 000023E2 57                              	PUSH	EDI
  3672 000023E3 56                              	PUSH	ESI
  3673 000023E4 53                              	PUSH	EBX
  3674 000023E5 83 EC 0C                        	SUB	ESP,12
  3675 000023E8 8B 7D 0C                        	MOV	EDI,DWORD [12+EBP]
  3676 000023EB 8B 45 14                        	MOV	EAX,DWORD [20+EBP]
  3677 000023EE 89 F9                           	MOV	ECX,EDI
  3678 000023F0 8B 55 18                        	MOV	EDX,DWORD [24+EBP]
  3679 000023F3 C1 E1 0A                        	SAL	ECX,10
  3680 000023F6 89 D6                           	MOV	ESI,EDX
  3681 000023F8 89 4D F0                        	MOV	DWORD [-16+EBP],ECX
  3682 000023FB 89 C3                           	MOV	EBX,EAX
  3683 000023FD 8B 4D 10                        	MOV	ECX,DWORD [16+EBP]
  3684 00002400 2B 75 10                        	SUB	ESI,DWORD [16+EBP]
  3685 00002403 C1 E1 0A                        	SAL	ECX,10
  3686 00002406 29 FB                           	SUB	EBX,EDI
  3687 00002408 89 4D EC                        	MOV	DWORD [-20+EBP],ECX
  3688 0000240B 0F 88 000000A7                  	JS	L568
  3689 00002411                                 L547:
  3690 00002411 85 F6                           	TEST	ESI,ESI
  3691 00002413 0F 88 00000098                  	JS	L569
  3692 00002419                                 L548:
  3693 00002419 39 F3                           	CMP	EBX,ESI
  3694 0000241B 7C 66                           	JL	L549
  3695 0000241D 8D 4B 01                        	LEA	ECX,DWORD [1+EBX]
  3696 00002420 39 C7                           	CMP	EDI,EAX
  3697 00002422 BB FFFFFC00                     	MOV	EBX,-1024
  3698 00002427 7F 05                           	JG	L551
  3699 00002429 BB 00000400                     	MOV	EBX,1024
  3700 0000242E                                 L551:
  3701 0000242E 39 55 10                        	CMP	DWORD [16+EBP],EDX
  3702 00002431 7F 4A                           	JG	L552
  3703 00002433 2B 55 10                        	SUB	EDX,DWORD [16+EBP]
  3704 00002436 42                              	INC	EDX
  3705 00002437                                 L567:
  3706 00002437 C1 E2 0A                        	SAL	EDX,10
  3707 0000243A 89 D0                           	MOV	EAX,EDX
  3708 0000243C 99                              	CDQ
  3709 0000243D F7 F9                           	IDIV	ECX
  3710 0000243F 89 C6                           	MOV	ESI,EAX
  3711 00002441                                 L554:
  3712 00002441 85 C9                           	TEST	ECX,ECX
  3713 00002443 7E 30                           	JLE	L565
  3714 00002445 8B 55 08                        	MOV	EDX,DWORD [8+EBP]
  3715 00002448 8B 45 08                        	MOV	EAX,DWORD [8+EBP]
  3716 0000244B 8B 52 04                        	MOV	EDX,DWORD [4+EDX]
  3717 0000244E 8B 38                           	MOV	EDI,DWORD [EAX]
  3718 00002450 89 55 E8                        	MOV	DWORD [-24+EBP],EDX
  3719 00002453                                 L563:
  3720 00002453 8B 45 EC                        	MOV	EAX,DWORD [-20+EBP]
  3721 00002456 8B 55 F0                        	MOV	EDX,DWORD [-16+EBP]
  3722 00002459 C1 F8 0A                        	SAR	EAX,10
  3723 0000245C 01 75 EC                        	ADD	DWORD [-20+EBP],ESI
  3724 0000245F C1 FA 0A                        	SAR	EDX,10
  3725 00002462 01 5D F0                        	ADD	DWORD [-16+EBP],EBX
  3726 00002465 0F AF 45 E8                     	IMUL	EAX,DWORD [-24+EBP]
  3727 00002469 01 D0                           	ADD	EAX,EDX
  3728 0000246B 49                              	DEC	ECX
  3729 0000246C 8B 55 1C                        	MOV	EDX,DWORD [28+EBP]
  3730 0000246F 66 89 14 47                     	MOV	WORD [EDI+EAX*2],DX
  3731 00002473 75 DE                           	JNE	L563
  3732 00002475                                 L565:
  3733 00002475 83 C4 0C                        	ADD	ESP,12
  3734 00002478 5B                              	POP	EBX
  3735 00002479 5E                              	POP	ESI
  3736 0000247A 5F                              	POP	EDI
  3737 0000247B 5D                              	POP	EBP
  3738 0000247C C3                              	RET
  3739 0000247D                                 L552:
  3740 0000247D 2B 55 10                        	SUB	EDX,DWORD [16+EBP]
  3741 00002480 4A                              	DEC	EDX
  3742 00002481 EB B4                           	JMP	L567
  3743 00002483                                 L549:
  3744 00002483 8D 4E 01                        	LEA	ECX,DWORD [1+ESI]
  3745 00002486 39 55 10                        	CMP	DWORD [16+EBP],EDX
  3746 00002489 BE FFFFFC00                     	MOV	ESI,-1024
  3747 0000248E 7F 05                           	JG	L556
  3748 00002490 BE 00000400                     	MOV	ESI,1024
  3749 00002495                                 L556:
  3750 00002495 39 C7                           	CMP	EDI,EAX
  3751 00002497 7F 11                           	JG	L557
  3752 00002499 29 F8                           	SUB	EAX,EDI
  3753 0000249B 8D 50 01                        	LEA	EDX,DWORD [1+EAX]
  3754 0000249E                                 L566:
  3755 0000249E C1 E2 0A                        	SAL	EDX,10
  3756 000024A1 89 D0                           	MOV	EAX,EDX
  3757 000024A3 99                              	CDQ
  3758 000024A4 F7 F9                           	IDIV	ECX
  3759 000024A6 89 C3                           	MOV	EBX,EAX
  3760 000024A8 EB 97                           	JMP	L554
  3761 000024AA                                 L557:
  3762 000024AA 29 F8                           	SUB	EAX,EDI
  3763 000024AC 8D 50 FF                        	LEA	EDX,DWORD [-1+EAX]
  3764 000024AF EB ED                           	JMP	L566
  3765 000024B1                                 L569:
  3766 000024B1 F7 DE                           	NEG	ESI
  3767 000024B3 E9 FFFFFF61                     	JMP	L548
  3768 000024B8                                 L568:
  3769 000024B8 F7 DB                           	NEG	EBX
  3770 000024BA E9 FFFFFF52                     	JMP	L547
  3771 000024BF                                 	GLOBAL	_set_console_title
  3772 000024BF                                 _set_console_title:
  3773 000024BF 55                              	PUSH	EBP
  3774 000024C0 89 E5                           	MOV	EBP,ESP
  3775 000024C2 8B 45 08                        	MOV	EAX,DWORD [8+EBP]
  3776 000024C5 8B 00                           	MOV	EAX,DWORD [EAX]
  3777 000024C7 89 45 08                        	MOV	DWORD [8+EBP],EAX
  3778 000024CA 5D                              	POP	EBP
  3779 000024CB E9 [00000000]                   	JMP	_set_title
