     1 00000000                                 [FORMAT "WCOFF"]
     2 00000000                                 [INSTRSET "i486p"]
     3 00000000                                 [OPTIMIZE 1]
     4 00000000                                 [OPTION 1]
     5 00000000                                 [BITS 32]
     6 00000000                                 	EXTERN	_make_textbox8
     7 00000000                                 	EXTERN	_sheet_refresh
     8 00000000                                 	EXTERN	_putfonts8_asc_sht
     9 00000000                                 	EXTERN	_table_16_65536
    10 00000000                                 	EXTERN	_fat_flag
    11 00000000                                 	EXTERN	_u_fat
    12 00000000                                 	EXTERN	_hrb_api_fopen
    13 00000000                                 	EXTERN	_sprintf
    14 00000000                                 	EXTERN	_hrb_api_fwrite
    15 00000000                                 	EXTERN	_hrb_api_fclose
    16 00000000                                 [FILE "dbgs.c"]
    17                                          [SECTION .text]
    18 00000000                                 	GLOBAL	_dbg_init
    19 00000000                                 _dbg_init:
    20 00000000 55                              	PUSH	EBP
    21 00000001 89 E5                           	MOV	EBP,ESP
    22 00000003 68 000000B3                     	PUSH	179
    23 00000008 68 000000F0                     	PUSH	240
    24 0000000D 68 00000190                     	PUSH	400
    25 00000012 8B 45 08                        	MOV	EAX,DWORD [8+EBP]
    26 00000015 68 000000C8                     	PUSH	200
    27 0000001A A3 [00000020]                   	MOV	DWORD [_dbg],EAX
    28 0000001F 6A 0C                           	PUSH	12
    29 00000021 50                              	PUSH	EAX
    30 00000022 C7 05 [00000024] 000000B3       	MOV	DWORD [_dbg+4],179
    31 0000002C C7 05 [00000028] 0000000C       	MOV	DWORD [_dbg+8],12
    32 00000036 C7 05 [0000002C] 000000C8       	MOV	DWORD [_dbg+12],200
    33 00000040 C7 05 [00000030] 00000000       	MOV	DWORD [_dbg+16],0
    34 0000004A C7 05 [00000034] 00000000       	MOV	DWORD [_dbg+20],0
    35 00000054 C7 05 [00000038] 00000190       	MOV	DWORD [_dbg+24],400
    36 0000005E C7 05 [0000003C] 000000F0       	MOV	DWORD [_dbg+28],240
    37 00000068 E8 [00000000]                   	CALL	_make_textbox8
    38 0000006D 8B 15 [00000028]                	MOV	EDX,DWORD [_dbg+8]
    39 00000073 8B 0D [0000002C]                	MOV	ECX,DWORD [_dbg+12]
    40 00000079 89 C8                           	MOV	EAX,ECX
    41 0000007B 83 E9 03                        	SUB	ECX,3
    42 0000007E 03 05 [0000003C]                	ADD	EAX,DWORD [_dbg+28]
    43 00000084 83 C0 03                        	ADD	EAX,3
    44 00000087 50                              	PUSH	EAX
    45 00000088 89 D0                           	MOV	EAX,EDX
    46 0000008A 03 05 [00000038]                	ADD	EAX,DWORD [_dbg+24]
    47 00000090 83 EA 03                        	SUB	EDX,3
    48 00000093 83 C0 03                        	ADD	EAX,3
    49 00000096 50                              	PUSH	EAX
    50 00000097 51                              	PUSH	ECX
    51 00000098 52                              	PUSH	EDX
    52 00000099 FF 35 [00000020]                	PUSH	DWORD [_dbg]
    53 0000009F E8 [00000000]                   	CALL	_sheet_refresh
    54 000000A4 C6 05 [00000040] 01             	MOV	BYTE [_dbg+32],1
    55 000000AB C9                              	LEAVE
    56 000000AC C3                              	RET
    57                                          [SECTION .data]
    58 00000000                                 LC0:
    59 00000000 20 00                           	DB	" ",0x00
    60                                          [SECTION .text]
    61 000000AD                                 	GLOBAL	_dbg_putchar
    62 000000AD                                 _dbg_putchar:
    63 000000AD 55                              	PUSH	EBP
    64 000000AE 89 E5                           	MOV	EBP,ESP
    65 000000B0 53                              	PUSH	EBX
    66 000000B1 51                              	PUSH	ECX
    67 000000B2 8B 45 08                        	MOV	EAX,DWORD [8+EBP]
    68 000000B5 8B 5D 0C                        	MOV	EBX,DWORD [12+EBP]
    69 000000B8 88 45 FA                        	MOV	BYTE [-6+EBP],AL
    70 000000BB 3C 09                           	CMP	AL,9
    71 000000BD C6 45 FB 00                     	MOV	BYTE [-5+EBP],0
    72 000000C1 74 69                           	JE	L4
    73 000000C3 3C 0A                           	CMP	AL,10
    74 000000C5 74 28                           	JE	L17
    75 000000C7 3C 0D                           	CMP	AL,13
    76 000000C9 74 1F                           	JE	L2
    77 000000CB 8B 15 [00000020]                	MOV	EDX,DWORD [_dbg]
    78 000000D1 85 D2                           	TEST	EDX,EDX
    79 000000D3 75 27                           	JNE	L18
    80 000000D5                                 L15:
    81 000000D5 A1 [00000030]                   	MOV	EAX,DWORD [_dbg+16]
    82 000000DA 83 C0 08                        	ADD	EAX,8
    83 000000DD A3 [00000030]                   	MOV	DWORD [_dbg+16],EAX
    84 000000E2 3B 05 [00000038]                	CMP	EAX,DWORD [_dbg+24]
    85 000000E8 74 05                           	JE	L17
    86 000000EA                                 L2:
    87 000000EA 8B 5D FC                        	MOV	EBX,DWORD [-4+EBP]
    88 000000ED C9                              	LEAVE
    89 000000EE C3                              	RET
    90 000000EF                                 L17:
    91 000000EF 68 [00000020]                   	PUSH	_dbg
    92 000000F4 E8 0000009B                     	CALL	_dbg_newline
    93 000000F9 58                              	POP	EAX
    94 000000FA EB EE                           	JMP	L2
    95 000000FC                                 L18:
    96 000000FC 6A 01                           	PUSH	1
    97 000000FE 8D 45 FA                        	LEA	EAX,DWORD [-6+EBP]
    98 00000101 50                              	PUSH	EAX
    99 00000102 A1 [00000034]                   	MOV	EAX,DWORD [_dbg+20]
   100 00000107 FF 35 [00000024]                	PUSH	DWORD [_dbg+4]
   101 0000010D 03 05 [0000002C]                	ADD	EAX,DWORD [_dbg+12]
   102 00000113 53                              	PUSH	EBX
   103 00000114 50                              	PUSH	EAX
   104 00000115 A1 [00000030]                   	MOV	EAX,DWORD [_dbg+16]
   105 0000011A 03 05 [00000028]                	ADD	EAX,DWORD [_dbg+8]
   106 00000120 50                              	PUSH	EAX
   107 00000121 52                              	PUSH	EDX
   108 00000122 E8 [00000000]                   	CALL	_putfonts8_asc_sht
   109 00000127 83 C4 1C                        	ADD	ESP,28
   110 0000012A EB A9                           	JMP	L15
   111 0000012C                                 L4:
   112 0000012C 8B 15 [00000020]                	MOV	EDX,DWORD [_dbg]
   113 00000132 85 D2                           	TEST	EDX,EDX
   114 00000134 75 2D                           	JNE	L19
   115 00000136                                 L7:
   116 00000136 A1 [00000030]                   	MOV	EAX,DWORD [_dbg+16]
   117 0000013B 83 C0 08                        	ADD	EAX,8
   118 0000013E A3 [00000030]                   	MOV	DWORD [_dbg+16],EAX
   119 00000143 3B 05 [00000038]                	CMP	EAX,DWORD [_dbg+24]
   120 00000149 74 0B                           	JE	L20
   121 0000014B                                 L8:
   122 0000014B F6 05 [00000030] 1F             	TEST	BYTE [_dbg+16],31
   123 00000152 75 D8                           	JNE	L4
   124 00000154 EB 94                           	JMP	L2
   125 00000156                                 L20:
   126 00000156 68 [00000020]                   	PUSH	_dbg
   127 0000015B E8 00000034                     	CALL	_dbg_newline
   128 00000160 5A                              	POP	EDX
   129 00000161 EB E8                           	JMP	L8
   130 00000163                                 L19:
   131 00000163 6A 01                           	PUSH	1
   132 00000165 A1 [00000034]                   	MOV	EAX,DWORD [_dbg+20]
   133 0000016A 68 [00000000]                   	PUSH	LC0
   134 0000016F 03 05 [0000002C]                	ADD	EAX,DWORD [_dbg+12]
   135 00000175 FF 35 [00000024]                	PUSH	DWORD [_dbg+4]
   136 0000017B 53                              	PUSH	EBX
   137 0000017C 50                              	PUSH	EAX
   138 0000017D A1 [00000030]                   	MOV	EAX,DWORD [_dbg+16]
   139 00000182 03 05 [00000028]                	ADD	EAX,DWORD [_dbg+8]
   140 00000188 50                              	PUSH	EAX
   141 00000189 52                              	PUSH	EDX
   142 0000018A E8 [00000000]                   	CALL	_putfonts8_asc_sht
   143 0000018F 83 C4 1C                        	ADD	ESP,28
   144 00000192 EB A2                           	JMP	L7
   145 00000194                                 	GLOBAL	_dbg_newline
   146 00000194                                 _dbg_newline:
   147 00000194 55                              	PUSH	EBP
   148 00000195 89 E5                           	MOV	EBP,ESP
   149 00000197 57                              	PUSH	EDI
   150 00000198 56                              	PUSH	ESI
   151 00000199 53                              	PUSH	EBX
   152 0000019A 83 EC 38                        	SUB	ESP,56
   153 0000019D 8B 75 08                        	MOV	ESI,DWORD [8+EBP]
   154 000001A0 8B 56 1C                        	MOV	EDX,DWORD [28+ESI]
   155 000001A3 8B 06                           	MOV	EAX,DWORD [ESI]
   156 000001A5 89 45 F0                        	MOV	DWORD [-16+EBP],EAX
   157 000001A8 89 55 EC                        	MOV	DWORD [-20+EBP],EDX
   158 000001AB 89 D0                           	MOV	EAX,EDX
   159 000001AD 8B 56 14                        	MOV	EDX,DWORD [20+ESI]
   160 000001B0 83 E8 10                        	SUB	EAX,16
   161 000001B3 C7 46 10 00000000               	MOV	DWORD [16+ESI],0
   162 000001BA 39 C2                           	CMP	EDX,EAX
   163 000001BC 7D 0E                           	JGE	L22
   164 000001BE 8D 42 10                        	LEA	EAX,DWORD [16+EDX]
   165 000001C1 89 46 14                        	MOV	DWORD [20+ESI],EAX
   166 000001C4                                 L21:
   167 000001C4 8D 65 F4                        	LEA	ESP,DWORD [-12+EBP]
   168 000001C7 5B                              	POP	EBX
   169 000001C8 5E                              	POP	ESI
   170 000001C9 5F                              	POP	EDI
   171 000001CA 5D                              	POP	EBP
   172 000001CB C3                              	RET
   173 000001CC                                 L22:
   174 000001CC 83 7D F0 00                     	CMP	DWORD [-16+EBP],0
   175 000001D0 74 F2                           	JE	L21
   176 000001D2 8B 5E 0C                        	MOV	EBX,DWORD [12+ESI]
   177 000001D5 8B 4D EC                        	MOV	ECX,DWORD [-20+EBP]
   178 000001D8 89 5D D4                        	MOV	DWORD [-44+EBP],EBX
   179 000001DB 8D 44 19 F0                     	LEA	EAX,DWORD [-16+ECX+EBX*1]
   180 000001DF 39 C3                           	CMP	EBX,EAX
   181 000001E1 7D 56                           	JGE	L46
   182 000001E3                                 L34:
   183 000001E3 8B 4E 08                        	MOV	ECX,DWORD [8+ESI]
   184 000001E6 8B 7E 18                        	MOV	EDI,DWORD [24+ESI]
   185 000001E9 89 4D E8                        	MOV	DWORD [-24+EBP],ECX
   186 000001EC 89 7D D8                        	MOV	DWORD [-40+EBP],EDI
   187 000001EF 8D 04 0F                        	LEA	EAX,DWORD [EDI+ECX*1]
   188 000001F2 39 C1                           	CMP	ECX,EAX
   189 000001F4 7D 34                           	JGE	L48
   190 000001F6 8B 45 F0                        	MOV	EAX,DWORD [-16+EBP]
   191 000001F9 8B 55 F0                        	MOV	EDX,DWORD [-16+EBP]
   192 000001FC 8B 40 04                        	MOV	EAX,DWORD [4+EAX]
   193 000001FF 8B 3A                           	MOV	EDI,DWORD [EDX]
   194 00000201 89 45 CC                        	MOV	DWORD [-52+EBP],EAX
   195 00000204                                 L33:
   196 00000204 8D 43 10                        	LEA	EAX,DWORD [16+EBX]
   197 00000207 8B 55 CC                        	MOV	EDX,DWORD [-52+EBP]
   198 0000020A 0F AF 45 CC                     	IMUL	EAX,DWORD [-52+EBP]
   199 0000020E 0F AF D3                        	IMUL	EDX,EBX
   200 00000211 8D 04 08                        	LEA	EAX,DWORD [EAX+ECX*1]
   201 00000214 8D 14 0A                        	LEA	EDX,DWORD [EDX+ECX*1]
   202 00000217 41                              	INC	ECX
   203 00000218 66 8B 04 47                     	MOV	AX,WORD [EDI+EAX*2]
   204 0000021C 66 89 04 57                     	MOV	WORD [EDI+EDX*2],AX
   205 00000220 8B 45 E8                        	MOV	EAX,DWORD [-24+EBP]
   206 00000223 03 45 D8                        	ADD	EAX,DWORD [-40+EBP]
   207 00000226 39 C1                           	CMP	ECX,EAX
   208 00000228 7C DA                           	JL	L33
   209 0000022A                                 L48:
   210 0000022A 8B 4D D4                        	MOV	ECX,DWORD [-44+EBP]
   211 0000022D 8B 7D EC                        	MOV	EDI,DWORD [-20+EBP]
   212 00000230 43                              	INC	EBX
   213 00000231 8D 44 0F F0                     	LEA	EAX,DWORD [-16+EDI+ECX*1]
   214 00000235 39 C3                           	CMP	EBX,EAX
   215 00000237 7C AA                           	JL	L34
   216 00000239                                 L46:
   217 00000239 8B 46 0C                        	MOV	EAX,DWORD [12+ESI]
   218 0000023C 8B 56 1C                        	MOV	EDX,DWORD [28+ESI]
   219 0000023F 89 45 E4                        	MOV	DWORD [-28+EBP],EAX
   220 00000242 89 55 E0                        	MOV	DWORD [-32+EBP],EDX
   221 00000245 8D 5C 02 F0                     	LEA	EBX,DWORD [-16+EDX+EAX*1]
   222 00000249                                 L44:
   223 00000249 8B 4E 08                        	MOV	ECX,DWORD [8+ESI]
   224 0000024C 8B 7E 18                        	MOV	EDI,DWORD [24+ESI]
   225 0000024F 89 4D DC                        	MOV	DWORD [-36+EBP],ECX
   226 00000252 89 7D BC                        	MOV	DWORD [-68+EBP],EDI
   227 00000255 8D 04 0F                        	LEA	EAX,DWORD [EDI+ECX*1]
   228 00000258 39 C1                           	CMP	ECX,EAX
   229 0000025A 7D 37                           	JGE	L52
   230 0000025C 8B 45 F0                        	MOV	EAX,DWORD [-16+EBP]
   231 0000025F 8B 55 F0                        	MOV	EDX,DWORD [-16+EBP]
   232 00000262 8B 40 04                        	MOV	EAX,DWORD [4+EAX]
   233 00000265 8B 12                           	MOV	EDX,DWORD [EDX]
   234 00000267 89 45 D0                        	MOV	DWORD [-48+EBP],EAX
   235 0000026A 89 55 C8                        	MOV	DWORD [-56+EBP],EDX
   236 0000026D                                 L43:
   237 0000026D 8B 45 D0                        	MOV	EAX,DWORD [-48+EBP]
   238 00000270 8B 56 04                        	MOV	EDX,DWORD [4+ESI]
   239 00000273 0F AF C3                        	IMUL	EAX,EBX
   240 00000276 66 8B 94 12 [00000000]          	MOV	DX,WORD [_table_16_65536+EDX+EDX*1]
   241 0000027E 8B 7D C8                        	MOV	EDI,DWORD [-56+EBP]
   242 00000281 8D 04 08                        	LEA	EAX,DWORD [EAX+ECX*1]
   243 00000284 41                              	INC	ECX
   244 00000285 66 89 14 47                     	MOV	WORD [EDI+EAX*2],DX
   245 00000289 8B 45 DC                        	MOV	EAX,DWORD [-36+EBP]
   246 0000028C 03 45 BC                        	ADD	EAX,DWORD [-68+EBP]
   247 0000028F 39 C1                           	CMP	ECX,EAX
   248 00000291 7C DA                           	JL	L43
   249 00000293                                 L52:
   250 00000293 8B 45 E4                        	MOV	EAX,DWORD [-28+EBP]
   251 00000296 43                              	INC	EBX
   252 00000297 03 45 E0                        	ADD	EAX,DWORD [-32+EBP]
   253 0000029A 39 C3                           	CMP	EBX,EAX
   254 0000029C 7C AB                           	JL	L44
   255 0000029E 8B 4E 0C                        	MOV	ECX,DWORD [12+ESI]
   256 000002A1 89 C8                           	MOV	EAX,ECX
   257 000002A3 03 46 1C                        	ADD	EAX,DWORD [28+ESI]
   258 000002A6 50                              	PUSH	EAX
   259 000002A7 8B 56 08                        	MOV	EDX,DWORD [8+ESI]
   260 000002AA 89 D0                           	MOV	EAX,EDX
   261 000002AC 03 46 18                        	ADD	EAX,DWORD [24+ESI]
   262 000002AF 50                              	PUSH	EAX
   263 000002B0 51                              	PUSH	ECX
   264 000002B1 52                              	PUSH	EDX
   265 000002B2 FF 75 F0                        	PUSH	DWORD [-16+EBP]
   266 000002B5 E8 [00000000]                   	CALL	_sheet_refresh
   267 000002BA 83 C4 14                        	ADD	ESP,20
   268 000002BD E9 FFFFFF02                     	JMP	L21
   269 000002C2                                 	GLOBAL	_dbg_putstr0
   270 000002C2                                 _dbg_putstr0:
   271 000002C2 55                              	PUSH	EBP
   272 000002C3 89 E5                           	MOV	EBP,ESP
   273 000002C5 56                              	PUSH	ESI
   274 000002C6 53                              	PUSH	EBX
   275 000002C7 8B 75 0C                        	MOV	ESI,DWORD [12+EBP]
   276 000002CA 8B 5D 08                        	MOV	EBX,DWORD [8+EBP]
   277 000002CD 80 3D [00000040] 01             	CMP	BYTE [_dbg+32],1
   278 000002D4 74 07                           	JE	L61
   279 000002D6                                 L53:
   280 000002D6 8D 65 F8                        	LEA	ESP,DWORD [-8+EBP]
   281 000002D9 5B                              	POP	EBX
   282 000002DA 5E                              	POP	ESI
   283 000002DB 5D                              	POP	EBP
   284 000002DC C3                              	RET
   285 000002DD                                 L61:
   286 000002DD 80 3B 00                        	CMP	BYTE [EBX],0
   287 000002E0 74 F4                           	JE	L53
   288 000002E2                                 L59:
   289 000002E2 56                              	PUSH	ESI
   290 000002E3 0F BE 03                        	MOVSX	EAX,BYTE [EBX]
   291 000002E6 50                              	PUSH	EAX
   292 000002E7 43                              	INC	EBX
   293 000002E8 E8 FFFFFDC0                     	CALL	_dbg_putchar
   294 000002ED 58                              	POP	EAX
   295 000002EE 5A                              	POP	EDX
   296 000002EF 80 3B 00                        	CMP	BYTE [EBX],0
   297 000002F2 75 EE                           	JNE	L59
   298 000002F4 EB E0                           	JMP	L53
   299 000002F6                                 	GLOBAL	_dbg_putstr1
   300 000002F6                                 _dbg_putstr1:
   301 000002F6 55                              	PUSH	EBP
   302 000002F7 89 E5                           	MOV	EBP,ESP
   303 000002F9 57                              	PUSH	EDI
   304 000002FA 56                              	PUSH	ESI
   305 000002FB 53                              	PUSH	EBX
   306 000002FC 8B 75 0C                        	MOV	ESI,DWORD [12+EBP]
   307 000002FF 31 DB                           	XOR	EBX,EBX
   308 00000301 8B 7D 10                        	MOV	EDI,DWORD [16+EBP]
   309 00000304 39 F3                           	CMP	EBX,ESI
   310 00000306 7C 08                           	JL	L67
   311 00000308                                 L69:
   312 00000308 8D 65 F4                        	LEA	ESP,DWORD [-12+EBP]
   313 0000030B 5B                              	POP	EBX
   314 0000030C 5E                              	POP	ESI
   315 0000030D 5F                              	POP	EDI
   316 0000030E 5D                              	POP	EBP
   317 0000030F C3                              	RET
   318 00000310                                 L67:
   319 00000310 8B 55 08                        	MOV	EDX,DWORD [8+EBP]
   320 00000313 57                              	PUSH	EDI
   321 00000314 0F BE 04 13                     	MOVSX	EAX,BYTE [EBX+EDX*1]
   322 00000318 50                              	PUSH	EAX
   323 00000319 43                              	INC	EBX
   324 0000031A E8 FFFFFD8E                     	CALL	_dbg_putchar
   325 0000031F 39 F3                           	CMP	EBX,ESI
   326 00000321 59                              	POP	ECX
   327 00000322 58                              	POP	EAX
   328 00000323 7C EB                           	JL	L67
   329 00000325 EB E1                           	JMP	L69
   330                                          [SECTION .data]
   331 00000002                                 LC1:
   332 00000002 2F 7A 74 65 78 74 2E 74 78 74   	DB	"/ztext.txt",0x00
       0000000C 00 
   333 0000000D                                 LC2:
   334 0000000D 5B 6C 6F 67 5D 25 73 0A 00      	DB	"[log]%s",0x0A,0x00
   335                                          [SECTION .text]
   336 00000327                                 	GLOBAL	_out_log
   337 00000327                                 _out_log:
   338 00000327 55                              	PUSH	EBP
   339 00000328 89 E5                           	MOV	EBP,ESP
   340 0000032A 57                              	PUSH	EDI
   341 0000032B 56                              	PUSH	ESI
   342 0000032C 53                              	PUSH	EBX
   343 0000032D 81 EC 00000120                  	SUB	ESP,288
   344 00000333 80 3D [00000000] 00             	CMP	BYTE [_fat_flag],0
   345 0000033A 75 08                           	JNE	L72
   346 0000033C                                 L70:
   347 0000033C 8D 65 F4                        	LEA	ESP,DWORD [-12+EBP]
   348 0000033F 5B                              	POP	EBX
   349 00000340 5E                              	POP	ESI
   350 00000341 5F                              	POP	EDI
   351 00000342 5D                              	POP	EBP
   352 00000343 C3                              	RET
   353 00000344                                 L72:
   354 00000344 FF 35 [00000000]                	PUSH	DWORD [_u_fat]
   355 0000034A 8D 75 D4                        	LEA	ESI,DWORD [-44+EBP]
   356 0000034D 8D BD FFFFFED4                  	LEA	EDI,DWORD [-300+EBP]
   357 00000353 56                              	PUSH	ESI
   358 00000354 8D 9D FFFFFED4                  	LEA	EBX,DWORD [-300+EBP]
   359 0000035A 6A 00                           	PUSH	0
   360 0000035C 68 [00000002]                   	PUSH	LC1
   361 00000361 E8 [00000000]                   	CALL	_hrb_api_fopen
   362 00000366 31 C0                           	XOR	EAX,EAX
   363 00000368 FC                              	CLD
   364 00000369 B9 00000040                     	MOV	ECX,64
   365 0000036E F3                              	REP
   366 0000036F AB                              	STOSD
   367 00000370 FF 75 08                        	PUSH	DWORD [8+EBP]
   368 00000373 68 [0000000D]                   	PUSH	LC2
   369 00000378 89 DF                           	MOV	EDI,EBX
   370 0000037A 53                              	PUSH	EBX
   371 0000037B E8 [00000000]                   	CALL	_sprintf
   372 00000380 31 C0                           	XOR	EAX,EAX
   373 00000382 FF 35 [00000000]                	PUSH	DWORD [_u_fat]
   374 00000388 FC                              	CLD
   375 00000389 56                              	PUSH	ESI
   376 0000038A 83 C9 FF                        	OR	ECX,-1
   377 0000038D F2                              	REPNE
   378 0000038E AE                              	SCASB
   379 0000038F F7 D1                           	NOT	ECX
   380 00000391 49                              	DEC	ECX
   381 00000392 51                              	PUSH	ECX
   382 00000393 53                              	PUSH	EBX
   383 00000394 E8 [00000000]                   	CALL	_hrb_api_fwrite
   384 00000399 83 C4 2C                        	ADD	ESP,44
   385 0000039C FF 35 [00000000]                	PUSH	DWORD [_u_fat]
   386 000003A2 56                              	PUSH	ESI
   387 000003A3 E8 [00000000]                   	CALL	_hrb_api_fclose
   388 000003A8 EB 92                           	JMP	L70
   389 000003AA                                 	GLOBAL	_dbg
   390                                          [SECTION .data]
   391 00000016 00 00 00 00 00 00 00 00 00 00   	ALIGNB	16
   392 00000020                                 _dbg:
   393 00000020 00 00 00 00 00 00 00 00 00 00   	RESB	33
       0000002A 00 00 00 00 00 00 00 00 00 00 
       00000034 00 00 00 00 00 00 00 00 00 00 
       0000003E 00 00 00 
