     1 00000000                                 [FORMAT "WCOFF"]
     2 00000000                                 [INSTRSET "i486p"]
     3 00000000                                 [OPTIMIZE 1]
     4 00000000                                 [OPTION 1]
     5 00000000                                 [BITS 32]
     6 00000000                                 	EXTERN	_table_rgb.0
     7 00000000                                 	EXTERN	_io_load_eflags
     8 00000000                                 	EXTERN	_io_cli
     9 00000000                                 	EXTERN	_io_out8
    10 00000000                                 	EXTERN	_io_store_eflags
    11 00000000                                 	EXTERN	_task_now
    12 00000000                                 	EXTERN	_hankaku
    13 00000000                                 	EXTERN	_file_search2
    14 00000000                                 	EXTERN	_memman_alloc_4k
    15 00000000                                 	EXTERN	_file_loadfile2
    16 00000000                                 	EXTERN	_info_JPEG
    17 00000000                                 	EXTERN	_decode0_JPEG
    18 00000000                                 	EXTERN	_memman_free_4k
    19 00000000                                 [FILE "graphic.c"]
    20                                          [SECTION .data]
    21 00000000                                 _table_rgb.0:
    22 00000000 00                              	DB	0
    23 00000001 00                              	DB	0
    24 00000002 00                              	DB	0
    25 00000003 FF                              	DB	-1
    26 00000004 00                              	DB	0
    27 00000005 00                              	DB	0
    28 00000006 00                              	DB	0
    29 00000007 FF                              	DB	-1
    30 00000008 00                              	DB	0
    31 00000009 FF                              	DB	-1
    32 0000000A FF                              	DB	-1
    33 0000000B 00                              	DB	0
    34 0000000C 00                              	DB	0
    35 0000000D 00                              	DB	0
    36 0000000E FF                              	DB	-1
    37 0000000F FF                              	DB	-1
    38 00000010 00                              	DB	0
    39 00000011 FF                              	DB	-1
    40 00000012 00                              	DB	0
    41 00000013 FF                              	DB	-1
    42 00000014 FF                              	DB	-1
    43 00000015 FF                              	DB	-1
    44 00000016 FF                              	DB	-1
    45 00000017 FF                              	DB	-1
    46 00000018 C6                              	DB	-58
    47 00000019 C6                              	DB	-58
    48 0000001A C6                              	DB	-58
    49 0000001B 84                              	DB	-124
    50 0000001C 00                              	DB	0
    51 0000001D 00                              	DB	0
    52 0000001E 00                              	DB	0
    53 0000001F 84                              	DB	-124
    54 00000020 00                              	DB	0
    55 00000021 84                              	DB	-124
    56 00000022 84                              	DB	-124
    57 00000023 00                              	DB	0
    58 00000024 00                              	DB	0
    59 00000025 00                              	DB	0
    60 00000026 84                              	DB	-124
    61 00000027 84                              	DB	-124
    62 00000028 00                              	DB	0
    63 00000029 84                              	DB	-124
    64 0000002A 00                              	DB	0
    65 0000002B 84                              	DB	-124
    66 0000002C 84                              	DB	-124
    67 0000002D 84                              	DB	-124
    68 0000002E 84                              	DB	-124
    69 0000002F 84                              	DB	-124
    70                                          [SECTION .text]
    71 00000000                                 	GLOBAL	_init_palette
    72 00000000                                 _init_palette:
    73 00000000 55                              	PUSH	EBP
    74 00000001 89 E5                           	MOV	EBP,ESP
    75 00000003 57                              	PUSH	EDI
    76 00000004 56                              	PUSH	ESI
    77 00000005 53                              	PUSH	EBX
    78 00000006 81 EC 000002AC                  	SUB	ESP,684
    79 0000000C A0 000005F2                     	MOV	AL,BYTE [1522]
    80 00000011 3C 08                           	CMP	AL,8
    81 00000013 0F 84 00000200                  	JE	L90
    82 00000019 3C 10                           	CMP	AL,16
    83 0000001B 0F 84 000000BA                  	JE	L91
    84 00000021 3C 18                           	CMP	AL,24
    85 00000023 74 08                           	JE	L92
    86 00000025                                 L1:
    87 00000025 8D 65 F4                        	LEA	ESP,DWORD [-12+EBP]
    88 00000028 5B                              	POP	EBX
    89 00000029 5E                              	POP	ESI
    90 0000002A 5F                              	POP	EDI
    91 0000002B 5D                              	POP	EBP
    92 0000002C C3                              	RET
    93 0000002D                                 L92:
    94 0000002D 31 DB                           	XOR	EBX,EBX
    95 0000002F C7 85 FFFFFD60 00000000         	MOV	DWORD [-672+EBP],0
    96 00000039                                 L61:
    97 00000039 31 FF                           	XOR	EDI,EDI
    98 0000003B C7 85 FFFFFD5C 00000000         	MOV	DWORD [-676+EBP],0
    99 00000045                                 L60:
   100 00000045 31 F6                           	XOR	ESI,ESI
   101 00000047 B9 0000001F                     	MOV	ECX,31
   102 0000004C                                 L59:
   103 0000004C 89 F0                           	MOV	EAX,ESI
   104 0000004E 8B 95 FFFFFD5C                  	MOV	EDX,DWORD [-676+EBP]
   105 00000054 66 81 E2 07E0                   	AND	DX,2016
   106 00000059 81 C6 00000800                  	ADD	ESI,2048
   107 0000005F 66 25 F800                      	AND	AX,-2048
   108 00000063 09 D0                           	OR	EAX,EDX
   109 00000065 8B 95 FFFFFD60                  	MOV	EDX,DWORD [-672+EBP]
   110 0000006B 83 E2 1F                        	AND	EDX,31
   111 0000006E 09 D0                           	OR	EAX,EDX
   112 00000070 66 89 84 1B [00000890]          	MOV	WORD [_table_16_65536+EBX+EBX*1],AX
   113 00000078 43                              	INC	EBX
   114 00000079 49                              	DEC	ECX
   115 0000007A 79 D0                           	JNS	L59
   116 0000007C 47                              	INC	EDI
   117 0000007D 83 85 FFFFFD5C 10               	ADD	DWORD [-676+EBP],16
   118 00000084 83 FF 3F                        	CMP	EDI,63
   119 00000087 7E BC                           	JLE	L60
   120 00000089 FF 85 FFFFFD60                  	INC	DWORD [-672+EBP]
   121 0000008F 83 BD FFFFFD60 1F               	CMP	DWORD [-672+EBP],31
   122 00000096 7E A1                           	JLE	L61
   123 00000098 31 DB                           	XOR	EBX,EBX
   124 0000009A 31 C9                           	XOR	ECX,ECX
   125 0000009C                                 L66:
   126 0000009C 0F B6 81 [00000001]             	MOVZX	EAX,BYTE [_table_rgb.0+1+ECX]
   127 000000A3 0F B6 91 [00000000]             	MOVZX	EDX,BYTE [_table_rgb.0+ECX]
   128 000000AA C1 E0 04                        	SAL	EAX,4
   129 000000AD 66 25 07E0                      	AND	AX,2016
   130 000000B1 C1 E2 0B                        	SAL	EDX,11
   131 000000B4 09 C2                           	OR	EDX,EAX
   132 000000B6 8A 81 [00000002]                	MOV	AL,BYTE [_table_rgb.0+2+ECX]
   133 000000BC 83 E0 1F                        	AND	EAX,31
   134 000000BF 83 C1 03                        	ADD	ECX,3
   135 000000C2 66 0F B6 C0                     	MOVZX	AX,AL
   136 000000C6 09 C2                           	OR	EDX,EAX
   137 000000C8 66 89 94 1B [00000890]          	MOV	WORD [_table_16_65536+EBX+EBX*1],DX
   138 000000D0 43                              	INC	EBX
   139 000000D1 83 FB 0F                        	CMP	EBX,15
   140 000000D4 7E C6                           	JLE	L66
   141 000000D6 E9 FFFFFF4A                     	JMP	L1
   142 000000DB                                 L91:
   143 000000DB 31 DB                           	XOR	EBX,EBX
   144 000000DD C7 85 FFFFFD60 00000000         	MOV	DWORD [-672+EBP],0
   145 000000E7                                 L39:
   146 000000E7 31 FF                           	XOR	EDI,EDI
   147 000000E9 C7 85 FFFFFD58 00000000         	MOV	DWORD [-680+EBP],0
   148 000000F3                                 L38:
   149 000000F3 31 F6                           	XOR	ESI,ESI
   150 000000F5 B9 0000001F                     	MOV	ECX,31
   151 000000FA                                 L37:
   152 000000FA 89 F0                           	MOV	EAX,ESI
   153 000000FC 8B 95 FFFFFD58                  	MOV	EDX,DWORD [-680+EBP]
   154 00000102 66 81 E2 07E0                   	AND	DX,2016
   155 00000107 81 C6 00000800                  	ADD	ESI,2048
   156 0000010D 66 25 F800                      	AND	AX,-2048
   157 00000111 09 D0                           	OR	EAX,EDX
   158 00000113 8B 95 FFFFFD60                  	MOV	EDX,DWORD [-672+EBP]
   159 00000119 83 E2 1F                        	AND	EDX,31
   160 0000011C 09 D0                           	OR	EAX,EDX
   161 0000011E 66 89 84 1B [00000890]          	MOV	WORD [_table_16_65536+EBX+EBX*1],AX
   162 00000126 43                              	INC	EBX
   163 00000127 49                              	DEC	ECX
   164 00000128 79 D0                           	JNS	L37
   165 0000012A 47                              	INC	EDI
   166 0000012B 83 85 FFFFFD58 10               	ADD	DWORD [-680+EBP],16
   167 00000132 83 FF 3F                        	CMP	EDI,63
   168 00000135 7E BC                           	JLE	L38
   169 00000137 FF 85 FFFFFD60                  	INC	DWORD [-672+EBP]
   170 0000013D 83 BD FFFFFD60 1F               	CMP	DWORD [-672+EBP],31
   171 00000144 7E A1                           	JLE	L39
   172 00000146 31 DB                           	XOR	EBX,EBX
   173 00000148 31 C9                           	XOR	ECX,ECX
   174 0000014A                                 L44:
   175 0000014A 0F B6 81 [00000001]             	MOVZX	EAX,BYTE [_table_rgb.0+1+ECX]
   176 00000151 0F B6 91 [00000002]             	MOVZX	EDX,BYTE [_table_rgb.0+2+ECX]
   177 00000158 C1 E0 04                        	SAL	EAX,4
   178 0000015B 66 25 07E0                      	AND	AX,2016
   179 0000015F C1 E2 0B                        	SAL	EDX,11
   180 00000162 09 C2                           	OR	EDX,EAX
   181 00000164 8A 81 [00000000]                	MOV	AL,BYTE [_table_rgb.0+ECX]
   182 0000016A 83 E0 1F                        	AND	EAX,31
   183 0000016D 83 C1 03                        	ADD	ECX,3
   184 00000170 66 0F B6 C0                     	MOVZX	AX,AL
   185 00000174 09 C2                           	OR	EDX,EAX
   186 00000176 66 89 94 1B [00000890]          	MOV	WORD [_table_16_65536+EBX+EBX*1],DX
   187 0000017E 43                              	INC	EBX
   188 0000017F 83 FB 0F                        	CMP	EBX,15
   189 00000182 7E C6                           	JLE	L44
   190 00000184 66 C7 05 [00000890] 0000        	MOV	WORD [_table_16_65536],0
   191 0000018D 66 C7 05 [00000892] F800        	MOV	WORD [_table_16_65536+2],-2048
   192 00000196 66 C7 05 [00000894] 07E0        	MOV	WORD [_table_16_65536+4],2016
   193 0000019F 66 C7 05 [00000896] FFE0        	MOV	WORD [_table_16_65536+6],-32
   194 000001A8 66 C7 05 [00000898] 001F        	MOV	WORD [_table_16_65536+8],31
   195 000001B1 66 C7 05 [0000089A] F81F        	MOV	WORD [_table_16_65536+10],-2017
   196 000001BA 66 C7 05 [0000089C] 07FF        	MOV	WORD [_table_16_65536+12],2047
   197 000001C3 66 C7 05 [0000089E] FFFF        	MOV	WORD [_table_16_65536+14],-1
   198 000001CC 66 C7 05 [000008A0] 79EF        	MOV	WORD [_table_16_65536+16],31215
   199 000001D5 66 C7 05 [000008A2] 3800        	MOV	WORD [_table_16_65536+18],14336
   200 000001DE 66 C7 05 [000008A4] 00E0        	MOV	WORD [_table_16_65536+20],224
   201 000001E7 66 C7 05 [000008A6] 38E0        	MOV	WORD [_table_16_65536+22],14560
   202 000001F0 66 C7 05 [000008A8] 0007        	MOV	WORD [_table_16_65536+24],7
   203 000001F9 66 C7 05 [000008AA] 3807        	MOV	WORD [_table_16_65536+26],14343
   204 00000202 66 C7 05 [000008AC] 00E7        	MOV	WORD [_table_16_65536+28],231
   205 0000020B 66 C7 05 [000008AE] 38E7        	MOV	WORD [_table_16_65536+30],14567
   206 00000214 E9 FFFFFE0C                     	JMP	L1
   207 00000219                                 L90:
   208 00000219 31 C0                           	XOR	EAX,EAX
   209 0000021B                                 L7:
   210 0000021B 66 89 84 00 [00000890]          	MOV	WORD [_table_16_65536+EAX+EAX*1],AX
   211 00000223 40                              	INC	EAX
   212 00000224 83 F8 0F                        	CMP	EAX,15
   213 00000227 7E F2                           	JLE	L7
   214 00000229 68 [00000000]                   	PUSH	_table_rgb.0
   215 0000022E 6A 0F                           	PUSH	15
   216 00000230 6A 00                           	PUSH	0
   217 00000232 E8 000000D7                     	CALL	_set_palette
   218 00000237 83 C4 0C                        	ADD	ESP,12
   219 0000023A C7 85 FFFFFD60 00000000         	MOV	DWORD [-672+EBP],0
   220 00000244 C7 85 FFFFFD50 00000000         	MOV	DWORD [-688+EBP],0
   221 0000024E C7 85 FFFFFD4C 00000000         	MOV	DWORD [-692+EBP],0
   222 00000258                                 L22:
   223 00000258 31 FF                           	XOR	EDI,EDI
   224 0000025A 31 F6                           	XOR	ESI,ESI
   225 0000025C C7 85 FFFFFD54 00000000         	MOV	DWORD [-684+EBP],0
   226 00000266                                 L21:
   227 00000266 31 C9                           	XOR	ECX,ECX
   228 00000268 31 DB                           	XOR	EBX,EBX
   229 0000026A                                 L20:
   230 0000026A 8B 95 FFFFFD4C                  	MOV	EDX,DWORD [-692+EBP]
   231 00000270 01 F2                           	ADD	EDX,ESI
   232 00000272 01 CA                           	ADD	EDX,ECX
   233 00000274 6B C2 03                        	IMUL	EAX,EDX,3
   234 00000277 89 95 FFFFFD48                  	MOV	DWORD [-696+EBP],EDX
   235 0000027D 88 9C 05 FFFFFD64               	MOV	BYTE [-668+EBP+EAX*1],BL
   236 00000284 83 C3 33                        	ADD	EBX,51
   237 00000287 8A 95 FFFFFD54                  	MOV	DL,BYTE [-684+EBP]
   238 0000028D 88 94 05 FFFFFD65               	MOV	BYTE [-667+EBP+EAX*1],DL
   239 00000294 8A 95 FFFFFD50                  	MOV	DL,BYTE [-688+EBP]
   240 0000029A 88 94 05 FFFFFD66               	MOV	BYTE [-666+EBP+EAX*1],DL
   241 000002A1 8B 95 FFFFFD4C                  	MOV	EDX,DWORD [-692+EBP]
   242 000002A7 8D 04 32                        	LEA	EAX,DWORD [EDX+ESI*1]
   243 000002AA 8B 95 FFFFFD48                  	MOV	EDX,DWORD [-696+EBP]
   244 000002B0 8D 44 01 10                     	LEA	EAX,DWORD [16+ECX+EAX*1]
   245 000002B4 41                              	INC	ECX
   246 000002B5 66 89 84 12 [000008B0]          	MOV	WORD [_table_16_65536+32+EDX+EDX*1],AX
   247 000002BD 83 F9 05                        	CMP	ECX,5
   248 000002C0 7E A8                           	JLE	L20
   249 000002C2 47                              	INC	EDI
   250 000002C3 83 C6 06                        	ADD	ESI,6
   251 000002C6 83 85 FFFFFD54 33               	ADD	DWORD [-684+EBP],51
   252 000002CD 83 FF 05                        	CMP	EDI,5
   253 000002D0 7E 94                           	JLE	L21
   254 000002D2 FF 85 FFFFFD60                  	INC	DWORD [-672+EBP]
   255 000002D8 83 85 FFFFFD50 33               	ADD	DWORD [-688+EBP],51
   256 000002DF 83 85 FFFFFD4C 24               	ADD	DWORD [-692+EBP],36
   257 000002E6 83 BD FFFFFD60 05               	CMP	DWORD [-672+EBP],5
   258 000002ED 0F 8E FFFFFF65                  	JLE	L22
   259 000002F3 8D 85 FFFFFD64                  	LEA	EAX,DWORD [-668+EBP]
   260 000002F9 50                              	PUSH	EAX
   261 000002FA 68 000000E7                     	PUSH	231
   262 000002FF 6A 10                           	PUSH	16
   263 00000301 E8 00000008                     	CALL	_set_palette
   264 00000306 83 C4 0C                        	ADD	ESP,12
   265 00000309 E9 FFFFFD17                     	JMP	L1
   266 0000030E                                 	GLOBAL	_set_palette
   267 0000030E                                 _set_palette:
   268 0000030E 55                              	PUSH	EBP
   269 0000030F 89 E5                           	MOV	EBP,ESP
   270 00000311 57                              	PUSH	EDI
   271 00000312 56                              	PUSH	ESI
   272 00000313 53                              	PUSH	EBX
   273 00000314 50                              	PUSH	EAX
   274 00000315 8B 5D 08                        	MOV	EBX,DWORD [8+EBP]
   275 00000318 8B 7D 0C                        	MOV	EDI,DWORD [12+EBP]
   276 0000031B 8B 75 10                        	MOV	ESI,DWORD [16+EBP]
   277 0000031E E8 [00000000]                   	CALL	_io_load_eflags
   278 00000323 89 45 F0                        	MOV	DWORD [-16+EBP],EAX
   279 00000326 E8 [00000000]                   	CALL	_io_cli
   280 0000032B 68 000000FF                     	PUSH	255
   281 00000330 68 000003C6                     	PUSH	966
   282 00000335 E8 [00000000]                   	CALL	_io_out8
   283 0000033A 53                              	PUSH	EBX
   284 0000033B 68 000003C8                     	PUSH	968
   285 00000340 E8 [00000000]                   	CALL	_io_out8
   286 00000345 83 C4 10                        	ADD	ESP,16
   287 00000348 39 FB                           	CMP	EBX,EDI
   288 0000034A 7E 12                           	JLE	L98
   289 0000034C                                 L100:
   290 0000034C 8B 45 F0                        	MOV	EAX,DWORD [-16+EBP]
   291 0000034F 89 45 08                        	MOV	DWORD [8+EBP],EAX
   292 00000352 8D 65 F4                        	LEA	ESP,DWORD [-12+EBP]
   293 00000355 5B                              	POP	EBX
   294 00000356 5E                              	POP	ESI
   295 00000357 5F                              	POP	EDI
   296 00000358 5D                              	POP	EBP
   297 00000359 E9 [00000000]                   	JMP	_io_store_eflags
   298 0000035E                                 L98:
   299 0000035E 8A 06                           	MOV	AL,BYTE [ESI]
   300 00000360 43                              	INC	EBX
   301 00000361 C0 E8 02                        	SHR	AL,2
   302 00000364 0F B6 C0                        	MOVZX	EAX,AL
   303 00000367 50                              	PUSH	EAX
   304 00000368 68 000003C9                     	PUSH	969
   305 0000036D E8 [00000000]                   	CALL	_io_out8
   306 00000372 8A 46 01                        	MOV	AL,BYTE [1+ESI]
   307 00000375 C0 E8 02                        	SHR	AL,2
   308 00000378 0F B6 C0                        	MOVZX	EAX,AL
   309 0000037B 50                              	PUSH	EAX
   310 0000037C 68 000003C9                     	PUSH	969
   311 00000381 E8 [00000000]                   	CALL	_io_out8
   312 00000386 8A 46 02                        	MOV	AL,BYTE [2+ESI]
   313 00000389 C0 E8 02                        	SHR	AL,2
   314 0000038C 83 C6 03                        	ADD	ESI,3
   315 0000038F 0F B6 C0                        	MOVZX	EAX,AL
   316 00000392 50                              	PUSH	EAX
   317 00000393 68 000003C9                     	PUSH	969
   318 00000398 E8 [00000000]                   	CALL	_io_out8
   319 0000039D 83 C4 18                        	ADD	ESP,24
   320 000003A0 39 FB                           	CMP	EBX,EDI
   321 000003A2 7E BA                           	JLE	L98
   322 000003A4 EB A6                           	JMP	L100
   323 000003A6                                 	GLOBAL	_drawpixel8
   324 000003A6                                 _drawpixel8:
   325 000003A6 55                              	PUSH	EBP
   326 000003A7 89 E5                           	MOV	EBP,ESP
   327 000003A9 8B 55 18                        	MOV	EDX,DWORD [24+EBP]
   328 000003AC 8B 45 10                        	MOV	EAX,DWORD [16+EBP]
   329 000003AF 0F AF 55 0C                     	IMUL	EDX,DWORD [12+EBP]
   330 000003B3 66 8B 8C 00 [00000890]          	MOV	CX,WORD [_table_16_65536+EAX+EAX*1]
   331 000003BB 03 55 14                        	ADD	EDX,DWORD [20+EBP]
   332 000003BE 8B 45 08                        	MOV	EAX,DWORD [8+EBP]
   333 000003C1 66 89 0C 50                     	MOV	WORD [EAX+EDX*2],CX
   334 000003C5 5D                              	POP	EBP
   335 000003C6 C3                              	RET
   336 000003C7                                 	GLOBAL	_DDAline
   337 000003C7                                 _DDAline:
   338 000003C7 55                              	PUSH	EBP
   339 000003C8 89 E5                           	MOV	EBP,ESP
   340 000003CA 8B 55 1C                        	MOV	EDX,DWORD [28+EBP]
   341 000003CD 8B 45 14                        	MOV	EAX,DWORD [20+EBP]
   342 000003D0 39 D0                           	CMP	EAX,EDX
   343 000003D2 7F 05                           	JG	L109
   344 000003D4                                 L107:
   345 000003D4 40                              	INC	EAX
   346 000003D5 39 D0                           	CMP	EAX,EDX
   347 000003D7 7E FB                           	JLE	L107
   348 000003D9                                 L109:
   349 000003D9 5D                              	POP	EBP
   350 000003DA C3                              	RET
   351 000003DB                                 	GLOBAL	_boxfill8
   352 000003DB                                 _boxfill8:
   353 000003DB 55                              	PUSH	EBP
   354 000003DC 89 E5                           	MOV	EBP,ESP
   355 000003DE 57                              	PUSH	EDI
   356 000003DF 56                              	PUSH	ESI
   357 000003E0 53                              	PUSH	EBX
   358 000003E1 52                              	PUSH	EDX
   359 000003E2 8B 7D 20                        	MOV	EDI,DWORD [32+EBP]
   360 000003E5 8A 45 10                        	MOV	AL,BYTE [16+EBP]
   361 000003E8 8B 75 18                        	MOV	ESI,DWORD [24+EBP]
   362 000003EB 88 45 F3                        	MOV	BYTE [-13+EBP],AL
   363 000003EE 39 FE                           	CMP	ESI,EDI
   364 000003F0 7F 0D                           	JG	L122
   365 000003F2                                 L120:
   366 000003F2 8B 5D 14                        	MOV	EBX,DWORD [20+EBP]
   367 000003F5 3B 5D 1C                        	CMP	EBX,DWORD [28+EBP]
   368 000003F8 7E 0D                           	JLE	L119
   369 000003FA                                 L124:
   370 000003FA 46                              	INC	ESI
   371 000003FB 39 FE                           	CMP	ESI,EDI
   372 000003FD 7E F3                           	JLE	L120
   373 000003FF                                 L122:
   374 000003FF 8D 65 F4                        	LEA	ESP,DWORD [-12+EBP]
   375 00000402 5B                              	POP	EBX
   376 00000403 5E                              	POP	ESI
   377 00000404 5F                              	POP	EDI
   378 00000405 5D                              	POP	EBP
   379 00000406 C3                              	RET
   380 00000407                                 L119:
   381 00000407 56                              	PUSH	ESI
   382 00000408 53                              	PUSH	EBX
   383 00000409 43                              	INC	EBX
   384 0000040A 0F B6 45 F3                     	MOVZX	EAX,BYTE [-13+EBP]
   385 0000040E 50                              	PUSH	EAX
   386 0000040F FF 75 0C                        	PUSH	DWORD [12+EBP]
   387 00000412 FF 75 08                        	PUSH	DWORD [8+EBP]
   388 00000415 E8 FFFFFF8C                     	CALL	_drawpixel8
   389 0000041A 83 C4 14                        	ADD	ESP,20
   390 0000041D 3B 5D 1C                        	CMP	EBX,DWORD [28+EBP]
   391 00000420 7E E5                           	JLE	L119
   392 00000422 EB D6                           	JMP	L124
   393 00000424                                 	GLOBAL	_boxfill8c
   394 00000424                                 _boxfill8c:
   395 00000424 55                              	PUSH	EBP
   396 00000425 89 E5                           	MOV	EBP,ESP
   397 00000427 57                              	PUSH	EDI
   398 00000428 56                              	PUSH	ESI
   399 00000429 53                              	PUSH	EBX
   400 0000042A 56                              	PUSH	ESI
   401 0000042B 56                              	PUSH	ESI
   402 0000042C 8A 45 10                        	MOV	AL,BYTE [16+EBP]
   403 0000042F 8B 4D 18                        	MOV	ECX,DWORD [24+EBP]
   404 00000432 8B 7D 1C                        	MOV	EDI,DWORD [28+EBP]
   405 00000435 88 45 F3                        	MOV	BYTE [-13+EBP],AL
   406 00000438 3B 4D 20                        	CMP	ECX,DWORD [32+EBP]
   407 0000043B 7F 31                           	JG	L137
   408 0000043D 8B 5D 0C                        	MOV	EBX,DWORD [12+EBP]
   409 00000440 0F AF D9                        	IMUL	EBX,ECX
   410 00000443                                 L135:
   411 00000443 8B 55 14                        	MOV	EDX,DWORD [20+EBP]
   412 00000446 39 FA                           	CMP	EDX,EDI
   413 00000448 7F 1B                           	JG	L139
   414 0000044A 8B 75 08                        	MOV	ESI,DWORD [8+EBP]
   415 0000044D 01 DE                           	ADD	ESI,EBX
   416 0000044F 01 D6                           	ADD	ESI,EDX
   417 00000451 89 75 EC                        	MOV	DWORD [-20+EBP],ESI
   418 00000454                                 L134:
   419 00000454 8B 75 EC                        	MOV	ESI,DWORD [-20+EBP]
   420 00000457 8A 45 F3                        	MOV	AL,BYTE [-13+EBP]
   421 0000045A 42                              	INC	EDX
   422 0000045B 88 06                           	MOV	BYTE [ESI],AL
   423 0000045D 46                              	INC	ESI
   424 0000045E 89 75 EC                        	MOV	DWORD [-20+EBP],ESI
   425 00000461 39 FA                           	CMP	EDX,EDI
   426 00000463 7E EF                           	JLE	L134
   427 00000465                                 L139:
   428 00000465 41                              	INC	ECX
   429 00000466 03 5D 0C                        	ADD	EBX,DWORD [12+EBP]
   430 00000469 3B 4D 20                        	CMP	ECX,DWORD [32+EBP]
   431 0000046C 7E D5                           	JLE	L135
   432 0000046E                                 L137:
   433 0000046E 59                              	POP	ECX
   434 0000046F 5B                              	POP	EBX
   435 00000470 5B                              	POP	EBX
   436 00000471 5E                              	POP	ESI
   437 00000472 5F                              	POP	EDI
   438 00000473 5D                              	POP	EBP
   439 00000474 C3                              	RET
   440                                          [SECTION .data]
   441 00000030                                 _logo.1:
   442 00000030 2E 2E 2E 2E 2E 2E 2E 2E 2E 2E   	DB	"..............................****....***.*."
       0000003A 2E 2E 2E 2E 2E 2E 2E 2E 2E 2E 
       00000044 2E 2E 2E 2E 2E 2E 2E 2E 2E 2E 
       0000004E 2A 2A 2A 2A 2E 2E 2E 2E 2A 2A 
       00000058 2A 2E 2A 2E 
   443 0000005C 2E 2E 2E 2E 2E 2E 2E 2E 2E 2E   	DB	".............................**00**..**0**.0"
       00000066 2E 2E 2E 2E 2E 2E 2E 2E 2E 2E 
       00000070 2E 2E 2E 2E 2E 2E 2E 2E 2E 2A 
       0000007A 2A 30 30 2A 2A 2E 2E 2A 2A 30 
       00000084 2A 2A 2E 30 
   444 00000088 2E 2E 2E 2E 2E 2E 2E 2E 2E 2E   	DB	"............................**00.**0.**0.*0."
       00000092 2E 2E 2E 2E 2E 2E 2E 2E 2E 2E 
       0000009C 2E 2E 2E 2E 2E 2E 2E 2E 2A 2A 
       000000A6 30 30 2E 2A 2A 30 2E 2A 2A 30 
       000000B0 2E 2A 30 2E 
   445 000000B4 2E 2E 2E 2E 2E 2E 2E 2E 2E 2E   	DB	"............................**0..**0.**0..0."
       000000BE 2E 2E 2E 2E 2E 2E 2E 2E 2E 2E 
       000000C8 2E 2E 2E 2E 2E 2E 2E 2E 2A 2A 
       000000D2 30 2E 2E 2A 2A 30 2E 2A 2A 30 
       000000DC 2E 2E 30 2E 
   446 000000E0 2E 2E 2E 2E 2E 2E 2E 2E 2E 2E   	DB	"...........................**00..**0..**...."
       000000EA 2E 2E 2E 2E 2E 2E 2E 2E 2E 2E 
       000000F4 2E 2E 2E 2E 2E 2E 2E 2A 2A 30 
       000000FE 30 2E 2E 2A 2A 30 2E 2E 2A 2A 
       00000108 2E 2E 2E 2E 
   447 0000010C 2E 2E 2E 2E 2E 2E 2E 2E 2E 2E   	DB	"...........................**0..**00..***..."
       00000116 2E 2E 2E 2E 2E 2E 2E 2E 2E 2E 
       00000120 2E 2E 2E 2E 2E 2E 2E 2A 2A 30 
       0000012A 2E 2E 2A 2A 30 30 2E 2E 2A 2A 
       00000134 2A 2E 2E 2E 
   448 00000138 2E 2E 2E 2E 2E 2E 2E 2E 2E 2E   	DB	"...........................**0..**0.*..**0.."
       00000142 2E 2E 2E 2E 2E 2E 2E 2E 2E 2E 
       0000014C 2E 2E 2E 2E 2E 2E 2E 2A 2A 30 
       00000156 2E 2E 2A 2A 30 2E 2A 2E 2E 2A 
       00000160 2A 30 2E 2E 
   449 00000164 2E 2E 2E 2E 2E 2E 2E 2E 2E 2E   	DB	"...........................**0.**00**0.**0.."
       0000016E 2E 2E 2E 2E 2E 2E 2E 2E 2E 2E 
       00000178 2E 2E 2E 2E 2E 2E 2E 2A 2A 30 
       00000182 2E 2A 2A 30 30 2A 2A 30 2E 2A 
       0000018C 2A 30 2E 2E 
   450 00000190 2E 2E 2E 2E 2E 2E 2E 2E 2E 2E   	DB	"............................****00.*0***00.."
       0000019A 2E 2E 2E 2E 2E 2E 2E 2E 2E 2E 
       000001A4 2E 2E 2E 2E 2E 2E 2E 2E 2A 2A 
       000001AE 2A 2A 30 30 2E 2A 30 2A 2A 2A 
       000001B8 30 30 2E 2E 
   451 000001BC 2E 2E 2E 2E 2E 2E 2E 2E 2E 2E   	DB	".............................0000...0.000..."
       000001C6 2E 2E 2E 2E 2E 2E 2E 2E 2E 2E 
       000001D0 2E 2E 2E 2E 2E 2E 2E 2E 2E 30 
       000001DA 30 30 30 2E 2E 2E 30 2E 30 30 
       000001E4 30 2E 2E 2E 
   452 000001E8 2E 2E 2E 2E 2E 2E 2E 2E 2E 2E   	DB	"............................................"
       000001F2 2E 2E 2E 2E 2E 2E 2E 2E 2E 2E 
       000001FC 2E 2E 2E 2E 2E 2E 2E 2E 2E 2E 
       00000206 2E 2E 2E 2E 2E 2E 2E 2E 2E 2E 
       00000210 2E 2E 2E 2E 
   453 00000214 2E 2E 2E 2E 2E 2E 2E 2E 2E 2E   	DB	"............................................"
       0000021E 2E 2E 2E 2E 2E 2E 2E 2E 2E 2E 
       00000228 2E 2E 2E 2E 2E 2E 2E 2E 2E 2E 
       00000232 2E 2E 2E 2E 2E 2E 2E 2E 2E 2E 
       0000023C 2E 2E 2E 2E 
   454 00000240 2E 2E 2E 2E 2E 2E 2E 2E 2E 2E   	DB	"............................................"
       0000024A 2E 2E 2E 2E 2E 2E 2E 2E 2E 2E 
       00000254 2E 2E 2E 2E 2E 2E 2E 2E 2E 2E 
       0000025E 2E 2E 2E 2E 2E 2E 2E 2E 2E 2E 
       00000268 2E 2E 2E 2E 
   455                                          [SECTION .text]
   456 00000475                                 	GLOBAL	_init_screen8
   457 00000475                                 _init_screen8:
   458 00000475 55                              	PUSH	EBP
   459 00000476 89 E5                           	MOV	EBP,ESP
   460 00000478 57                              	PUSH	EDI
   461 00000479 56                              	PUSH	ESI
   462 0000047A 53                              	PUSH	EBX
   463 0000047B 83 EC 18                        	SUB	ESP,24
   464 0000047E 8B 45 10                        	MOV	EAX,DWORD [16+EBP]
   465 00000481 8B 5D 0C                        	MOV	EBX,DWORD [12+EBP]
   466 00000484 83 E8 1D                        	SUB	EAX,29
   467 00000487 4B                              	DEC	EBX
   468 00000488 50                              	PUSH	EAX
   469 00000489 53                              	PUSH	EBX
   470 0000048A 6A 00                           	PUSH	0
   471 0000048C 6A 00                           	PUSH	0
   472 0000048E 6A 0E                           	PUSH	14
   473 00000490 FF 75 0C                        	PUSH	DWORD [12+EBP]
   474 00000493 FF 75 08                        	PUSH	DWORD [8+EBP]
   475 00000496 E8 FFFFFF40                     	CALL	_boxfill8
   476 0000049B 8B 45 10                        	MOV	EAX,DWORD [16+EBP]
   477 0000049E 83 E8 1C                        	SUB	EAX,28
   478 000004A1 50                              	PUSH	EAX
   479 000004A2 53                              	PUSH	EBX
   480 000004A3 50                              	PUSH	EAX
   481 000004A4 6A 00                           	PUSH	0
   482 000004A6 6A 08                           	PUSH	8
   483 000004A8 FF 75 0C                        	PUSH	DWORD [12+EBP]
   484 000004AB FF 75 08                        	PUSH	DWORD [8+EBP]
   485 000004AE E8 FFFFFF28                     	CALL	_boxfill8
   486 000004B3 8B 45 10                        	MOV	EAX,DWORD [16+EBP]
   487 000004B6 83 C4 38                        	ADD	ESP,56
   488 000004B9 83 E8 1B                        	SUB	EAX,27
   489 000004BC 50                              	PUSH	EAX
   490 000004BD 53                              	PUSH	EBX
   491 000004BE 50                              	PUSH	EAX
   492 000004BF 6A 00                           	PUSH	0
   493 000004C1 6A 07                           	PUSH	7
   494 000004C3 FF 75 0C                        	PUSH	DWORD [12+EBP]
   495 000004C6 FF 75 08                        	PUSH	DWORD [8+EBP]
   496 000004C9 E8 FFFFFF0D                     	CALL	_boxfill8
   497 000004CE 8B 45 10                        	MOV	EAX,DWORD [16+EBP]
   498 000004D1 48                              	DEC	EAX
   499 000004D2 50                              	PUSH	EAX
   500 000004D3 8B 45 10                        	MOV	EAX,DWORD [16+EBP]
   501 000004D6 53                              	PUSH	EBX
   502 000004D7 83 E8 1A                        	SUB	EAX,26
   503 000004DA 50                              	PUSH	EAX
   504 000004DB 6A 00                           	PUSH	0
   505 000004DD 6A 08                           	PUSH	8
   506 000004DF FF 75 0C                        	PUSH	DWORD [12+EBP]
   507 000004E2 FF 75 08                        	PUSH	DWORD [8+EBP]
   508 000004E5 E8 FFFFFEF1                     	CALL	_boxfill8
   509 000004EA 8B 45 10                        	MOV	EAX,DWORD [16+EBP]
   510 000004ED 83 C4 38                        	ADD	ESP,56
   511 000004F0 83 E8 18                        	SUB	EAX,24
   512 000004F3 89 45 F0                        	MOV	DWORD [-16+EBP],EAX
   513 000004F6 50                              	PUSH	EAX
   514 000004F7 6A 3B                           	PUSH	59
   515 000004F9 50                              	PUSH	EAX
   516 000004FA 6A 03                           	PUSH	3
   517 000004FC 6A 07                           	PUSH	7
   518 000004FE FF 75 0C                        	PUSH	DWORD [12+EBP]
   519 00000501 FF 75 08                        	PUSH	DWORD [8+EBP]
   520 00000504 E8 FFFFFED2                     	CALL	_boxfill8
   521 00000509 8B 55 10                        	MOV	EDX,DWORD [16+EBP]
   522 0000050C 83 EA 04                        	SUB	EDX,4
   523 0000050F 52                              	PUSH	EDX
   524 00000510 89 55 EC                        	MOV	DWORD [-20+EBP],EDX
   525 00000513 6A 02                           	PUSH	2
   526 00000515 FF 75 F0                        	PUSH	DWORD [-16+EBP]
   527 00000518 6A 02                           	PUSH	2
   528 0000051A 6A 07                           	PUSH	7
   529 0000051C FF 75 0C                        	PUSH	DWORD [12+EBP]
   530 0000051F FF 75 08                        	PUSH	DWORD [8+EBP]
   531 00000522 E8 FFFFFEB4                     	CALL	_boxfill8
   532 00000527 83 C4 38                        	ADD	ESP,56
   533 0000052A FF 75 EC                        	PUSH	DWORD [-20+EBP]
   534 0000052D 6A 3B                           	PUSH	59
   535 0000052F FF 75 EC                        	PUSH	DWORD [-20+EBP]
   536 00000532 6A 03                           	PUSH	3
   537 00000534 6A 0F                           	PUSH	15
   538 00000536 FF 75 0C                        	PUSH	DWORD [12+EBP]
   539 00000539 FF 75 08                        	PUSH	DWORD [8+EBP]
   540 0000053C E8 FFFFFE9A                     	CALL	_boxfill8
   541 00000541 8B 75 10                        	MOV	ESI,DWORD [16+EBP]
   542 00000544 8B 45 10                        	MOV	EAX,DWORD [16+EBP]
   543 00000547 83 EE 17                        	SUB	ESI,23
   544 0000054A 83 E8 05                        	SUB	EAX,5
   545 0000054D 89 75 E8                        	MOV	DWORD [-24+EBP],ESI
   546 00000550 50                              	PUSH	EAX
   547 00000551 6A 3B                           	PUSH	59
   548 00000553 56                              	PUSH	ESI
   549 00000554 6A 3B                           	PUSH	59
   550 00000556 6A 0F                           	PUSH	15
   551 00000558 FF 75 0C                        	PUSH	DWORD [12+EBP]
   552 0000055B FF 75 08                        	PUSH	DWORD [8+EBP]
   553 0000055E E8 FFFFFE78                     	CALL	_boxfill8
   554 00000563 8B 75 10                        	MOV	ESI,DWORD [16+EBP]
   555 00000566 83 C4 38                        	ADD	ESP,56
   556 00000569 83 EE 03                        	SUB	ESI,3
   557 0000056C 56                              	PUSH	ESI
   558 0000056D 6A 3B                           	PUSH	59
   559 0000056F 56                              	PUSH	ESI
   560 00000570 6A 02                           	PUSH	2
   561 00000572 6A 00                           	PUSH	0
   562 00000574 FF 75 0C                        	PUSH	DWORD [12+EBP]
   563 00000577 FF 75 08                        	PUSH	DWORD [8+EBP]
   564 0000057A E8 FFFFFE5C                     	CALL	_boxfill8
   565 0000057F 56                              	PUSH	ESI
   566 00000580 6A 3C                           	PUSH	60
   567 00000582 FF 75 F0                        	PUSH	DWORD [-16+EBP]
   568 00000585 6A 3C                           	PUSH	60
   569 00000587 6A 00                           	PUSH	0
   570 00000589 FF 75 0C                        	PUSH	DWORD [12+EBP]
   571 0000058C FF 75 08                        	PUSH	DWORD [8+EBP]
   572 0000058F E8 FFFFFE47                     	CALL	_boxfill8
   573 00000594 8B 5D 0C                        	MOV	EBX,DWORD [12+EBP]
   574 00000597 83 C4 38                        	ADD	ESP,56
   575 0000059A 8B 7D 0C                        	MOV	EDI,DWORD [12+EBP]
   576 0000059D FF 75 F0                        	PUSH	DWORD [-16+EBP]
   577 000005A0 83 EF 04                        	SUB	EDI,4
   578 000005A3 83 EB 2F                        	SUB	EBX,47
   579 000005A6 57                              	PUSH	EDI
   580 000005A7 FF 75 F0                        	PUSH	DWORD [-16+EBP]
   581 000005AA 53                              	PUSH	EBX
   582 000005AB 6A 0F                           	PUSH	15
   583 000005AD FF 75 0C                        	PUSH	DWORD [12+EBP]
   584 000005B0 FF 75 08                        	PUSH	DWORD [8+EBP]
   585 000005B3 E8 FFFFFE23                     	CALL	_boxfill8
   586 000005B8 FF 75 EC                        	PUSH	DWORD [-20+EBP]
   587 000005BB 53                              	PUSH	EBX
   588 000005BC FF 75 E8                        	PUSH	DWORD [-24+EBP]
   589 000005BF 53                              	PUSH	EBX
   590 000005C0 6A 0F                           	PUSH	15
   591 000005C2 FF 75 0C                        	PUSH	DWORD [12+EBP]
   592 000005C5 FF 75 08                        	PUSH	DWORD [8+EBP]
   593 000005C8 E8 FFFFFE0E                     	CALL	_boxfill8
   594 000005CD 83 C4 38                        	ADD	ESP,56
   595 000005D0 56                              	PUSH	ESI
   596 000005D1 57                              	PUSH	EDI
   597 000005D2 31 FF                           	XOR	EDI,EDI
   598 000005D4 56                              	PUSH	ESI
   599 000005D5 53                              	PUSH	EBX
   600 000005D6 6A 07                           	PUSH	7
   601 000005D8 FF 75 0C                        	PUSH	DWORD [12+EBP]
   602 000005DB FF 75 08                        	PUSH	DWORD [8+EBP]
   603 000005DE E8 FFFFFDF8                     	CALL	_boxfill8
   604 000005E3 8B 45 0C                        	MOV	EAX,DWORD [12+EBP]
   605 000005E6 56                              	PUSH	ESI
   606 000005E7 83 E8 03                        	SUB	EAX,3
   607 000005EA 50                              	PUSH	EAX
   608 000005EB FF 75 F0                        	PUSH	DWORD [-16+EBP]
   609 000005EE 50                              	PUSH	EAX
   610 000005EF 6A 07                           	PUSH	7
   611 000005F1 FF 75 0C                        	PUSH	DWORD [12+EBP]
   612 000005F4 FF 75 08                        	PUSH	DWORD [8+EBP]
   613 000005F7 E8 FFFFFDDF                     	CALL	_boxfill8
   614 000005FC 8B 4D 10                        	MOV	ECX,DWORD [16+EBP]
   615 000005FF 83 E9 12                        	SUB	ECX,18
   616 00000602 83 C4 38                        	ADD	ESP,56
   617 00000605 0F AF 4D 0C                     	IMUL	ECX,DWORD [12+EBP]
   618 00000609 C7 45 DC 00000000               	MOV	DWORD [-36+EBP],0
   619 00000610                                 L155:
   620 00000610 31 DB                           	XOR	EBX,EBX
   621 00000612                                 L154:
   622 00000612 8B 45 DC                        	MOV	EAX,DWORD [-36+EBP]
   623 00000615 8A 94 03 [00000030]             	MOV	DL,BYTE [_logo.1+EBX+EAX*1]
   624 0000061C 80 FA 2A                        	CMP	DL,42
   625 0000061F 74 41                           	JE	L160
   626 00000621 80 FA 30                        	CMP	DL,48
   627 00000624 74 38                           	JE	L161
   628 00000626 B2 FF                           	MOV	DL,-1
   629 00000628                                 L150:
   630 00000628 80 FA FF                        	CMP	DL,-1
   631 0000062B 74 16                           	JE	L147
   632 0000062D 0F B6 D2                        	MOVZX	EDX,DL
   633 00000630 8D 34 0B                        	LEA	ESI,DWORD [EBX+ECX*1]
   634 00000633 8B 45 08                        	MOV	EAX,DWORD [8+EBP]
   635 00000636 66 8B 94 12 [00000890]          	MOV	DX,WORD [_table_16_65536+EDX+EDX*1]
   636 0000063E 66 89 54 70 14                  	MOV	WORD [20+EAX+ESI*2],DX
   637 00000643                                 L147:
   638 00000643 43                              	INC	EBX
   639 00000644 83 FB 2B                        	CMP	EBX,43
   640 00000647 7E C9                           	JLE	L154
   641 00000649 47                              	INC	EDI
   642 0000064A 03 4D 0C                        	ADD	ECX,DWORD [12+EBP]
   643 0000064D 83 45 DC 2C                     	ADD	DWORD [-36+EBP],44
   644 00000651 83 FF 0C                        	CMP	EDI,12
   645 00000654 7E BA                           	JLE	L155
   646 00000656 8D 65 F4                        	LEA	ESP,DWORD [-12+EBP]
   647 00000659 5B                              	POP	EBX
   648 0000065A 5E                              	POP	ESI
   649 0000065B 5F                              	POP	EDI
   650 0000065C 5D                              	POP	EBP
   651 0000065D C3                              	RET
   652 0000065E                                 L161:
   653 0000065E B2 07                           	MOV	DL,7
   654 00000660 EB C6                           	JMP	L150
   655 00000662                                 L160:
   656 00000662 B2 04                           	MOV	DL,4
   657 00000664 EB C2                           	JMP	L150
   658 00000666                                 	GLOBAL	_putfont8
   659 00000666                                 _putfont8:
   660 00000666 55                              	PUSH	EBP
   661 00000667 89 E5                           	MOV	EBP,ESP
   662 00000669 57                              	PUSH	EDI
   663 0000066A 56                              	PUSH	ESI
   664 0000066B 53                              	PUSH	EBX
   665 0000066C 83 EC 18                        	SUB	ESP,24
   666 0000066F 8A 45 18                        	MOV	AL,BYTE [24+EBP]
   667 00000672 8A 55 1C                        	MOV	DL,BYTE [28+EBP]
   668 00000675 88 45 F3                        	MOV	BYTE [-13+EBP],AL
   669 00000678 88 55 F2                        	MOV	BYTE [-14+EBP],DL
   670 0000067B C7 45 EC 00000000               	MOV	DWORD [-20+EBP],0
   671 00000682                                 L183:
   672 00000682 8B 45 20                        	MOV	EAX,DWORD [32+EBP]
   673 00000685 8B 55 EC                        	MOV	EDX,DWORD [-20+EBP]
   674 00000688 8A 04 02                        	MOV	AL,BYTE [EDX+EAX*1]
   675 0000068B 88 45 E7                        	MOV	BYTE [-25+EBP],AL
   676 0000068E C6 45 DF 80                     	MOV	BYTE [-33+EBP],-128
   677 00000692 C7 45 E0 00000000               	MOV	DWORD [-32+EBP],0
   678 00000699                                 L182:
   679 00000699 0F BE 4D F2                     	MOVSX	ECX,BYTE [-14+EBP]
   680 0000069D 8B 45 EC                        	MOV	EAX,DWORD [-20+EBP]
   681 000006A0 8B 55 E0                        	MOV	EDX,DWORD [-32+EBP]
   682 000006A3 0F AF C1                        	IMUL	EAX,ECX
   683 000006A6 03 45 14                        	ADD	EAX,DWORD [20+EBP]
   684 000006A9 89 CB                           	MOV	EBX,ECX
   685 000006AB 0F AF D1                        	IMUL	EDX,ECX
   686 000006AE 0F AF 45 0C                     	IMUL	EAX,DWORD [12+EBP]
   687 000006B2 01 D0                           	ADD	EAX,EDX
   688 000006B4 8B 55 08                        	MOV	EDX,DWORD [8+EBP]
   689 000006B7 03 45 10                        	ADD	EAX,DWORD [16+EBP]
   690 000006BA 8D 04 42                        	LEA	EAX,DWORD [EDX+EAX*2]
   691 000006BD 89 45 E8                        	MOV	DWORD [-24+EBP],EAX
   692 000006C0 0F BE 55 E7                     	MOVSX	EDX,BYTE [-25+EBP]
   693 000006C4 0F B6 45 DF                     	MOVZX	EAX,BYTE [-33+EBP]
   694 000006C8 85 C2                           	TEST	EDX,EAX
   695 000006CA 74 33                           	JE	L171
   696 000006CC 31 F6                           	XOR	ESI,ESI
   697 000006CE 39 CE                           	CMP	ESI,ECX
   698 000006D0 7D 2D                           	JGE	L171
   699 000006D2 31 FF                           	XOR	EDI,EDI
   700 000006D4                                 L181:
   701 000006D4 31 C9                           	XOR	ECX,ECX
   702 000006D6 39 D9                           	CMP	ECX,EBX
   703 000006D8 7D 1D                           	JGE	L190
   704 000006DA 8B 45 E8                        	MOV	EAX,DWORD [-24+EBP]
   705 000006DD 8D 14 78                        	LEA	EDX,DWORD [EAX+EDI*2]
   706 000006E0                                 L180:
   707 000006E0 0F B6 45 F3                     	MOVZX	EAX,BYTE [-13+EBP]
   708 000006E4 41                              	INC	ECX
   709 000006E5 66 8B 84 00 [00000890]          	MOV	AX,WORD [_table_16_65536+EAX+EAX*1]
   710 000006ED 66 89 02                        	MOV	WORD [EDX],AX
   711 000006F0 83 C2 02                        	ADD	EDX,2
   712 000006F3 39 D9                           	CMP	ECX,EBX
   713 000006F5 7C E9                           	JL	L180
   714 000006F7                                 L190:
   715 000006F7 46                              	INC	ESI
   716 000006F8 03 7D 0C                        	ADD	EDI,DWORD [12+EBP]
   717 000006FB 39 DE                           	CMP	ESI,EBX
   718 000006FD 7C D5                           	JL	L181
   719 000006FF                                 L171:
   720 000006FF FF 45 E0                        	INC	DWORD [-32+EBP]
   721 00000702 D0 6D DF                        	SHR	BYTE [-33+EBP],1
   722 00000705 83 7D E0 07                     	CMP	DWORD [-32+EBP],7
   723 00000709 7E 8E                           	JLE	L182
   724 0000070B FF 45 EC                        	INC	DWORD [-20+EBP]
   725 0000070E 83 7D EC 0F                     	CMP	DWORD [-20+EBP],15
   726 00000712 0F 8E FFFFFF6A                  	JLE	L183
   727 00000718 83 C4 18                        	ADD	ESP,24
   728 0000071B 5B                              	POP	EBX
   729 0000071C 5E                              	POP	ESI
   730 0000071D 5F                              	POP	EDI
   731 0000071E 5D                              	POP	EBP
   732 0000071F C3                              	RET
   733 00000720                                 	GLOBAL	_putfonts8_asc
   734 00000720                                 _putfonts8_asc:
   735 00000720 55                              	PUSH	EBP
   736 00000721 89 E5                           	MOV	EBP,ESP
   737 00000723 57                              	PUSH	EDI
   738 00000724 56                              	PUSH	ESI
   739 00000725 53                              	PUSH	EBX
   740 00000726 83 EC 0C                        	SUB	ESP,12
   741 00000729 8A 55 1C                        	MOV	DL,BYTE [28+EBP]
   742 0000072C 8A 45 18                        	MOV	AL,BYTE [24+EBP]
   743 0000072F 88 55 F2                        	MOV	BYTE [-14+EBP],DL
   744 00000732 88 45 F3                        	MOV	BYTE [-13+EBP],AL
   745 00000735 E8 [00000000]                   	CALL	_task_now
   746 0000073A 89 45 EC                        	MOV	DWORD [-20+EBP],EAX
   747 0000073D A1 000005E8                     	MOV	EAX,DWORD [1512]
   748 00000742 8B 55 EC                        	MOV	EDX,DWORD [-20+EBP]
   749 00000745 89 45 E8                        	MOV	DWORD [-24+EBP],EAX
   750 00000748 80 BA 000000BC 00               	CMP	BYTE [188+EDX],0
   751 0000074F 75 0C                           	JNE	L192
   752 00000751 8B 45 20                        	MOV	EAX,DWORD [32+EBP]
   753 00000754 80 38 00                        	CMP	BYTE [EAX],0
   754 00000757 0F 85 00000226                  	JNE	L197
   755 0000075D                                 L192:
   756 0000075D 8B 45 EC                        	MOV	EAX,DWORD [-20+EBP]
   757 00000760 80 B8 000000BC 01               	CMP	BYTE [188+EAX],1
   758 00000767 0F 84 000000ED                  	JE	L228
   759 0000076D                                 L198:
   760 0000076D 8B 55 EC                        	MOV	EDX,DWORD [-20+EBP]
   761 00000770 80 BA 000000BC 02               	CMP	BYTE [188+EDX],2
   762 00000777 74 08                           	JE	L229
   763 00000779                                 L191:
   764 00000779 8D 65 F4                        	LEA	ESP,DWORD [-12+EBP]
   765 0000077C 5B                              	POP	EBX
   766 0000077D 5E                              	POP	ESI
   767 0000077E 5F                              	POP	EDI
   768 0000077F 5D                              	POP	EBP
   769 00000780 C3                              	RET
   770 00000781                                 L229:
   771 00000781 8B 45 20                        	MOV	EAX,DWORD [32+EBP]
   772 00000784 80 38 00                        	CMP	BYTE [EAX],0
   773 00000787 74 F0                           	JE	L191
   774 00000789                                 L224:
   775 00000789 8B 55 EC                        	MOV	EDX,DWORD [-20+EBP]
   776 0000078C 8A 82 000000BD                  	MOV	AL,BYTE [189+EDX]
   777 00000792 84 C0                           	TEST	AL,AL
   778 00000794 75 59                           	JNE	L220
   779 00000796 8B 45 20                        	MOV	EAX,DWORD [32+EBP]
   780 00000799 8A 10                           	MOV	DL,BYTE [EAX]
   781 0000079B 8D 42 7F                        	LEA	EAX,DWORD [127+EDX]
   782 0000079E 3C 7D                           	CMP	AL,125
   783 000007A0 77 23                           	JA	L221
   784 000007A2 8B 45 EC                        	MOV	EAX,DWORD [-20+EBP]
   785 000007A5 88 90 000000BD                  	MOV	BYTE [189+EAX],DL
   786 000007AB                                 L223:
   787 000007AB 0F BE 45 F2                     	MOVSX	EAX,BYTE [-14+EBP]
   788 000007AF 8B 55 10                        	MOV	EDX,DWORD [16+EBP]
   789 000007B2 FF 45 20                        	INC	DWORD [32+EBP]
   790 000007B5 8D 14 C2                        	LEA	EDX,DWORD [EDX+EAX*8]
   791 000007B8 8B 45 20                        	MOV	EAX,DWORD [32+EBP]
   792 000007BB 89 55 10                        	MOV	DWORD [16+EBP],EDX
   793 000007BE 80 38 00                        	CMP	BYTE [EAX],0
   794 000007C1 75 C6                           	JNE	L224
   795 000007C3 EB B4                           	JMP	L191
   796 000007C5                                 L221:
   797 000007C5 0F B6 C2                        	MOVZX	EAX,DL
   798 000007C8 C1 E0 04                        	SAL	EAX,4
   799 000007CB 03 45 E8                        	ADD	EAX,DWORD [-24+EBP]
   800 000007CE 50                              	PUSH	EAX
   801 000007CF 0F BE 45 F2                     	MOVSX	EAX,BYTE [-14+EBP]
   802 000007D3 50                              	PUSH	EAX
   803 000007D4 0F B6 45 F3                     	MOVZX	EAX,BYTE [-13+EBP]
   804 000007D8 50                              	PUSH	EAX
   805 000007D9 FF 75 14                        	PUSH	DWORD [20+EBP]
   806 000007DC FF 75 10                        	PUSH	DWORD [16+EBP]
   807 000007DF FF 75 0C                        	PUSH	DWORD [12+EBP]
   808 000007E2 FF 75 08                        	PUSH	DWORD [8+EBP]
   809 000007E5 E8 FFFFFE7C                     	CALL	_putfont8
   810 000007EA 83 C4 1C                        	ADD	ESP,28
   811 000007ED EB BC                           	JMP	L223
   812 000007EF                                 L220:
   813 000007EF 0F B6 D8                        	MOVZX	EBX,AL
   814 000007F2 6B DB 5E                        	IMUL	EBX,EBX,94
   815 000007F5 8B 55 20                        	MOV	EDX,DWORD [32+EBP]
   816 000007F8 0F B6 02                        	MOVZX	EAX,BYTE [EDX]
   817 000007FB 8B 55 EC                        	MOV	EDX,DWORD [-20+EBP]
   818 000007FE 8D 9C 18 FFFFC441               	LEA	EBX,DWORD [-15295+EAX+EBX*1]
   819 00000805 C6 82 000000BD 00               	MOV	BYTE [189+EDX],0
   820 0000080C C1 E3 05                        	SAL	EBX,5
   821 0000080F 03 5D E8                        	ADD	EBX,DWORD [-24+EBP]
   822 00000812 0F BE 7D F2                     	MOVSX	EDI,BYTE [-14+EBP]
   823 00000816 8D 83 00001000                  	LEA	EAX,DWORD [4096+EBX]
   824 0000081C 81 C3 00001010                  	ADD	EBX,4112
   825 00000822 50                              	PUSH	EAX
   826 00000823 8B 45 10                        	MOV	EAX,DWORD [16+EBP]
   827 00000826 57                              	PUSH	EDI
   828 00000827 83 E8 08                        	SUB	EAX,8
   829 0000082A 0F B6 75 F3                     	MOVZX	ESI,BYTE [-13+EBP]
   830 0000082E 56                              	PUSH	ESI
   831 0000082F FF 75 14                        	PUSH	DWORD [20+EBP]
   832 00000832 50                              	PUSH	EAX
   833 00000833 FF 75 0C                        	PUSH	DWORD [12+EBP]
   834 00000836 FF 75 08                        	PUSH	DWORD [8+EBP]
   835 00000839 E8 FFFFFE28                     	CALL	_putfont8
   836 0000083E 53                              	PUSH	EBX
   837 0000083F 57                              	PUSH	EDI
   838 00000840 56                              	PUSH	ESI
   839 00000841 FF 75 14                        	PUSH	DWORD [20+EBP]
   840 00000844 FF 75 10                        	PUSH	DWORD [16+EBP]
   841 00000847 FF 75 0C                        	PUSH	DWORD [12+EBP]
   842 0000084A FF 75 08                        	PUSH	DWORD [8+EBP]
   843 0000084D E8 FFFFFE14                     	CALL	_putfont8
   844 00000852 83 C4 38                        	ADD	ESP,56
   845 00000855 E9 FFFFFF51                     	JMP	L223
   846 0000085A                                 L228:
   847 0000085A 8B 55 20                        	MOV	EDX,DWORD [32+EBP]
   848 0000085D 80 3A 00                        	CMP	BYTE [EDX],0
   849 00000860 0F 84 FFFFFF07                  	JE	L198
   850 00000866                                 L214:
   851 00000866 8B 45 EC                        	MOV	EAX,DWORD [-20+EBP]
   852 00000869 8A 90 000000BD                  	MOV	DL,BYTE [189+EAX]
   853 0000086F 84 D2                           	TEST	DL,DL
   854 00000871 75 63                           	JNE	L203
   855 00000873 8B 45 20                        	MOV	EAX,DWORD [32+EBP]
   856 00000876 8A 10                           	MOV	DL,BYTE [EAX]
   857 00000878 8D 42 7F                        	LEA	EAX,DWORD [127+EDX]
   858 0000087B 3C 1E                           	CMP	AL,30
   859 0000087D 76 07                           	JBE	L205
   860 0000087F 8D 42 20                        	LEA	EAX,DWORD [32+EDX]
   861 00000882 3C 1C                           	CMP	AL,28
   862 00000884 77 26                           	JA	L204
   863 00000886                                 L205:
   864 00000886 8B 45 EC                        	MOV	EAX,DWORD [-20+EBP]
   865 00000889 88 90 000000BD                  	MOV	BYTE [189+EAX],DL
   866 0000088F                                 L207:
   867 0000088F 0F BE 45 F2                     	MOVSX	EAX,BYTE [-14+EBP]
   868 00000893 8B 55 10                        	MOV	EDX,DWORD [16+EBP]
   869 00000896 FF 45 20                        	INC	DWORD [32+EBP]
   870 00000899 8D 14 C2                        	LEA	EDX,DWORD [EDX+EAX*8]
   871 0000089C 8B 45 20                        	MOV	EAX,DWORD [32+EBP]
   872 0000089F 89 55 10                        	MOV	DWORD [16+EBP],EDX
   873 000008A2 80 38 00                        	CMP	BYTE [EAX],0
   874 000008A5 75 BF                           	JNE	L214
   875 000008A7 E9 FFFFFEC1                     	JMP	L198
   876 000008AC                                 L204:
   877 000008AC 0F B6 C2                        	MOVZX	EAX,DL
   878 000008AF C1 E0 04                        	SAL	EAX,4
   879 000008B2 03 45 E8                        	ADD	EAX,DWORD [-24+EBP]
   880 000008B5 50                              	PUSH	EAX
   881 000008B6 0F BE 45 F2                     	MOVSX	EAX,BYTE [-14+EBP]
   882 000008BA 50                              	PUSH	EAX
   883 000008BB 0F B6 45 F3                     	MOVZX	EAX,BYTE [-13+EBP]
   884 000008BF 50                              	PUSH	EAX
   885 000008C0 FF 75 14                        	PUSH	DWORD [20+EBP]
   886 000008C3 FF 75 10                        	PUSH	DWORD [16+EBP]
   887 000008C6 FF 75 0C                        	PUSH	DWORD [12+EBP]
   888 000008C9 FF 75 08                        	PUSH	DWORD [8+EBP]
   889 000008CC E8 FFFFFD95                     	CALL	_putfont8
   890 000008D1 83 C4 1C                        	ADD	ESP,28
   891 000008D4 EB B9                           	JMP	L207
   892 000008D6                                 L203:
   893 000008D6 8D 42 7F                        	LEA	EAX,DWORD [127+EDX]
   894 000008D9 3C 1E                           	CMP	AL,30
   895 000008DB 0F 87 00000093                  	JA	L208
   896 000008E1 0F B6 C2                        	MOVZX	EAX,DL
   897 000008E4 8D 8C 00 FFFFFEFE               	LEA	ECX,DWORD [-258+EAX+EAX*1]
   898 000008EB                                 L209:
   899 000008EB 8B 45 20                        	MOV	EAX,DWORD [32+EBP]
   900 000008EE 8A 10                           	MOV	DL,BYTE [EAX]
   901 000008F0 8D 42 C0                        	LEA	EAX,DWORD [-64+EDX]
   902 000008F3 3C 3E                           	CMP	AL,62
   903 000008F5 77 63                           	JA	L210
   904 000008F7 0F B6 C2                        	MOVZX	EAX,DL
   905 000008FA 83 E8 40                        	SUB	EAX,64
   906 000008FD                                 L211:
   907 000008FD 6B D9 5E                        	IMUL	EBX,ECX,94
   908 00000900 8B 55 EC                        	MOV	EDX,DWORD [-20+EBP]
   909 00000903 01 C3                           	ADD	EBX,EAX
   910 00000905 C1 E3 05                        	SAL	EBX,5
   911 00000908 C6 82 000000BD 00               	MOV	BYTE [189+EDX],0
   912 0000090F 03 5D E8                        	ADD	EBX,DWORD [-24+EBP]
   913 00000912 0F BE 7D F2                     	MOVSX	EDI,BYTE [-14+EBP]
   914 00000916 8D 83 00001000                  	LEA	EAX,DWORD [4096+EBX]
   915 0000091C 81 C3 00001010                  	ADD	EBX,4112
   916 00000922 50                              	PUSH	EAX
   917 00000923 8B 45 10                        	MOV	EAX,DWORD [16+EBP]
   918 00000926 57                              	PUSH	EDI
   919 00000927 83 E8 08                        	SUB	EAX,8
   920 0000092A 0F B6 75 F3                     	MOVZX	ESI,BYTE [-13+EBP]
   921 0000092E 56                              	PUSH	ESI
   922 0000092F FF 75 14                        	PUSH	DWORD [20+EBP]
   923 00000932 50                              	PUSH	EAX
   924 00000933 FF 75 0C                        	PUSH	DWORD [12+EBP]
   925 00000936 FF 75 08                        	PUSH	DWORD [8+EBP]
   926 00000939 E8 FFFFFD28                     	CALL	_putfont8
   927 0000093E 53                              	PUSH	EBX
   928 0000093F 57                              	PUSH	EDI
   929 00000940 56                              	PUSH	ESI
   930 00000941 FF 75 14                        	PUSH	DWORD [20+EBP]
   931 00000944 FF 75 10                        	PUSH	DWORD [16+EBP]
   932 00000947 FF 75 0C                        	PUSH	DWORD [12+EBP]
   933 0000094A FF 75 08                        	PUSH	DWORD [8+EBP]
   934 0000094D E8 FFFFFD14                     	CALL	_putfont8
   935 00000952 83 C4 38                        	ADD	ESP,56
   936 00000955 E9 FFFFFF35                     	JMP	L207
   937 0000095A                                 L210:
   938 0000095A 8D 42 80                        	LEA	EAX,DWORD [-128+EDX]
   939 0000095D 3C 1E                           	CMP	AL,30
   940 0000095F 77 08                           	JA	L212
   941 00000961 0F B6 C2                        	MOVZX	EAX,DL
   942 00000964 83 E8 41                        	SUB	EAX,65
   943 00000967 EB 94                           	JMP	L211
   944 00000969                                 L212:
   945 00000969 0F B6 C2                        	MOVZX	EAX,DL
   946 0000096C 2D 0000009F                     	SUB	EAX,159
   947 00000971 41                              	INC	ECX
   948 00000972 EB 89                           	JMP	L211
   949 00000974                                 L208:
   950 00000974 0F B6 C2                        	MOVZX	EAX,DL
   951 00000977 8D 8C 00 FFFFFE7E               	LEA	ECX,DWORD [-386+EAX+EAX*1]
   952 0000097E E9 FFFFFF68                     	JMP	L209
   953 00000983                                 L197:
   954 00000983 8B 55 20                        	MOV	EDX,DWORD [32+EBP]
   955 00000986 0F BE 5D F2                     	MOVSX	EBX,BYTE [-14+EBP]
   956 0000098A 0F B6 02                        	MOVZX	EAX,BYTE [EDX]
   957 0000098D C1 E0 04                        	SAL	EAX,4
   958 00000990 05 [00000000]                   	ADD	EAX,_hankaku
   959 00000995 50                              	PUSH	EAX
   960 00000996 53                              	PUSH	EBX
   961 00000997 0F B6 45 F3                     	MOVZX	EAX,BYTE [-13+EBP]
   962 0000099B 50                              	PUSH	EAX
   963 0000099C FF 75 14                        	PUSH	DWORD [20+EBP]
   964 0000099F FF 75 10                        	PUSH	DWORD [16+EBP]
   965 000009A2 FF 75 0C                        	PUSH	DWORD [12+EBP]
   966 000009A5 FF 75 08                        	PUSH	DWORD [8+EBP]
   967 000009A8 E8 FFFFFCB9                     	CALL	_putfont8
   968 000009AD FF 45 20                        	INC	DWORD [32+EBP]
   969 000009B0 8B 45 10                        	MOV	EAX,DWORD [16+EBP]
   970 000009B3 8B 55 20                        	MOV	EDX,DWORD [32+EBP]
   971 000009B6 83 C4 1C                        	ADD	ESP,28
   972 000009B9 8D 04 D8                        	LEA	EAX,DWORD [EAX+EBX*8]
   973 000009BC 89 45 10                        	MOV	DWORD [16+EBP],EAX
   974 000009BF 80 3A 00                        	CMP	BYTE [EDX],0
   975 000009C2 75 BF                           	JNE	L197
   976 000009C4 E9 FFFFFD94                     	JMP	L192
   977                                          [SECTION .data]
   978 0000026C                                 _cursor.2:
   979 0000026C 2A 2E 2E 2E 2E 2E 2E 2E 2E 2E   	DB	"*..............."
       00000276 2E 2E 2E 2E 2E 2E 
   980 0000027C 2A 2A 2E 2E 2E 2E 2E 2E 2E 2E   	DB	"**.............."
       00000286 2E 2E 2E 2E 2E 2E 
   981 0000028C 2A 4F 2A 2E 2E 2E 2E 2E 2E 2E   	DB	"*O*............."
       00000296 2E 2E 2E 2E 2E 2E 
   982 0000029C 2A 4F 4F 2A 2E 2E 2E 2E 2E 2E   	DB	"*OO*............"
       000002A6 2E 2E 2E 2E 2E 2E 
   983 000002AC 2A 4F 4F 4F 2A 2E 2E 2E 2E 2E   	DB	"*OOO*..........."
       000002B6 2E 2E 2E 2E 2E 2E 
   984 000002BC 2A 4F 4F 4F 4F 2A 2E 2E 2E 2E   	DB	"*OOOO*.........."
       000002C6 2E 2E 2E 2E 2E 2E 
   985 000002CC 2A 4F 4F 4F 4F 4F 2A 2E 2E 2E   	DB	"*OOOOO*........."
       000002D6 2E 2E 2E 2E 2E 2E 
   986 000002DC 2A 4F 4F 4F 4F 4F 4F 2A 2E 2E   	DB	"*OOOOOO*........"
       000002E6 2E 2E 2E 2E 2E 2E 
   987 000002EC 2A 4F 4F 4F 4F 4F 4F 4F 2A 2E   	DB	"*OOOOOOO*......."
       000002F6 2E 2E 2E 2E 2E 2E 
   988 000002FC 2A 4F 4F 4F 4F 4F 2A 2A 2A 2A   	DB	"*OOOOO****......"
       00000306 2E 2E 2E 2E 2E 2E 
   989 0000030C 2A 4F 4F 2A 4F 4F 2A 2E 2E 2E   	DB	"*OO*OO*........."
       00000316 2E 2E 2E 2E 2E 2E 
   990 0000031C 2A 4F 2A 2A 4F 4F 2A 2E 2E 2E   	DB	"*O**OO*........."
       00000326 2E 2E 2E 2E 2E 2E 
   991 0000032C 2A 2A 2E 2E 2A 4F 4F 2A 2E 2E   	DB	"**..*OO*........"
       00000336 2E 2E 2E 2E 2E 2E 
   992 0000033C 2A 2E 2E 2E 2A 4F 4F 2A 2E 2E   	DB	"*...*OO*........"
       00000346 2E 2E 2E 2E 2E 2E 
   993 0000034C 2E 2E 2E 2E 2E 2A 4F 4F 2A 2E   	DB	".....*OO*......."
       00000356 2E 2E 2E 2E 2E 2E 
   994 0000035C 2E 2E 2E 2E 2E 2A 2A 2A 2E 2E   	DB	".....***........"
       00000366 2E 2E 2E 2E 2E 2E 
   995                                          [SECTION .text]
   996 000009C9                                 	GLOBAL	_init_mouse_cursor81
   997 000009C9                                 _init_mouse_cursor81:
   998 000009C9 55                              	PUSH	EBP
   999 000009CA 89 E5                           	MOV	EBP,ESP
  1000 000009CC 57                              	PUSH	EDI
  1001 000009CD 56                              	PUSH	ESI
  1002 000009CE 31 F6                           	XOR	ESI,ESI
  1003 000009D0 53                              	PUSH	EBX
  1004 000009D1 31 DB                           	XOR	EBX,EBX
  1005 000009D3 50                              	PUSH	EAX
  1006 000009D4 8A 45 0C                        	MOV	AL,BYTE [12+EBP]
  1007 000009D7 8B 7D 08                        	MOV	EDI,DWORD [8+EBP]
  1008 000009DA 88 45 F3                        	MOV	BYTE [-13+EBP],AL
  1009 000009DD                                 L243:
  1010 000009DD 31 C9                           	XOR	ECX,ECX
  1011 000009DF                                 L242:
  1012 000009DF 8D 14 19                        	LEA	EDX,DWORD [ECX+EBX*1]
  1013 000009E2 80 BA [0000026C] 2A             	CMP	BYTE [_cursor.2+EDX],42
  1014 000009E9 74 45                           	JE	L248
  1015 000009EB                                 L239:
  1016 000009EB 80 BA [0000026C] 4F             	CMP	BYTE [_cursor.2+EDX],79
  1017 000009F2 74 30                           	JE	L249
  1018 000009F4                                 L240:
  1019 000009F4 80 BA [0000026C] 2E             	CMP	BYTE [_cursor.2+EDX],46
  1020 000009FB 74 15                           	JE	L250
  1021 000009FD                                 L237:
  1022 000009FD 41                              	INC	ECX
  1023 000009FE 83 F9 0F                        	CMP	ECX,15
  1024 00000A01 7E DC                           	JLE	L242
  1025 00000A03 46                              	INC	ESI
  1026 00000A04 83 C3 10                        	ADD	EBX,16
  1027 00000A07 83 FE 0F                        	CMP	ESI,15
  1028 00000A0A 7E D1                           	JLE	L243
  1029 00000A0C 5F                              	POP	EDI
  1030 00000A0D 5B                              	POP	EBX
  1031 00000A0E 5E                              	POP	ESI
  1032 00000A0F 5F                              	POP	EDI
  1033 00000A10 5D                              	POP	EBP
  1034 00000A11 C3                              	RET
  1035 00000A12                                 L250:
  1036 00000A12 0F B6 45 F3                     	MOVZX	EAX,BYTE [-13+EBP]
  1037 00000A16 66 8B 84 00 [00000890]          	MOV	AX,WORD [_table_16_65536+EAX+EAX*1]
  1038 00000A1E 66 89 04 57                     	MOV	WORD [EDI+EDX*2],AX
  1039 00000A22 EB D9                           	JMP	L237
  1040 00000A24                                 L249:
  1041 00000A24 66 A1 [0000089E]                	MOV	AX,WORD [_table_16_65536+14]
  1042 00000A2A 66 89 04 57                     	MOV	WORD [EDI+EDX*2],AX
  1043 00000A2E EB C4                           	JMP	L240
  1044 00000A30                                 L248:
  1045 00000A30 66 A1 [00000890]                	MOV	AX,WORD [_table_16_65536]
  1046 00000A36 66 89 04 57                     	MOV	WORD [EDI+EDX*2],AX
  1047 00000A3A EB AF                           	JMP	L239
  1048                                          [SECTION .data]
  1049 0000036C                                 _cursor.3:
  1050 0000036C 2E 2A 2A 2E 2E 2E 2E 2E 2E 2E   	DB	".**............."
       00000376 2E 2E 2E 2E 2E 2E 
  1051 0000037C 2A 4F 4F 2A 2E 2E 2E 2E 2E 2E   	DB	"*OO*............"
       00000386 2E 2E 2E 2E 2E 2E 
  1052 0000038C 2A 4F 4F 2A 2E 2E 2E 2E 2E 2E   	DB	"*OO*............"
       00000396 2E 2E 2E 2E 2E 2E 
  1053 0000039C 2A 4F 4F 2A 2A 2A 2E 2A 2A 2E   	DB	"*OO***.**.**.**."
       000003A6 2A 2A 2E 2A 2A 2E 
  1054 000003AC 2A 4F 4F 2A 4F 4F 2A 4F 4F 2A   	DB	"*OO*OO*OO*OO*OO*"
       000003B6 4F 4F 2A 4F 4F 2A 
  1055 000003BC 2A 4F 4F 2A 4F 4F 2A 4F 4F 2A   	DB	"*OO*OO*OO*OO*OO*"
       000003C6 4F 4F 2A 4F 4F 2A 
  1056 000003CC 2A 4F 4F 2A 4F 4F 2A 4F 4F 2A   	DB	"*OO*OO*OO*OO*OO*"
       000003D6 4F 4F 2A 4F 4F 2A 
  1057 000003DC 2A 4F 4F 2A 4F 4F 2A 4F 4F 2A   	DB	"*OO*OO*OO*OO*OO*"
       000003E6 4F 4F 2A 4F 4F 2A 
  1058 000003EC 2A 4F 4F 4F 4F 4F 4F 4F 4F 4F   	DB	"*OOOOOOOOOOOOOO*"
       000003F6 4F 4F 4F 4F 4F 2A 
  1059 000003FC 2A 4F 4F 4F 4F 4F 4F 4F 4F 4F   	DB	"*OOOOOOOOOOOOOO*"
       00000406 4F 4F 4F 4F 4F 2A 
  1060 0000040C 2A 4F 4F 4F 4F 4F 4F 4F 4F 4F   	DB	"*OOOOOOOOOOOOOO*"
       00000416 4F 4F 4F 4F 4F 2A 
  1061 0000041C 2A 4F 4F 4F 4F 4F 4F 4F 4F 4F   	DB	"*OOOOOOOOOOOOOO*"
       00000426 4F 4F 4F 4F 4F 2A 
  1062 0000042C 2A 4F 4F 4F 4F 4F 4F 4F 4F 4F   	DB	"*OOOOOOOOOOOOOO*"
       00000436 4F 4F 4F 4F 4F 2A 
  1063 0000043C 2A 4F 4F 4F 4F 4F 4F 4F 4F 4F   	DB	"*OOOOOOOOOOOOOO*"
       00000446 4F 4F 4F 4F 4F 2A 
  1064 0000044C 2A 4F 4F 4F 4F 4F 4F 4F 4F 4F   	DB	"*OOOOOOOOOOOOOO*"
       00000456 4F 4F 4F 4F 4F 2A 
  1065 0000045C 2E 2A 2A 2A 2A 2A 2A 2A 2A 2A   	DB	".**************."
       00000466 2A 2A 2A 2A 2A 2E 
  1066                                          [SECTION .text]
  1067 00000A3C                                 	GLOBAL	_init_mouse_cursor8
  1068 00000A3C                                 _init_mouse_cursor8:
  1069 00000A3C 55                              	PUSH	EBP
  1070 00000A3D 89 E5                           	MOV	EBP,ESP
  1071 00000A3F 57                              	PUSH	EDI
  1072 00000A40 56                              	PUSH	ESI
  1073 00000A41 31 F6                           	XOR	ESI,ESI
  1074 00000A43 53                              	PUSH	EBX
  1075 00000A44 31 DB                           	XOR	EBX,EBX
  1076 00000A46 50                              	PUSH	EAX
  1077 00000A47 8A 45 0C                        	MOV	AL,BYTE [12+EBP]
  1078 00000A4A 8B 7D 08                        	MOV	EDI,DWORD [8+EBP]
  1079 00000A4D 88 45 F3                        	MOV	BYTE [-13+EBP],AL
  1080 00000A50                                 L264:
  1081 00000A50 31 C9                           	XOR	ECX,ECX
  1082 00000A52                                 L263:
  1083 00000A52 8D 14 19                        	LEA	EDX,DWORD [ECX+EBX*1]
  1084 00000A55 80 BA [0000036C] 2A             	CMP	BYTE [_cursor.3+EDX],42
  1085 00000A5C 74 45                           	JE	L269
  1086 00000A5E                                 L260:
  1087 00000A5E 80 BA [0000036C] 4F             	CMP	BYTE [_cursor.3+EDX],79
  1088 00000A65 74 30                           	JE	L270
  1089 00000A67                                 L261:
  1090 00000A67 80 BA [0000036C] 2E             	CMP	BYTE [_cursor.3+EDX],46
  1091 00000A6E 74 15                           	JE	L271
  1092 00000A70                                 L258:
  1093 00000A70 41                              	INC	ECX
  1094 00000A71 83 F9 0F                        	CMP	ECX,15
  1095 00000A74 7E DC                           	JLE	L263
  1096 00000A76 46                              	INC	ESI
  1097 00000A77 83 C3 10                        	ADD	EBX,16
  1098 00000A7A 83 FE 0F                        	CMP	ESI,15
  1099 00000A7D 7E D1                           	JLE	L264
  1100 00000A7F 58                              	POP	EAX
  1101 00000A80 5B                              	POP	EBX
  1102 00000A81 5E                              	POP	ESI
  1103 00000A82 5F                              	POP	EDI
  1104 00000A83 5D                              	POP	EBP
  1105 00000A84 C3                              	RET
  1106 00000A85                                 L271:
  1107 00000A85 0F B6 45 F3                     	MOVZX	EAX,BYTE [-13+EBP]
  1108 00000A89 66 8B 84 00 [00000890]          	MOV	AX,WORD [_table_16_65536+EAX+EAX*1]
  1109 00000A91 66 89 04 57                     	MOV	WORD [EDI+EDX*2],AX
  1110 00000A95 EB D9                           	JMP	L258
  1111 00000A97                                 L270:
  1112 00000A97 66 A1 [0000089E]                	MOV	AX,WORD [_table_16_65536+14]
  1113 00000A9D 66 89 04 57                     	MOV	WORD [EDI+EDX*2],AX
  1114 00000AA1 EB C4                           	JMP	L261
  1115 00000AA3                                 L269:
  1116 00000AA3 66 A1 [00000890]                	MOV	AX,WORD [_table_16_65536]
  1117 00000AA9 66 89 04 57                     	MOV	WORD [EDI+EDX*2],AX
  1118 00000AAD EB AF                           	JMP	L260
  1119                                          [SECTION .data]
  1120 0000046C                                 _cursor.4:
  1121 0000046C 2E 2E 2E 2A 2E 2E 2E 2E 2E 2E   	DB	"...*........*..."
       00000476 2E 2E 2A 2E 2E 2E 
  1122 0000047C 2E 2E 2A 2A 2E 2E 2E 2E 2E 2E   	DB	"..**........**.."
       00000486 2E 2E 2A 2A 2E 2E 
  1123 0000048C 2E 2A 4F 2A 2A 2A 2A 2A 2A 2A   	DB	".*O**********O*."
       00000496 2A 2A 2A 4F 2A 2E 
  1124 0000049C 2A 4F 4F 4F 4F 4F 4F 4F 4F 4F   	DB	"*OOOOOOOOOOOOOO*"
       000004A6 4F 4F 4F 4F 4F 2A 
  1125 000004AC 2E 2A 4F 2A 2A 2A 2A 2A 2A 2A   	DB	".*O**********O*."
       000004B6 2A 2A 2A 4F 2A 2E 
  1126 000004BC 2E 2E 2A 2A 2E 2E 2E 2E 2E 2E   	DB	"..**........**.."
       000004C6 2E 2E 2A 2A 2E 2E 
  1127 000004CC 2E 2E 2E 2A 2E 2E 2E 2E 2E 2E   	DB	"...*........*..."
       000004D6 2E 2E 2A 2E 2E 2E 
  1128 000004DC 2E 2E 2E 2E 2E 2E 2E 2E 2E 2E   	DB	"................"
       000004E6 2E 2E 2E 2E 2E 2E 
  1129 000004EC 2E 2E 2E 2E 2E 2E 2E 2E 2E 2E   	DB	"................"
       000004F6 2E 2E 2E 2E 2E 2E 
  1130 000004FC 2E 2E 2E 2E 2E 2E 2E 2E 2E 2E   	DB	"................"
       00000506 2E 2E 2E 2E 2E 2E 
  1131 0000050C 2E 2E 2E 2E 2E 2E 2E 2E 2E 2E   	DB	"................"
       00000516 2E 2E 2E 2E 2E 2E 
  1132 0000051C 2E 2E 2E 2E 2E 2E 2E 2E 2E 2E   	DB	"................"
       00000526 2E 2E 2E 2E 2E 2E 
  1133 0000052C 2E 2E 2E 2E 2E 2E 2E 2E 2E 2E   	DB	"................"
       00000536 2E 2E 2E 2E 2E 2E 
  1134 0000053C 2E 2E 2E 2E 2E 2E 2E 2E 2E 2E   	DB	"................"
       00000546 2E 2E 2E 2E 2E 2E 
  1135 0000054C 2E 2E 2E 2E 2E 2E 2E 2E 2E 2E   	DB	"................"
       00000556 2E 2E 2E 2E 2E 2E 
  1136 0000055C 2E 2E 2E 2E 2E 2E 2E 2E 2E 2E   	DB	"................"
       00000566 2E 2E 2E 2E 2E 2E 
  1137                                          [SECTION .text]
  1138 00000AAF                                 	GLOBAL	_set_mouse_cursorl8
  1139 00000AAF                                 _set_mouse_cursorl8:
  1140 00000AAF 55                              	PUSH	EBP
  1141 00000AB0 89 E5                           	MOV	EBP,ESP
  1142 00000AB2 57                              	PUSH	EDI
  1143 00000AB3 56                              	PUSH	ESI
  1144 00000AB4 31 F6                           	XOR	ESI,ESI
  1145 00000AB6 53                              	PUSH	EBX
  1146 00000AB7 31 DB                           	XOR	EBX,EBX
  1147 00000AB9 50                              	PUSH	EAX
  1148 00000ABA 8A 45 0C                        	MOV	AL,BYTE [12+EBP]
  1149 00000ABD 8B 7D 08                        	MOV	EDI,DWORD [8+EBP]
  1150 00000AC0 88 45 F3                        	MOV	BYTE [-13+EBP],AL
  1151 00000AC3                                 L285:
  1152 00000AC3 31 C9                           	XOR	ECX,ECX
  1153 00000AC5                                 L284:
  1154 00000AC5 8D 14 19                        	LEA	EDX,DWORD [ECX+EBX*1]
  1155 00000AC8 80 BA [0000046C] 2A             	CMP	BYTE [_cursor.4+EDX],42
  1156 00000ACF 74 45                           	JE	L290
  1157 00000AD1                                 L281:
  1158 00000AD1 80 BA [0000046C] 4F             	CMP	BYTE [_cursor.4+EDX],79
  1159 00000AD8 74 30                           	JE	L291
  1160 00000ADA                                 L282:
  1161 00000ADA 80 BA [0000046C] 2E             	CMP	BYTE [_cursor.4+EDX],46
  1162 00000AE1 74 15                           	JE	L292
  1163 00000AE3                                 L279:
  1164 00000AE3 41                              	INC	ECX
  1165 00000AE4 83 F9 0F                        	CMP	ECX,15
  1166 00000AE7 7E DC                           	JLE	L284
  1167 00000AE9 46                              	INC	ESI
  1168 00000AEA 83 C3 10                        	ADD	EBX,16
  1169 00000AED 83 FE 0F                        	CMP	ESI,15
  1170 00000AF0 7E D1                           	JLE	L285
  1171 00000AF2 58                              	POP	EAX
  1172 00000AF3 5B                              	POP	EBX
  1173 00000AF4 5E                              	POP	ESI
  1174 00000AF5 5F                              	POP	EDI
  1175 00000AF6 5D                              	POP	EBP
  1176 00000AF7 C3                              	RET
  1177 00000AF8                                 L292:
  1178 00000AF8 0F B6 45 F3                     	MOVZX	EAX,BYTE [-13+EBP]
  1179 00000AFC 66 8B 84 00 [00000890]          	MOV	AX,WORD [_table_16_65536+EAX+EAX*1]
  1180 00000B04 66 89 04 57                     	MOV	WORD [EDI+EDX*2],AX
  1181 00000B08 EB D9                           	JMP	L279
  1182 00000B0A                                 L291:
  1183 00000B0A 66 A1 [0000089E]                	MOV	AX,WORD [_table_16_65536+14]
  1184 00000B10 66 89 04 57                     	MOV	WORD [EDI+EDX*2],AX
  1185 00000B14 EB C4                           	JMP	L282
  1186 00000B16                                 L290:
  1187 00000B16 66 A1 [00000890]                	MOV	AX,WORD [_table_16_65536]
  1188 00000B1C 66 89 04 57                     	MOV	WORD [EDI+EDX*2],AX
  1189 00000B20 EB AF                           	JMP	L281
  1190                                          [SECTION .data]
  1191 0000056C                                 _cursor.5:
  1192 0000056C 2E 2E 2E 2A 2E 2E 2E 2E 2E 2E   	DB	"...*............"
       00000576 2E 2E 2E 2E 2E 2E 
  1193 0000057C 2E 2E 2A 4F 2A 2E 2E 2E 2E 2E   	DB	"..*O*..........."
       00000586 2E 2E 2E 2E 2E 2E 
  1194 0000058C 2E 2A 4F 4F 4F 2A 2E 2E 2E 2E   	DB	".*OOO*.........."
       00000596 2E 2E 2E 2E 2E 2E 
  1195 0000059C 2A 2A 2A 4F 2A 2A 2A 2E 2E 2E   	DB	"***O***........."
       000005A6 2E 2E 2E 2E 2E 2E 
  1196 000005AC 2E 2E 2A 4F 2A 2E 2E 2E 2E 2E   	DB	"..*O*..........."
       000005B6 2E 2E 2E 2E 2E 2E 
  1197 000005BC 2E 2E 2A 4F 2A 2E 2E 2E 2E 2E   	DB	"..*O*..........."
       000005C6 2E 2E 2E 2E 2E 2E 
  1198 000005CC 2E 2E 2A 4F 2A 2E 2E 2E 2E 2E   	DB	"..*O*..........."
       000005D6 2E 2E 2E 2E 2E 2E 
  1199 000005DC 2E 2E 2A 4F 2A 2E 2E 2E 2E 2E   	DB	"..*O*..........."
       000005E6 2E 2E 2E 2E 2E 2E 
  1200 000005EC 2E 2E 2A 4F 2A 2E 2E 2E 2E 2E   	DB	"..*O*..........."
       000005F6 2E 2E 2E 2E 2E 2E 
  1201 000005FC 2E 2E 2A 4F 2A 2E 2E 2E 2E 2E   	DB	"..*O*..........."
       00000606 2E 2E 2E 2E 2E 2E 
  1202 0000060C 2E 2E 2A 4F 2A 2E 2E 2E 2E 2E   	DB	"..*O*..........."
       00000616 2E 2E 2E 2E 2E 2E 
  1203 0000061C 2E 2E 2A 4F 2A 2E 2E 2E 2E 2E   	DB	"..*O*..........."
       00000626 2E 2E 2E 2E 2E 2E 
  1204 0000062C 2A 2A 2A 4F 2A 2A 2A 2E 2E 2E   	DB	"***O***........."
       00000636 2E 2E 2E 2E 2E 2E 
  1205 0000063C 2E 2A 4F 4F 4F 2A 2E 2E 2E 2E   	DB	".*OOO*.........."
       00000646 2E 2E 2E 2E 2E 2E 
  1206 0000064C 2E 2E 2A 4F 2A 2E 2E 2E 2E 2E   	DB	"..*O*..........."
       00000656 2E 2E 2E 2E 2E 2E 
  1207 0000065C 2E 2E 2E 2A 2E 2E 2E 2E 2E 2E   	DB	"...*............"
       00000666 2E 2E 2E 2E 2E 2E 
  1208                                          [SECTION .text]
  1209 00000B22                                 	GLOBAL	_set_mouse_cursorh8
  1210 00000B22                                 _set_mouse_cursorh8:
  1211 00000B22 55                              	PUSH	EBP
  1212 00000B23 89 E5                           	MOV	EBP,ESP
  1213 00000B25 57                              	PUSH	EDI
  1214 00000B26 56                              	PUSH	ESI
  1215 00000B27 31 F6                           	XOR	ESI,ESI
  1216 00000B29 53                              	PUSH	EBX
  1217 00000B2A 31 DB                           	XOR	EBX,EBX
  1218 00000B2C 52                              	PUSH	EDX
  1219 00000B2D 8A 45 0C                        	MOV	AL,BYTE [12+EBP]
  1220 00000B30 8B 7D 08                        	MOV	EDI,DWORD [8+EBP]
  1221 00000B33 88 45 F3                        	MOV	BYTE [-13+EBP],AL
  1222 00000B36                                 L306:
  1223 00000B36 31 C9                           	XOR	ECX,ECX
  1224 00000B38                                 L305:
  1225 00000B38 8D 14 19                        	LEA	EDX,DWORD [ECX+EBX*1]
  1226 00000B3B 80 BA [0000056C] 2A             	CMP	BYTE [_cursor.5+EDX],42
  1227 00000B42 74 45                           	JE	L311
  1228 00000B44                                 L302:
  1229 00000B44 80 BA [0000056C] 4F             	CMP	BYTE [_cursor.5+EDX],79
  1230 00000B4B 74 30                           	JE	L312
  1231 00000B4D                                 L303:
  1232 00000B4D 80 BA [0000056C] 2E             	CMP	BYTE [_cursor.5+EDX],46
  1233 00000B54 74 15                           	JE	L313
  1234 00000B56                                 L300:
  1235 00000B56 41                              	INC	ECX
  1236 00000B57 83 F9 0F                        	CMP	ECX,15
  1237 00000B5A 7E DC                           	JLE	L305
  1238 00000B5C 46                              	INC	ESI
  1239 00000B5D 83 C3 10                        	ADD	EBX,16
  1240 00000B60 83 FE 0F                        	CMP	ESI,15
  1241 00000B63 7E D1                           	JLE	L306
  1242 00000B65 58                              	POP	EAX
  1243 00000B66 5B                              	POP	EBX
  1244 00000B67 5E                              	POP	ESI
  1245 00000B68 5F                              	POP	EDI
  1246 00000B69 5D                              	POP	EBP
  1247 00000B6A C3                              	RET
  1248 00000B6B                                 L313:
  1249 00000B6B 0F B6 45 F3                     	MOVZX	EAX,BYTE [-13+EBP]
  1250 00000B6F 66 8B 84 00 [00000890]          	MOV	AX,WORD [_table_16_65536+EAX+EAX*1]
  1251 00000B77 66 89 04 57                     	MOV	WORD [EDI+EDX*2],AX
  1252 00000B7B EB D9                           	JMP	L300
  1253 00000B7D                                 L312:
  1254 00000B7D 66 A1 [0000089E]                	MOV	AX,WORD [_table_16_65536+14]
  1255 00000B83 66 89 04 57                     	MOV	WORD [EDI+EDX*2],AX
  1256 00000B87 EB C4                           	JMP	L303
  1257 00000B89                                 L311:
  1258 00000B89 66 A1 [00000890]                	MOV	AX,WORD [_table_16_65536]
  1259 00000B8F 66 89 04 57                     	MOV	WORD [EDI+EDX*2],AX
  1260 00000B93 EB AF                           	JMP	L302
  1261                                          [SECTION .data]
  1262 0000066C                                 _cursor.6:
  1263 0000066C 2A 2A 2A 2A 2A 2E 2E 2E 2E 2E   	DB	"*****..........."
       00000676 2E 2E 2E 2E 2E 2E 
  1264 0000067C 2A 4F 4F 2A 2E 2E 2E 2E 2E 2E   	DB	"*OO*............"
       00000686 2E 2E 2E 2E 2E 2E 
  1265 0000068C 2A 4F 4F 2A 2E 2E 2E 2E 2E 2E   	DB	"*OO*............"
       00000696 2E 2E 2E 2E 2E 2E 
  1266 0000069C 2A 2A 2A 4F 2A 2E 2E 2E 2E 2E   	DB	"***O*..........."
       000006A6 2E 2E 2E 2E 2E 2E 
  1267 000006AC 2A 2E 2E 2A 4F 2A 2E 2E 2E 2E   	DB	"*..*O*.........."
       000006B6 2E 2E 2E 2E 2E 2E 
  1268 000006BC 2E 2E 2E 2E 2A 4F 2A 2E 2E 2E   	DB	"....*O*........."
       000006C6 2E 2E 2E 2E 2E 2E 
  1269 000006CC 2E 2E 2E 2E 2E 2A 4F 2A 2E 2E   	DB	".....*O*........"
       000006D6 2E 2E 2E 2E 2E 2E 
  1270 000006DC 2E 2E 2E 2E 2E 2E 2A 4F 2A 2E   	DB	"......*O*......."
       000006E6 2E 2E 2E 2E 2E 2E 
  1271 000006EC 2E 2E 2E 2E 2E 2E 2E 2A 4F 2A   	DB	".......*O*......"
       000006F6 2E 2E 2E 2E 2E 2E 
  1272 000006FC 2E 2E 2E 2E 2E 2E 2E 2E 2A 4F   	DB	"........*O*....."
       00000706 2A 2E 2E 2E 2E 2E 
  1273 0000070C 2E 2E 2E 2E 2E 2E 2E 2E 2E 2A   	DB	".........*O*...."
       00000716 4F 2A 2E 2E 2E 2E 
  1274 0000071C 2E 2E 2E 2E 2E 2E 2E 2E 2E 2E   	DB	"..........*O*..*"
       00000726 2A 4F 2A 2E 2E 2A 
  1275 0000072C 2E 2E 2E 2E 2E 2E 2E 2E 2E 2E   	DB	"...........*O***"
       00000736 2E 2A 4F 2A 2A 2A 
  1276 0000073C 2E 2E 2E 2E 2E 2E 2E 2E 2E 2E   	DB	"............*OO*"
       00000746 2E 2E 2A 4F 4F 2A 
  1277 0000074C 2E 2E 2E 2E 2E 2E 2E 2E 2E 2E   	DB	"............*OO*"
       00000756 2E 2E 2A 4F 4F 2A 
  1278 0000075C 2E 2E 2E 2E 2E 2E 2E 2E 2E 2E   	DB	"...........*****"
       00000766 2E 2A 2A 2A 2A 2A 
  1279                                          [SECTION .text]
  1280 00000B95                                 	GLOBAL	_set_mouse_cursorlt8
  1281 00000B95                                 _set_mouse_cursorlt8:
  1282 00000B95 55                              	PUSH	EBP
  1283 00000B96 89 E5                           	MOV	EBP,ESP
  1284 00000B98 57                              	PUSH	EDI
  1285 00000B99 56                              	PUSH	ESI
  1286 00000B9A 31 F6                           	XOR	ESI,ESI
  1287 00000B9C 53                              	PUSH	EBX
  1288 00000B9D 53                              	PUSH	EBX
  1289 00000B9E 31 DB                           	XOR	EBX,EBX
  1290 00000BA0 8A 45 0C                        	MOV	AL,BYTE [12+EBP]
  1291 00000BA3 8B 7D 08                        	MOV	EDI,DWORD [8+EBP]
  1292 00000BA6 88 45 F3                        	MOV	BYTE [-13+EBP],AL
  1293 00000BA9                                 L327:
  1294 00000BA9 31 C9                           	XOR	ECX,ECX
  1295 00000BAB                                 L326:
  1296 00000BAB 8D 14 19                        	LEA	EDX,DWORD [ECX+EBX*1]
  1297 00000BAE 80 BA [0000066C] 2A             	CMP	BYTE [_cursor.6+EDX],42
  1298 00000BB5 74 45                           	JE	L332
  1299 00000BB7                                 L323:
  1300 00000BB7 80 BA [0000066C] 4F             	CMP	BYTE [_cursor.6+EDX],79
  1301 00000BBE 74 30                           	JE	L333
  1302 00000BC0                                 L324:
  1303 00000BC0 80 BA [0000066C] 2E             	CMP	BYTE [_cursor.6+EDX],46
  1304 00000BC7 74 15                           	JE	L334
  1305 00000BC9                                 L321:
  1306 00000BC9 41                              	INC	ECX
  1307 00000BCA 83 F9 0F                        	CMP	ECX,15
  1308 00000BCD 7E DC                           	JLE	L326
  1309 00000BCF 46                              	INC	ESI
  1310 00000BD0 83 C3 10                        	ADD	EBX,16
  1311 00000BD3 83 FE 0F                        	CMP	ESI,15
  1312 00000BD6 7E D1                           	JLE	L327
  1313 00000BD8 59                              	POP	ECX
  1314 00000BD9 5B                              	POP	EBX
  1315 00000BDA 5E                              	POP	ESI
  1316 00000BDB 5F                              	POP	EDI
  1317 00000BDC 5D                              	POP	EBP
  1318 00000BDD C3                              	RET
  1319 00000BDE                                 L334:
  1320 00000BDE 0F B6 45 F3                     	MOVZX	EAX,BYTE [-13+EBP]
  1321 00000BE2 66 8B 84 00 [00000890]          	MOV	AX,WORD [_table_16_65536+EAX+EAX*1]
  1322 00000BEA 66 89 04 57                     	MOV	WORD [EDI+EDX*2],AX
  1323 00000BEE EB D9                           	JMP	L321
  1324 00000BF0                                 L333:
  1325 00000BF0 66 A1 [0000089E]                	MOV	AX,WORD [_table_16_65536+14]
  1326 00000BF6 66 89 04 57                     	MOV	WORD [EDI+EDX*2],AX
  1327 00000BFA EB C4                           	JMP	L324
  1328 00000BFC                                 L332:
  1329 00000BFC 66 A1 [00000890]                	MOV	AX,WORD [_table_16_65536]
  1330 00000C02 66 89 04 57                     	MOV	WORD [EDI+EDX*2],AX
  1331 00000C06 EB AF                           	JMP	L323
  1332                                          [SECTION .data]
  1333 0000076C                                 _cursor.7:
  1334 0000076C 2E 2E 2E 2E 2E 2E 2E 2E 2E 2E   	DB	"...........*****"
       00000776 2E 2A 2A 2A 2A 2A 
  1335 0000077C 2E 2E 2E 2E 2E 2E 2E 2E 2E 2E   	DB	"............*OO*"
       00000786 2E 2E 2A 4F 4F 2A 
  1336 0000078C 2E 2E 2E 2E 2E 2E 2E 2E 2E 2E   	DB	"............*OO*"
       00000796 2E 2E 2A 4F 4F 2A 
  1337 0000079C 2E 2E 2E 2E 2E 2E 2E 2E 2E 2E   	DB	"...........*O***"
       000007A6 2E 2A 4F 2A 2A 2A 
  1338 000007AC 2E 2E 2E 2E 2E 2E 2E 2E 2E 2E   	DB	"..........*O*..*"
       000007B6 2A 4F 2A 2E 2E 2A 
  1339 000007BC 2E 2E 2E 2E 2E 2E 2E 2E 2E 2A   	DB	".........*O*...."
       000007C6 4F 2A 2E 2E 2E 2E 
  1340 000007CC 2E 2E 2E 2E 2E 2E 2E 2E 2A 4F   	DB	"........*O*....."
       000007D6 2A 2E 2E 2E 2E 2E 
  1341 000007DC 2E 2E 2E 2E 2E 2E 2E 2A 4F 2A   	DB	".......*O*......"
       000007E6 2E 2E 2E 2E 2E 2E 
  1342 000007EC 2E 2E 2E 2E 2E 2E 2A 4F 2A 2E   	DB	"......*O*......."
       000007F6 2E 2E 2E 2E 2E 2E 
  1343 000007FC 2E 2E 2E 2E 2E 2A 4F 2A 2E 2E   	DB	".....*O*........"
       00000806 2E 2E 2E 2E 2E 2E 
  1344 0000080C 2E 2E 2E 2E 2A 4F 2A 2E 2E 2E   	DB	"....*O*........."
       00000816 2E 2E 2E 2E 2E 2E 
  1345 0000081C 2A 2E 2E 2A 4F 2A 2E 2E 2E 2E   	DB	"*..*O*.........."
       00000826 2E 2E 2E 2E 2E 2E 
  1346 0000082C 2A 2A 2A 4F 2A 2E 2E 2E 2E 2E   	DB	"***O*..........."
       00000836 2E 2E 2E 2E 2E 2E 
  1347 0000083C 2A 4F 4F 2A 2E 2E 2E 2E 2E 2E   	DB	"*OO*............"
       00000846 2E 2E 2E 2E 2E 2E 
  1348 0000084C 2A 4F 4F 2A 2E 2E 2E 2E 2E 2E   	DB	"*OO*............"
       00000856 2E 2E 2E 2E 2E 2E 
  1349 0000085C 2A 2A 2A 2A 2A 2E 2E 2E 2E 2E   	DB	"*****..........."
       00000866 2E 2E 2E 2E 2E 2E 
  1350                                          [SECTION .text]
  1351 00000C08                                 	GLOBAL	_set_mouse_cursorrb8
  1352 00000C08                                 _set_mouse_cursorrb8:
  1353 00000C08 55                              	PUSH	EBP
  1354 00000C09 89 E5                           	MOV	EBP,ESP
  1355 00000C0B 57                              	PUSH	EDI
  1356 00000C0C 56                              	PUSH	ESI
  1357 00000C0D 53                              	PUSH	EBX
  1358 00000C0E 31 F6                           	XOR	ESI,ESI
  1359 00000C10 57                              	PUSH	EDI
  1360 00000C11 31 DB                           	XOR	EBX,EBX
  1361 00000C13 8A 45 0C                        	MOV	AL,BYTE [12+EBP]
  1362 00000C16 8B 7D 08                        	MOV	EDI,DWORD [8+EBP]
  1363 00000C19 88 45 F3                        	MOV	BYTE [-13+EBP],AL
  1364 00000C1C                                 L348:
  1365 00000C1C 31 C9                           	XOR	ECX,ECX
  1366 00000C1E                                 L347:
  1367 00000C1E 8D 14 19                        	LEA	EDX,DWORD [ECX+EBX*1]
  1368 00000C21 80 BA [0000076C] 2A             	CMP	BYTE [_cursor.7+EDX],42
  1369 00000C28 74 45                           	JE	L353
  1370 00000C2A                                 L344:
  1371 00000C2A 80 BA [0000076C] 4F             	CMP	BYTE [_cursor.7+EDX],79
  1372 00000C31 74 30                           	JE	L354
  1373 00000C33                                 L345:
  1374 00000C33 80 BA [0000076C] 2E             	CMP	BYTE [_cursor.7+EDX],46
  1375 00000C3A 74 15                           	JE	L355
  1376 00000C3C                                 L342:
  1377 00000C3C 41                              	INC	ECX
  1378 00000C3D 83 F9 0F                        	CMP	ECX,15
  1379 00000C40 7E DC                           	JLE	L347
  1380 00000C42 46                              	INC	ESI
  1381 00000C43 83 C3 10                        	ADD	EBX,16
  1382 00000C46 83 FE 0F                        	CMP	ESI,15
  1383 00000C49 7E D1                           	JLE	L348
  1384 00000C4B 5E                              	POP	ESI
  1385 00000C4C 5B                              	POP	EBX
  1386 00000C4D 5E                              	POP	ESI
  1387 00000C4E 5F                              	POP	EDI
  1388 00000C4F 5D                              	POP	EBP
  1389 00000C50 C3                              	RET
  1390 00000C51                                 L355:
  1391 00000C51 0F B6 45 F3                     	MOVZX	EAX,BYTE [-13+EBP]
  1392 00000C55 66 8B 84 00 [00000890]          	MOV	AX,WORD [_table_16_65536+EAX+EAX*1]
  1393 00000C5D 66 89 04 57                     	MOV	WORD [EDI+EDX*2],AX
  1394 00000C61 EB D9                           	JMP	L342
  1395 00000C63                                 L354:
  1396 00000C63 66 A1 [0000089E]                	MOV	AX,WORD [_table_16_65536+14]
  1397 00000C69 66 89 04 57                     	MOV	WORD [EDI+EDX*2],AX
  1398 00000C6D EB C4                           	JMP	L345
  1399 00000C6F                                 L353:
  1400 00000C6F 66 A1 [00000890]                	MOV	AX,WORD [_table_16_65536]
  1401 00000C75 66 89 04 57                     	MOV	WORD [EDI+EDX*2],AX
  1402 00000C79 EB AF                           	JMP	L344
  1403 00000C7B                                 	GLOBAL	_putblock8_8
  1404 00000C7B                                 _putblock8_8:
  1405 00000C7B 55                              	PUSH	EBP
  1406 00000C7C 89 E5                           	MOV	EBP,ESP
  1407 00000C7E 57                              	PUSH	EDI
  1408 00000C7F 56                              	PUSH	ESI
  1409 00000C80 31 F6                           	XOR	ESI,ESI
  1410 00000C82 53                              	PUSH	EBX
  1411 00000C83 83 EC 0C                        	SUB	ESP,12
  1412 00000C86 3B 75 14                        	CMP	ESI,DWORD [20+EBP]
  1413 00000C89 7D 50                           	JGE	L368
  1414 00000C8B 31 FF                           	XOR	EDI,EDI
  1415 00000C8D                                 L366:
  1416 00000C8D 31 DB                           	XOR	EBX,EBX
  1417 00000C8F 3B 5D 10                        	CMP	EBX,DWORD [16+EBP]
  1418 00000C92 7D 3E                           	JGE	L370
  1419 00000C94 8B 45 20                        	MOV	EAX,DWORD [32+EBP]
  1420 00000C97 8D 04 78                        	LEA	EAX,DWORD [EAX+EDI*2]
  1421 00000C9A 89 45 E8                        	MOV	DWORD [-24+EBP],EAX
  1422 00000C9D                                 L365:
  1423 00000C9D 8B 55 1C                        	MOV	EDX,DWORD [28+EBP]
  1424 00000CA0 8B 45 18                        	MOV	EAX,DWORD [24+EBP]
  1425 00000CA3 01 F2                           	ADD	EDX,ESI
  1426 00000CA5 01 D8                           	ADD	EAX,EBX
  1427 00000CA7 0F AF 55 0C                     	IMUL	EDX,DWORD [12+EBP]
  1428 00000CAB 01 C2                           	ADD	EDX,EAX
  1429 00000CAD 43                              	INC	EBX
  1430 00000CAE 89 55 EC                        	MOV	DWORD [-20+EBP],EDX
  1431 00000CB1 8B 55 E8                        	MOV	EDX,DWORD [-24+EBP]
  1432 00000CB4 8B 4D EC                        	MOV	ECX,DWORD [-20+EBP]
  1433 00000CB7 0F BF 02                        	MOVSX	EAX,WORD [EDX]
  1434 00000CBA 8B 55 08                        	MOV	EDX,DWORD [8+EBP]
  1435 00000CBD 66 8B 84 00 [00000890]          	MOV	AX,WORD [_table_16_65536+EAX+EAX*1]
  1436 00000CC5 83 45 E8 02                     	ADD	DWORD [-24+EBP],2
  1437 00000CC9 66 89 04 4A                     	MOV	WORD [EDX+ECX*2],AX
  1438 00000CCD 3B 5D 10                        	CMP	EBX,DWORD [16+EBP]
  1439 00000CD0 7C CB                           	JL	L365
  1440 00000CD2                                 L370:
  1441 00000CD2 46                              	INC	ESI
  1442 00000CD3 03 7D 24                        	ADD	EDI,DWORD [36+EBP]
  1443 00000CD6 3B 75 14                        	CMP	ESI,DWORD [20+EBP]
  1444 00000CD9 7C B2                           	JL	L366
  1445 00000CDB                                 L368:
  1446 00000CDB 83 C4 0C                        	ADD	ESP,12
  1447 00000CDE 5B                              	POP	EBX
  1448 00000CDF 5E                              	POP	ESI
  1449 00000CE0 5F                              	POP	EDI
  1450 00000CE1 5D                              	POP	EBP
  1451 00000CE2 C3                              	RET
  1452                                          [SECTION .data]
  1453 0000086C                                 LC0:
  1454 0000086C 2F 72 61 70 75 77 70 2E 6A 70   	DB	"/rapuwp.jpg",0x00
       00000876 67 00 
  1455                                          [SECTION .text]
  1456 00000CE3                                 	GLOBAL	_read_picture
  1457 00000CE3                                 _read_picture:
  1458 00000CE3 55                              	PUSH	EBP
  1459 00000CE4 89 E5                           	MOV	EBP,ESP
  1460 00000CE6 57                              	PUSH	EDI
  1461 00000CE7 56                              	PUSH	ESI
  1462 00000CE8 53                              	PUSH	EBX
  1463 00000CE9 83 EC 38                        	SUB	ESP,56
  1464 00000CEC 8B 75 08                        	MOV	ESI,DWORD [8+EBP]
  1465 00000CEF 56                              	PUSH	ESI
  1466 00000CF0 68 000000E0                     	PUSH	224
  1467 00000CF5 68 00102600                     	PUSH	1058304
  1468 00000CFA 68 [0000086C]                   	PUSH	LC0
  1469 00000CFF E8 [00000000]                   	CALL	_file_search2
  1470 00000D04 83 C4 10                        	ADD	ESP,16
  1471 00000D07 89 C3                           	MOV	EBX,EAX
  1472 00000D09 85 C0                           	TEST	EAX,EAX
  1473 00000D0B 74 06                           	JE	L373
  1474 00000D0D F6 40 0B 18                     	TEST	BYTE [11+EAX],24
  1475 00000D11 74 0B                           	JE	L372
  1476 00000D13                                 L373:
  1477 00000D13 83 C8 FF                        	OR	EAX,-1
  1478 00000D16                                 L371:
  1479 00000D16 8D 65 F4                        	LEA	ESP,DWORD [-12+EBP]
  1480 00000D19 5B                              	POP	EBX
  1481 00000D1A 5E                              	POP	ESI
  1482 00000D1B 5F                              	POP	EDI
  1483 00000D1C 5D                              	POP	EBP
  1484 00000D1D C3                              	RET
  1485 00000D1E                                 L372:
  1486 00000D1E 8B 40 1C                        	MOV	EAX,DWORD [28+EAX]
  1487 00000D21 31 FF                           	XOR	EDI,EDI
  1488 00000D23 50                              	PUSH	EAX
  1489 00000D24 89 45 E0                        	MOV	DWORD [-32+EBP],EAX
  1490 00000D27 68 003C0000                     	PUSH	3932160
  1491 00000D2C E8 [00000000]                   	CALL	_memman_alloc_4k
  1492 00000D31 8D 45 E0                        	LEA	EAX,DWORD [-32+EBP]
  1493 00000D34 56                              	PUSH	ESI
  1494 00000D35 50                              	PUSH	EAX
  1495 00000D36 0F B7 43 1A                     	MOVZX	EAX,WORD [26+EBX]
  1496 00000D3A 50                              	PUSH	EAX
  1497 00000D3B E8 [00000000]                   	CALL	_file_loadfile2
  1498 00000D40 68 00010000                     	PUSH	65536
  1499 00000D45 68 003C0000                     	PUSH	3932160
  1500 00000D4A 89 45 DC                        	MOV	DWORD [-36+EBP],EAX
  1501 00000D4D E8 [00000000]                   	CALL	_memman_alloc_4k
  1502 00000D52 FF 75 DC                        	PUSH	DWORD [-36+EBP]
  1503 00000D55 FF 75 E0                        	PUSH	DWORD [-32+EBP]
  1504 00000D58 89 45 D4                        	MOV	DWORD [-44+EBP],EAX
  1505 00000D5B 8D 45 E4                        	LEA	EAX,DWORD [-28+EBP]
  1506 00000D5E 50                              	PUSH	EAX
  1507 00000D5F FF 75 D4                        	PUSH	DWORD [-44+EBP]
  1508 00000D62 E8 [00000000]                   	CALL	_info_JPEG
  1509 00000D67 8B 45 F0                        	MOV	EAX,DWORD [-16+EBP]
  1510 00000D6A 0F AF 45 EC                     	IMUL	EAX,DWORD [-20+EBP]
  1511 00000D6E C1 E0 02                        	SAL	EAX,2
  1512 00000D71 83 C4 2C                        	ADD	ESP,44
  1513 00000D74 50                              	PUSH	EAX
  1514 00000D75 68 003C0000                     	PUSH	3932160
  1515 00000D7A E8 [00000000]                   	CALL	_memman_alloc_4k
  1516 00000D7F 6A 00                           	PUSH	0
  1517 00000D81 50                              	PUSH	EAX
  1518 00000D82 89 45 D8                        	MOV	DWORD [-40+EBP],EAX
  1519 00000D85 6A 04                           	PUSH	4
  1520 00000D87 FF 75 DC                        	PUSH	DWORD [-36+EBP]
  1521 00000D8A FF 75 E0                        	PUSH	DWORD [-32+EBP]
  1522 00000D8D FF 75 D4                        	PUSH	DWORD [-44+EBP]
  1523 00000D90 E8 [00000000]                   	CALL	_decode0_JPEG
  1524 00000D95 83 C4 20                        	ADD	ESP,32
  1525 00000D98 8B 45 10                        	MOV	EAX,DWORD [16+EBP]
  1526 00000D9B B9 00000002                     	MOV	ECX,2
  1527 00000DA0 2B 45 EC                        	SUB	EAX,DWORD [-20+EBP]
  1528 00000DA3 99                              	CDQ
  1529 00000DA4 89 45 D0                        	MOV	DWORD [-48+EBP],EAX
  1530 00000DA7 F7 F9                           	IDIV	ECX
  1531 00000DA9 89 45 CC                        	MOV	DWORD [-52+EBP],EAX
  1532 00000DAC 8B 45 F0                        	MOV	EAX,DWORD [-16+EBP]
  1533 00000DAF 29 45 14                        	SUB	DWORD [20+EBP],EAX
  1534 00000DB2 8B 45 14                        	MOV	EAX,DWORD [20+EBP]
  1535 00000DB5 99                              	CDQ
  1536 00000DB6 F7 F9                           	IDIV	ECX
  1537 00000DB8 3B 7D F0                        	CMP	EDI,DWORD [-16+EBP]
  1538 00000DBB 89 45 C4                        	MOV	DWORD [-60+EBP],EAX
  1539 00000DBE 7D 0F                           	JGE	L385
  1540 00000DC0                                 L383:
  1541 00000DC0 31 F6                           	XOR	ESI,ESI
  1542 00000DC2 8B 45 EC                        	MOV	EAX,DWORD [-20+EBP]
  1543 00000DC5 39 C6                           	CMP	ESI,EAX
  1544 00000DC7 7C 47                           	JL	L382
  1545 00000DC9                                 L387:
  1546 00000DC9 47                              	INC	EDI
  1547 00000DCA 3B 7D F0                        	CMP	EDI,DWORD [-16+EBP]
  1548 00000DCD 7C F1                           	JL	L383
  1549 00000DCF                                 L385:
  1550 00000DCF FF 75 E0                        	PUSH	DWORD [-32+EBP]
  1551 00000DD2 FF 75 DC                        	PUSH	DWORD [-36+EBP]
  1552 00000DD5 68 003C0000                     	PUSH	3932160
  1553 00000DDA E8 [00000000]                   	CALL	_memman_free_4k
  1554 00000DDF 8B 45 F0                        	MOV	EAX,DWORD [-16+EBP]
  1555 00000DE2 0F AF 45 EC                     	IMUL	EAX,DWORD [-20+EBP]
  1556 00000DE6 C1 E0 02                        	SAL	EAX,2
  1557 00000DE9 50                              	PUSH	EAX
  1558 00000DEA FF 75 D8                        	PUSH	DWORD [-40+EBP]
  1559 00000DED 68 003C0000                     	PUSH	3932160
  1560 00000DF2 E8 [00000000]                   	CALL	_memman_free_4k
  1561 00000DF7 68 00010000                     	PUSH	65536
  1562 00000DFC FF 75 D4                        	PUSH	DWORD [-44+EBP]
  1563 00000DFF 68 003C0000                     	PUSH	3932160
  1564 00000E04 E8 [00000000]                   	CALL	_memman_free_4k
  1565 00000E09 31 C0                           	XOR	EAX,EAX
  1566 00000E0B E9 FFFFFF06                     	JMP	L371
  1567 00000E10                                 L382:
  1568 00000E10 0F AF C7                        	IMUL	EAX,EDI
  1569 00000E13 8B 5D C4                        	MOV	EBX,DWORD [-60+EBP]
  1570 00000E16 01 F0                           	ADD	EAX,ESI
  1571 00000E18 01 FB                           	ADD	EBX,EDI
  1572 00000E1A 89 45 BC                        	MOV	DWORD [-68+EBP],EAX
  1573 00000E1D 0F AF 5D 10                     	IMUL	EBX,DWORD [16+EBP]
  1574 00000E21 8B 45 CC                        	MOV	EAX,DWORD [-52+EBP]
  1575 00000E24 8B 55 BC                        	MOV	EDX,DWORD [-68+EBP]
  1576 00000E27 01 F0                           	ADD	EAX,ESI
  1577 00000E29 8B 4D D8                        	MOV	ECX,DWORD [-40+EBP]
  1578 00000E2C 01 C3                           	ADD	EBX,EAX
  1579 00000E2E 0F BE 05 000005F2               	MOVSX	EAX,BYTE [1522]
  1580 00000E35 50                              	PUSH	EAX
  1581 00000E36 57                              	PUSH	EDI
  1582 00000E37 56                              	PUSH	ESI
  1583 00000E38 46                              	INC	ESI
  1584 00000E39 0F B6 04 91                     	MOVZX	EAX,BYTE [ECX+EDX*4]
  1585 00000E3D 50                              	PUSH	EAX
  1586 00000E3E 0F B6 44 91 01                  	MOVZX	EAX,BYTE [1+ECX+EDX*4]
  1587 00000E43 50                              	PUSH	EAX
  1588 00000E44 0F B6 44 91 02                  	MOVZX	EAX,BYTE [2+ECX+EDX*4]
  1589 00000E49 50                              	PUSH	EAX
  1590 00000E4A E8 00000016                     	CALL	_rgb2pal
  1591 00000E4F 83 C4 18                        	ADD	ESP,24
  1592 00000E52 8B 55 0C                        	MOV	EDX,DWORD [12+EBP]
  1593 00000E55 66 89 04 5A                     	MOV	WORD [EDX+EBX*2],AX
  1594 00000E59 8B 45 EC                        	MOV	EAX,DWORD [-20+EBP]
  1595 00000E5C 39 C6                           	CMP	ESI,EAX
  1596 00000E5E 7C B0                           	JL	L382
  1597 00000E60 E9 FFFFFF64                     	JMP	L387
  1598                                          [SECTION .data]
  1599 00000878                                 	ALIGNB	4
  1600 00000878                                 _table.8:
  1601 00000878 00000003                        	DD	3
  1602 0000087C 00000001                        	DD	1
  1603 00000880 00000000                        	DD	0
  1604 00000884 00000002                        	DD	2
  1605                                          [SECTION .text]
  1606 00000E65                                 	GLOBAL	_rgb2pal
  1607 00000E65                                 _rgb2pal:
  1608 00000E65 55                              	PUSH	EBP
  1609 00000E66 89 E5                           	MOV	EBP,ESP
  1610 00000E68 57                              	PUSH	EDI
  1611 00000E69 56                              	PUSH	ESI
  1612 00000E6A 53                              	PUSH	EBX
  1613 00000E6B 83 EC 14                        	SUB	ESP,20
  1614 00000E6E 8B 4D 08                        	MOV	ECX,DWORD [8+EBP]
  1615 00000E71 8B 7D 0C                        	MOV	EDI,DWORD [12+EBP]
  1616 00000E74 8B 5D 10                        	MOV	EBX,DWORD [16+EBP]
  1617 00000E77 8B 55 14                        	MOV	EDX,DWORD [20+EBP]
  1618 00000E7A 8B 45 18                        	MOV	EAX,DWORD [24+EBP]
  1619 00000E7D 83 7D 1C 08                     	CMP	DWORD [28+EBP],8
  1620 00000E81 74 27                           	JE	L391
  1621 00000E83 C1 E1 08                        	SAL	ECX,8
  1622 00000E86 8D 04 FD 00000000               	LEA	EAX,DWORD [0+EDI*8]
  1623 00000E8D 66 25 07E0                      	AND	AX,2016
  1624 00000E91 89 CA                           	MOV	EDX,ECX
  1625 00000E93 66 81 E2 F800                   	AND	DX,-2048
  1626 00000E98 C1 FB 03                        	SAR	EBX,3
  1627 00000E9B 09 C2                           	OR	EDX,EAX
  1628 00000E9D 09 DA                           	OR	EDX,EBX
  1629 00000E9F 0F B7 C2                        	MOVZX	EAX,DX
  1630 00000EA2                                 L388:
  1631 00000EA2 83 C4 14                        	ADD	ESP,20
  1632 00000EA5 5B                              	POP	EBX
  1633 00000EA6 5E                              	POP	ESI
  1634 00000EA7 5F                              	POP	EDI
  1635 00000EA8 5D                              	POP	EBP
  1636 00000EA9 C3                              	RET
  1637 00000EAA                                 L391:
  1638 00000EAA 6B C9 15                        	IMUL	ECX,ECX,21
  1639 00000EAD 83 E2 01                        	AND	EDX,1
  1640 00000EB0 83 E0 01                        	AND	EAX,1
  1641 00000EB3 BE 00000100                     	MOV	ESI,256
  1642 00000EB8 8D 04 42                        	LEA	EAX,DWORD [EDX+EAX*2]
  1643 00000EBB 6B FF 15                        	IMUL	EDI,EDI,21
  1644 00000EBE 8B 04 85 [00000878]             	MOV	EAX,DWORD [_table.8+EAX*4]
  1645 00000EC5 89 45 E0                        	MOV	DWORD [-32+EBP],EAX
  1646 00000EC8 89 C8                           	MOV	EAX,ECX
  1647 00000ECA 99                              	CDQ
  1648 00000ECB F7 FE                           	IDIV	ESI
  1649 00000ECD 89 C1                           	MOV	ECX,EAX
  1650 00000ECF 89 F8                           	MOV	EAX,EDI
  1651 00000ED1 99                              	CDQ
  1652 00000ED2 F7 FE                           	IDIV	ESI
  1653 00000ED4 6B DB 15                        	IMUL	EBX,EBX,21
  1654 00000ED7 89 C7                           	MOV	EDI,EAX
  1655 00000ED9 03 4D E0                        	ADD	ECX,DWORD [-32+EBP]
  1656 00000EDC 89 D8                           	MOV	EAX,EBX
  1657 00000EDE 99                              	CDQ
  1658 00000EDF F7 FE                           	IDIV	ESI
  1659 00000EE1 89 C3                           	MOV	EBX,EAX
  1660 00000EE3 BE 00000004                     	MOV	ESI,4
  1661 00000EE8 89 C8                           	MOV	EAX,ECX
  1662 00000EEA 03 7D E0                        	ADD	EDI,DWORD [-32+EBP]
  1663 00000EED 03 5D E0                        	ADD	EBX,DWORD [-32+EBP]
  1664 00000EF0 99                              	CDQ
  1665 00000EF1 F7 FE                           	IDIV	ESI
  1666 00000EF3 89 C1                           	MOV	ECX,EAX
  1667 00000EF5 89 F8                           	MOV	EAX,EDI
  1668 00000EF7 99                              	CDQ
  1669 00000EF8 F7 FE                           	IDIV	ESI
  1670 00000EFA 89 C7                           	MOV	EDI,EAX
  1671 00000EFC 89 D8                           	MOV	EAX,EBX
  1672 00000EFE 99                              	CDQ
  1673 00000EFF F7 FE                           	IDIV	ESI
  1674 00000F01 89 C3                           	MOV	EBX,EAX
  1675 00000F03 6B C7 06                        	IMUL	EAX,EDI,6
  1676 00000F06 6B D3 24                        	IMUL	EDX,EBX,36
  1677 00000F09 8D 04 08                        	LEA	EAX,DWORD [EAX+ECX*1]
  1678 00000F0C 8D 44 02 10                     	LEA	EAX,DWORD [16+EDX+EAX*1]
  1679 00000F10 0F B7 C0                        	MOVZX	EAX,AX
  1680 00000F13 EB 8D                           	JMP	L388
  1681 00000F15                                 	GLOBAL	_table_16_65536
  1682                                          [SECTION .data]
  1683 00000888 00 00 00 00 00 00 00 00         	ALIGNB	16
  1684 00000890                                 _table_16_65536:
  1685 00000890 00 00 00 00 00 00 00 00 00 00   	RESB	131072
       0000089A 00 00 00 00 00 00 00 00 00 00 
       000008A4 00 00 00 00 00 00 00 00 00 00 
       000008AE 00 00 00 00 00 00 00 00 00 00 
       000008B8 00 00 00 00 00 00 00 00 00 00 
       000008C2 00 00 00 00 00 00 00 00 00 00 
       000008CC 00 00 00 00 00 00 00 00 00 00 
       000008D6 00 00 00 00 00 00 00 00 00 00 
       000008E0 00 00 00 00 00 00 00 00 00 00 
       000008EA 00 00 00 00 00 00 00 00 00 00 
       000008F4 00 00 00 00 00 00 00 00 00 00 
       000008FE 00 00 00 00 00 00 00 00 00 00 
       00000908 00 00 00 00 00 00 00 00 00 00 
       00000912 00 00 00 00 00 00 00 00 00 00 
       0000091C 00 00 00 00 00 00 00 00 00 00 
       00000926 00 00 00 00 00 00 00 00 00 00 
       00000930 00 00 00 00 00 00 00 00 00 00 
       0000093A 00 00 00 00 00 00 00 00 00 00 
       00000944 00 00 00 00 00 00 00 00 00 00 
       0000094E 00 00 00 00 00 00 00 00 00 00 
       00000958 00 00 00 00 00 00 00 00 00 00 
       00000962 00 00 00 00 00 00 00 00 00 00 
       0000096C 00 00 00 00 00 00 00 00 00 00 
       00000976 00 00 00 00 00 00 00 00 00 00 
       00000980 00 00 00 00 00 00 00 00 00 00 
       0000098A 00 00 00 00 00 00 00 00 00 00 
       00000994 00 00 00 00 00 00 00 00 00 00 
       0000099E 00 00 00 00 00 00 00 00 00 00 
       000009A8 00 00 00 00 00 00 00 00 00 00 
       000009B2 00 00 00 00 00 00 00 00 00 00 
       000009BC 00 00 00 00 00 00 00 00 00 00 
       000009C6 00 00 00 00 00 00 00 00 00 00 
       000009D0 00 00 00 00 00 00 00 00 00 00 
       000009DA 00 00 00 00 00 00 00 00 00 00 
       000009E4 00 00 00 00 00 00 00 00 00 00 
       000009EE 00 00 00 00 00 00 00 00 00 00 
       000009F8 00 00 00 00 00 00 00 00 00 00 
       00000A02 00 00 00 00 00 00 00 00 00 00 
       00000A0C 00 00 00 00 00 00 00 00 00 00 
       00000A16 00 00 00 00 00 00 00 00 00 00 
       00000A20 00 00 00 00 00 00 00 00 00 00 
       00000A2A 00 00 00 00 00 00 00 00 00 00 
       00000A34 00 00 00 00 00 00 00 00 00 00 
       00000A3E 00 00 00 00 00 00 00 00 00 00 
       00000A48 00 00 00 00 00 00 00 00 00 00 
       00000A52 00 00 00 00 00 00 00 00 00 00 
       00000A5C 00 00 00 00 00 00 00 00 00 00 
       00000A66 00 00 00 00 00 00 00 00 00 00 
       00000A70 00 00 00 00 00 00 00 00 00 00 
       00000A7A 00 00 00 00 00 00 00 00 00 00 
       00000A84 00 00 00 00 00 00 00 00 00 00 
       00000A8E 00 00 00 00 00 00 00 00 00 00 
       00000A98 00 00 00 00 00 00 00 00 00 00 
       00000AA2 00 00 00 00 00 00 00 00 00 00 
       00000AAC 00 00 00 00 00 00 00 00 00 00 
       00000AB6 00 00 00 00 00 00 00 00 00 00 
       00000AC0 00 00 00 00 00 00 00 00 00 00 
       00000ACA 00 00 00 00 00 00 00 00 00 00 
       00000AD4 00 00 00 00 00 00 00 00 00 00 
       00000ADE 00 00 00 00 00 00 00 00 00 00 
       00000AE8 00 00 00 00 00 00 00 00 00 00 
       00000AF2 00 00 00 00 00 00 00 00 00 00 
       00000AFC 00 00 00 00 00 00 00 00 00 00 
       00000B06 00 00 00 00 00 00 00 00 00 00 
       00000B10 00 00 00 00 00 00 00 00 00 00 
       00000B1A 00 00 00 00 00 00 00 00 00 00 
       00000B24 00 00 00 00 00 00 00 00 00 00 
       00000B2E 00 00 00 00 00 00 00 00 00 00 
       00000B38 00 00 00 00 00 00 00 00 00 00 
       00000B42 00 00 00 00 00 00 00 00 00 00 
       00000B4C 00 00 00 00 00 00 00 00 00 00 
       00000B56 00 00 00 00 00 00 00 00 00 00 
       00000B60 00 00 00 00 00 00 00 00 00 00 
       00000B6A 00 00 00 00 00 00 00 00 00 00 
       00000B74 00 00 00 00 00 00 00 00 00 00 
       00000B7E 00 00 00 00 00 00 00 00 00 00 
       00000B88 00 00 00 00 00 00 00 00 00 00 
       00000B92 00 00 00 00 00 00 00 00 00 00 
       00000B9C 00 00 00 00 00 00 00 00 00 00 
       00000BA6 00 00 00 00 00 00 00 00 00 00 
       00000BB0 00 00 00 00 00 00 00 00 00 00 
       00000BBA 00 00 00 00 00 00 00 00 00 00 
       00000BC4 00 00 00 00 00 00 00 00 00 00 
       00000BCE 00 00 00 00 00 00 00 00 00 00 
       00000BD8 00 00 00 00 00 00 00 00 00 00 
       00000BE2 00 00 00 00 00 00 00 00 00 00 
       00000BEC 00 00 00 00 00 00 00 00 00 00 
       00000BF6 00 00 00 00 00 00 00 00 00 00 
       00000C00 00 00 00 00 00 00 00 00 00 00 
       00000C0A 00 00 00 00 00 00 00 00 00 00 
       00000C14 00 00 00 00 00 00 00 00 00 00 
       00000C1E 00 00 00 00 00 00 00 00 00 00 
       00000C28 00 00 00 00 00 00 00 00 00 00 
       00000C32 00 00 00 00 00 00 00 00 00 00 
       00000C3C 00 00 00 00 00 00 00 00 00 00 
       00000C46 00 00 00 00 00 00 00 00 00 00 
       00000C50 00 00 00 00 00 00 00 00 00 00 
       00000C5A 00 00 00 00 00 00 00 00 00 00 
       00000C64 00 00 00 00 00 00 00 00 00 00 
       00000C6E 00 00 00 00 00 00 00 00 00 00 
       00000C78 00 00 00 00 00 00 00 00 00 00 
       00000C82 00 00 00 00 00 00 00 00 00 00 
       00000C8C 00 00 00 00 00 00 00 00 00 00 
       00000C96 00 00 00 00 00 00 00 00 00 00 
       00000CA0 00 00 00 00 00 00 00 00 00 00 
       00000CAA 00 00 00 00 00 00 00 00 00 00 
       00000CB4 00 00 00 00 00 00 00 00 00 00 
       00000CBE 00 00 00 00 00 00 00 00 00 00 
       00000CC8 00 00 00 00 00 00 00 00 00 00 
       00000CD2 00 00 00 00 00 00 00 00 00 00 
       00000CDC 00 00 00 00 00 00 00 00 00 00 
       00000CE6 00 00 00 00 00 00 00 00 00 00 
       00000CF0 00 00 00 00 00 00 00 00 00 00 
       00000CFA 00 00 00 00 00 00 00 00 00 00 
       00000D04 00 00 00 00 00 00 00 00 00 00 
       00000D0E 00 00 00 00 00 00 00 00 00 00 
       00000D18 00 00 00 00 00 00 00 00 00 00 
       00000D22 00 00 00 00 00 00 00 00 00 00 
       00000D2C 00 00 00 00 00 00 00 00 00 00 
       00000D36 00 00 00 00 00 00 00 00 00 00 
       00000D40 00 00 00 00 00 00 00 00 00 00 
       00000D4A 00 00 00 00 00 00 00 00 00 00 
       00000D54 00 00 00 00 00 00 00 00 00 00 
       00000D5E 00 00 00 00 00 00 00 00 00 00 
       00000D68 00 00 00 00 00 00 00 00 00 00 
       00000D72 00 00 00 00 00 00 00 00 00 00 
       00000D7C 00 00 00 00 00 00 00 00 00 00 
       00000D86 00 00 00 00 00 00 00 00 00 00 
       00000D90 00 00 00 00 00 00 00 00 00 00 
       00000D9A 00 00 00 00 00 00 00 00 00 00 
       00000DA4 00 00 00 00 00 00 00 00 00 00 
       00000DAE 00 00 00 00 00 00 00 00 00 00 
       00000DB8 00 00 00 00 00 00 00 00 00 00 
       00000DC2 00 00 00 00 00 00 00 00 00 00 
       00000DCC 00 00 00 00 00 00 00 00 00 00 
       00000DD6 00 00 00 00 00 00 00 00 00 00 
       00000DE0 00 00 00 00 00 00 00 00 00 00 
       00000DEA 00 00 00 00 00 00 00 00 00 00 
       00000DF4 00 00 00 00 00 00 00 00 00 00 
       00000DFE 00 00 00 00 00 00 00 00 00 00 
       00000E08 00 00 00 00 00 00 00 00 00 00 
       00000E12 00 00 00 00 00 00 00 00 00 00 
       00000E1C 00 00 00 00 00 00 00 00 00 00 
       00000E26 00 00 00 00 00 00 00 00 00 00 
       00000E30 00 00 00 00 00 00 00 00 00 00 
       00000E3A 00 00 00 00 00 00 00 00 00 00 
       00000E44 00 00 00 00 00 00 00 00 00 00 
       00000E4E 00 00 00 00 00 00 00 00 00 00 
       00000E58 00 00 00 00 00 00 00 00 00 00 
       00000E62 00 00 00 00 00 00 00 00 00 00 
       00000E6C 00 00 00 00 00 00 00 00 00 00 
       00000E76 00 00 00 00 00 00 00 00 00 00 
       00000E80 00 00 00 00 00 00 00 00 00 00 
       00000E8A 00 00 00 00 00 00 00 00 00 00 
       00000E94 00 00 00 00 00 00 00 00 00 00 
       00000E9E 00 00 00 00 00 00 00 00 00 00 
       00000EA8 00 00 00 00 00 00 00 00 00 00 
       00000EB2 00 00 00 00 00 00 00 00 00 00 
       00000EBC 00 00 00 00 00 00 00 00 00 00 
       00000EC6 00 00 00 00 00 00 00 00 00 00 
       00000ED0 00 00 00 00 00 00 00 00 00 00 
       00000EDA 00 00 00 00 00 00 00 00 00 00 
       00000EE4 00 00 00 00 00 00 00 00 00 00 
       00000EEE 00 00 00 00 00 00 00 00 00 00 
       00000EF8 00 00 00 00 00 00 00 00 00 00 
       00000F02 00 00 00 00 00 00 00 00 00 00 
       00000F0C 00 00 00 00 00 00 00 00 00 00 
       00000F16 00 00 00 00 00 00 00 00 00 00 
       00000F20 00 00 00 00 00 00 00 00 00 00 
       00000F2A 00 00 00 00 00 00 00 00 00 00 
       00000F34 00 00 00 00 00 00 00 00 00 00 
       00000F3E 00 00 00 00 00 00 00 00 00 00 
       00000F48 00 00 00 00 00 00 00 00 00 00 
       00000F52 00 00 00 00 00 00 00 00 00 00 
       00000F5C 00 00 00 00 00 00 00 00 00 00 
       00000F66 00 00 00 00 00 00 00 00 00 00 
       00000F70 00 00 00 00 00 00 00 00 00 00 
       00000F7A 00 00 00 00 00 00 00 00 00 00 
       00000F84 00 00 00 00 00 00 00 00 00 00 
       00000F8E 00 00 00 00 00 00 00 00 00 00 
       00000F98 00 00 00 00 00 00 00 00 00 00 
       00000FA2 00 00 00 00 00 00 00 00 00 00 
       00000FAC 00 00 00 00 00 00 00 00 00 00 
       00000FB6 00 00 00 00 00 00 00 00 00 00 
       00000FC0 00 00 00 00 00 00 00 00 00 00 
       00000FCA 00 00 00 00 00 00 00 00 00 00 
       00000FD4 00 00 00 00 00 00 00 00 00 00 
       00000FDE 00 00 00 00 00 00 00 00 00 00 
       00000FE8 00 00 00 00 00 00 00 00 00 00 
       00000FF2 00 00 00 00 00 00 00 00 00 00 
       00000FFC 00 00 00 00 00 00 00 00 00 00 
       00001006 00 00 00 00 00 00 00 00 00 00 
       00001010 00 00 00 00 00 00 00 00 00 00 
       0000101A 00 00 00 00 00 00 00 00 00 00 
       00001024 00 00 00 00 00 00 00 00 00 00 
       0000102E 00 00 00 00 00 00 00 00 00 00 
       00001038 00 00 00 00 00 00 00 00 00 00 
       00001042 00 00 00 00 00 00 00 00 00 00 
       0000104C 00 00 00 00 00 00 00 00 00 00 
       00001056 00 00 00 00 00 00 00 00 00 00 
       00001060 00 00 00 00 00 00 00 00 00 00 
       0000106A 00 00 00 00 00 00 00 00 00 00 
       00001074 00 00 00 00 00 00 00 00 00 00 
       0000107E 00 00 00 00 00 00 00 00 00 00 
       00001088 00 00 00 00 00 00 00 00 00 00 
       00001092 00 00 00 00 00 00 00 00 00 00 
       0000109C 00 00 00 00 00 00 00 00 00 00 
       000010A6 00 00 00 00 00 00 00 00 00 00 
       000010B0 00 00 00 00 00 00 00 00 00 00 
       000010BA 00 00 00 00 00 00 00 00 00 00 
       000010C4 00 00 00 00 00 00 00 00 00 00 
       000010CE 00 00 00 00 00 00 00 00 00 00 
       000010D8 00 00 00 00 00 00 00 00 00 00 
       000010E2 00 00 00 00 00 00 00 00 00 00 
       000010EC 00 00 00 00 00 00 00 00 00 00 
       000010F6 00 00 00 00 00 00 00 00 00 00 
       00001100 00 00 00 00 00 00 00 00 00 00 
       0000110A 00 00 00 00 00 00 00 00 00 00 
       00001114 00 00 00 00 00 00 00 00 00 00 
       0000111E 00 00 00 00 00 00 00 00 00 00 
       00001128 00 00 00 00 00 00 00 00 00 00 
       00001132 00 00 00 00 00 00 00 00 00 00 
       0000113C 00 00 00 00 00 00 00 00 00 00 
       00001146 00 00 00 00 00 00 00 00 00 00 
       00001150 00 00 00 00 00 00 00 00 00 00 
       0000115A 00 00 00 00 00 00 00 00 00 00 
       00001164 00 00 00 00 00 00 00 00 00 00 
       0000116E 00 00 00 00 00 00 00 00 00 00 
       00001178 00 00 00 00 00 00 00 00 00 00 
       00001182 00 00 00 00 00 00 00 00 00 00 
       0000118C 00 00 00 00 00 00 00 00 00 00 
       00001196 00 00 00 00 00 00 00 00 00 00 
       000011A0 00 00 00 00 00 00 00 00 00 00 
       000011AA 00 00 00 00 00 00 00 00 00 00 
       000011B4 00 00 00 00 00 00 00 00 00 00 
       000011BE 00 00 00 00 00 00 00 00 00 00 
       000011C8 00 00 00 00 00 00 00 00 00 00 
       000011D2 00 00 00 00 00 00 00 00 00 00 
       000011DC 00 00 00 00 00 00 00 00 00 00 
       000011E6 00 00 00 00 00 00 00 00 00 00 
       000011F0 00 00 00 00 00 00 00 00 00 00 
       000011FA 00 00 00 00 00 00 00 00 00 00 
       00001204 00 00 00 00 00 00 00 00 00 00 
       0000120E 00 00 00 00 00 00 00 00 00 00 
       00001218 00 00 00 00 00 00 00 00 00 00 
       00001222 00 00 00 00 00 00 00 00 00 00 
       0000122C 00 00 00 00 00 00 00 00 00 00 
       00001236 00 00 00 00 00 00 00 00 00 00 
       00001240 00 00 00 00 00 00 00 00 00 00 
       0000124A 00 00 00 00 00 00 00 00 00 00 
       00001254 00 00 00 00 00 00 00 00 00 00 
       0000125E 00 00 00 00 00 00 00 00 00 00 
       00001268 00 00 00 00 00 00 00 00 00 00 
       00001272 00 00 00 00 00 00 00 00 00 00 
       0000127C 00 00 00 00 00 00 00 00 00 00 
       00001286 00 00 00 00 00 00 00 00 00 00 
       00001290 00 00 00 00 00 00 00 00 00 00 
       0000129A 00 00 00 00 00 00 00 00 00 00 
       000012A4 00 00 00 00 00 00 00 00 00 00 
       000012AE 00 00 00 00 00 00 00 00 00 00 
       000012B8 00 00 00 00 00 00 00 00 00 00 
       000012C2 00 00 00 00 00 00 00 00 00 00 
       000012CC 00 00 00 00 00 00 00 00 00 00 
       000012D6 00 00 00 00 00 00 00 00 00 00 
       000012E0 00 00 00 00 00 00 00 00 00 00 
       000012EA 00 00 00 00 00 00 00 00 00 00 
       000012F4 00 00 00 00 00 00 00 00 00 00 
       000012FE 00 00 00 00 00 00 00 00 00 00 
       00001308 00 00 00 00 00 00 00 00 00 00 
       00001312 00 00 00 00 00 00 00 00 00 00 
       0000131C 00 00 00 00 00 00 00 00 00 00 
       00001326 00 00 00 00 00 00 00 00 00 00 
       00001330 00 00 00 00 00 00 00 00 00 00 
       0000133A 00 00 00 00 00 00 00 00 00 00 
       00001344 00 00 00 00 00 00 00 00 00 00 
       0000134E 00 00 00 00 00 00 00 00 00 00 
       00001358 00 00 00 00 00 00 00 00 00 00 
       00001362 00 00 00 00 00 00 00 00 00 00 
       0000136C 00 00 00 00 00 00 00 00 00 00 
       00001376 00 00 00 00 00 00 00 00 00 00 
       00001380 00 00 00 00 00 00 00 00 00 00 
       0000138A 00 00 00 00 00 00 00 00 00 00 
       00001394 00 00 00 00 00 00 00 00 00 00 
       0000139E 00 00 00 00 00 00 00 00 00 00 
       000013A8 00 00 00 00 00 00 00 00 00 00 
       000013B2 00 00 00 00 00 00 00 00 00 00 
       000013BC 00 00 00 00 00 00 00 00 00 00 
       000013C6 00 00 00 00 00 00 00 00 00 00 
       000013D0 00 00 00 00 00 00 00 00 00 00 
       000013DA 00 00 00 00 00 00 00 00 00 00 
       000013E4 00 00 00 00 00 00 00 00 00 00 
       000013EE 00 00 00 00 00 00 00 00 00 00 
       000013F8 00 00 00 00 00 00 00 00 00 00 
       00001402 00 00 00 00 00 00 00 00 00 00 
       0000140C 00 00 00 00 00 00 00 00 00 00 
       00001416 00 00 00 00 00 00 00 00 00 00 
       00001420 00 00 00 00 00 00 00 00 00 00 
       0000142A 00 00 00 00 00 00 00 00 00 00 
       00001434 00 00 00 00 00 00 00 00 00 00 
       0000143E 00 00 00 00 00 00 00 00 00 00 
       00001448 00 00 00 00 00 00 00 00 00 00 
       00001452 00 00 00 00 00 00 00 00 00 00 
       0000145C 00 00 00 00 00 00 00 00 00 00 
       00001466 00 00 00 00 00 00 00 00 00 00 
       00001470 00 00 00 00 00 00 00 00 00 00 
       0000147A 00 00 00 00 00 00 00 00 00 00 
       00001484 00 00 00 00 00 00 00 00 00 00 
       0000148E 00 00 00 00 00 00 00 00 00 00 
       00001498 00 00 00 00 00 00 00 00 00 00 
       000014A2 00 00 00 00 00 00 00 00 00 00 
       000014AC 00 00 00 00 00 00 00 00 00 00 
       000014B6 00 00 00 00 00 00 00 00 00 00 
       000014C0 00 00 00 00 00 00 00 00 00 00 
       000014CA 00 00 00 00 00 00 00 00 00 00 
       000014D4 00 00 00 00 00 00 00 00 00 00 
       000014DE 00 00 00 00 00 00 00 00 00 00 
       000014E8 00 00 00 00 00 00 00 00 00 00 
       000014F2 00 00 00 00 00 00 00 00 00 00 
       000014FC 00 00 00 00 00 00 00 00 00 00 
       00001506 00 00 00 00 00 00 00 00 00 00 
       00001510 00 00 00 00 00 00 00 00 00 00 
       0000151A 00 00 00 00 00 00 00 00 00 00 
       00001524 00 00 00 00 00 00 00 00 00 00 
       0000152E 00 00 00 00 00 00 00 00 00 00 
       00001538 00 00 00 00 00 00 00 00 00 00 
       00001542 00 00 00 00 00 00 00 00 00 00 
       0000154C 00 00 00 00 00 00 00 00 00 00 
       00001556 00 00 00 00 00 00 00 00 00 00 
       00001560 00 00 00 00 00 00 00 00 00 00 
       0000156A 00 00 00 00 00 00 00 00 00 00 
       00001574 00 00 00 00 00 00 00 00 00 00 
       0000157E 00 00 00 00 00 00 00 00 00 00 
       00001588 00 00 00 00 00 00 00 00 00 00 
       00001592 00 00 00 00 00 00 00 00 00 00 
       0000159C 00 00 00 00 00 00 00 00 00 00 
       000015A6 00 00 00 00 00 00 00 00 00 00 
       000015B0 00 00 00 00 00 00 00 00 00 00 
       000015BA 00 00 00 00 00 00 00 00 00 00 
       000015C4 00 00 00 00 00 00 00 00 00 00 
       000015CE 00 00 00 00 00 00 00 00 00 00 
       000015D8 00 00 00 00 00 00 00 00 00 00 
       000015E2 00 00 00 00 00 00 00 00 00 00 
       000015EC 00 00 00 00 00 00 00 00 00 00 
       000015F6 00 00 00 00 00 00 00 00 00 00 
       00001600 00 00 00 00 00 00 00 00 00 00 
       0000160A 00 00 00 00 00 00 00 00 00 00 
       00001614 00 00 00 00 00 00 00 00 00 00 
       0000161E 00 00 00 00 00 00 00 00 00 00 
       00001628 00 00 00 00 00 00 00 00 00 00 
       00001632 00 00 00 00 00 00 00 00 00 00 
       0000163C 00 00 00 00 00 00 00 00 00 00 
       00001646 00 00 00 00 00 00 00 00 00 00 
       00001650 00 00 00 00 00 00 00 00 00 00 
       0000165A 00 00 00 00 00 00 00 00 00 00 
       00001664 00 00 00 00 00 00 00 00 00 00 
       0000166E 00 00 00 00 00 00 00 00 00 00 
       00001678 00 00 00 00 00 00 00 00 00 00 
       00001682 00 00 00 00 00 00 00 00 00 00 
       0000168C 00 00 00 00 00 00 00 00 00 00 
       00001696 00 00 00 00 00 00 00 00 00 00 
       000016A0 00 00 00 00 00 00 00 00 00 00 
       000016AA 00 00 00 00 00 00 00 00 00 00 
       000016B4 00 00 00 00 00 00 00 00 00 00 
       000016BE 00 00 00 00 00 00 00 00 00 00 
       000016C8 00 00 00 00 00 00 00 00 00 00 
       000016D2 00 00 00 00 00 00 00 00 00 00 
       000016DC 00 00 00 00 00 00 00 00 00 00 
       000016E6 00 00 00 00 00 00 00 00 00 00 
       000016F0 00 00 00 00 00 00 00 00 00 00 
       000016FA 00 00 00 00 00 00 00 00 00 00 
       00001704 00 00 00 00 00 00 00 00 00 00 
       0000170E 00 00 00 00 00 00 00 00 00 00 
       00001718 00 00 00 00 00 00 00 00 00 00 
       00001722 00 00 00 00 00 00 00 00 00 00 
       0000172C 00 00 00 00 00 00 00 00 00 00 
       00001736 00 00 00 00 00 00 00 00 00 00 
       00001740 00 00 00 00 00 00 00 00 00 00 
       0000174A 00 00 00 00 00 00 00 00 00 00 
       00001754 00 00 00 00 00 00 00 00 00 00 
       0000175E 00 00 00 00 00 00 00 00 00 00 
       00001768 00 00 00 00 00 00 00 00 00 00 
       00001772 00 00 00 00 00 00 00 00 00 00 
       0000177C 00 00 00 00 00 00 00 00 00 00 
       00001786 00 00 00 00 00 00 00 00 00 00 
       00001790 00 00 00 00 00 00 00 00 00 00 
       0000179A 00 00 00 00 00 00 00 00 00 00 
       000017A4 00 00 00 00 00 00 00 00 00 00 
       000017AE 00 00 00 00 00 00 00 00 00 00 
       000017B8 00 00 00 00 00 00 00 00 00 00 
       000017C2 00 00 00 00 00 00 00 00 00 00 
       000017CC 00 00 00 00 00 00 00 00 00 00 
       000017D6 00 00 00 00 00 00 00 00 00 00 
       000017E0 00 00 00 00 00 00 00 00 00 00 
       000017EA 00 00 00 00 00 00 00 00 00 00 
       000017F4 00 00 00 00 00 00 00 00 00 00 
       000017FE 00 00 00 00 00 00 00 00 00 00 
       00001808 00 00 00 00 00 00 00 00 00 00 
       00001812 00 00 00 00 00 00 00 00 00 00 
       0000181C 00 00 00 00 00 00 00 00 00 00 
       00001826 00 00 00 00 00 00 00 00 00 00 
       00001830 00 00 00 00 00 00 00 00 00 00 
       0000183A 00 00 00 00 00 00 00 00 00 00 
       00001844 00 00 00 00 00 00 00 00 00 00 
       0000184E 00 00 00 00 00 00 00 00 00 00 
       00001858 00 00 00 00 00 00 00 00 00 00 
       00001862 00 00 00 00 00 00 00 00 00 00 
       0000186C 00 00 00 00 00 00 00 00 00 00 
       00001876 00 00 00 00 00 00 00 00 00 00 
       00001880 00 00 00 00 00 00 00 00 00 00 
       0000188A 00 00 00 00 00 00 00 00 00 00 
       00001894 00 00 00 00 00 00 00 00 00 00 
       0000189E 00 00 00 00 00 00 00 00 00 00 
       000018A8 00 00 00 00 00 00 00 00 00 00 
       000018B2 00 00 00 00 00 00 00 00 00 00 
       000018BC 00 00 00 00 00 00 00 00 00 00 
       000018C6 00 00 00 00 00 00 00 00 00 00 
       000018D0 00 00 00 00 00 00 00 00 00 00 
       000018DA 00 00 00 00 00 00 00 00 00 00 
       000018E4 00 00 00 00 00 00 00 00 00 00 
       000018EE 00 00 00 00 00 00 00 00 00 00 
       000018F8 00 00 00 00 00 00 00 00 00 00 
       00001902 00 00 00 00 00 00 00 00 00 00 
       0000190C 00 00 00 00 00 00 00 00 00 00 
       00001916 00 00 00 00 00 00 00 00 00 00 
       00001920 00 00 00 00 00 00 00 00 00 00 
       0000192A 00 00 00 00 00 00 00 00 00 00 
       00001934 00 00 00 00 00 00 00 00 00 00 
       0000193E 00 00 00 00 00 00 00 00 00 00 
       00001948 00 00 00 00 00 00 00 00 00 00 
       00001952 00 00 00 00 00 00 00 00 00 00 
       0000195C 00 00 00 00 00 00 00 00 00 00 
       00001966 00 00 00 00 00 00 00 00 00 00 
       00001970 00 00 00 00 00 00 00 00 00 00 
       0000197A 00 00 00 00 00 00 00 00 00 00 
       00001984 00 00 00 00 00 00 00 00 00 00 
       0000198E 00 00 00 00 00 00 00 00 00 00 
       00001998 00 00 00 00 00 00 00 00 00 00 
       000019A2 00 00 00 00 00 00 00 00 00 00 
       000019AC 00 00 00 00 00 00 00 00 00 00 
       000019B6 00 00 00 00 00 00 00 00 00 00 
       000019C0 00 00 00 00 00 00 00 00 00 00 
       000019CA 00 00 00 00 00 00 00 00 00 00 
       000019D4 00 00 00 00 00 00 00 00 00 00 
       000019DE 00 00 00 00 00 00 00 00 00 00 
       000019E8 00 00 00 00 00 00 00 00 00 00 
       000019F2 00 00 00 00 00 00 00 00 00 00 
       000019FC 00 00 00 00 00 00 00 00 00 00 
       00001A06 00 00 00 00 00 00 00 00 00 00 
       00001A10 00 00 00 00 00 00 00 00 00 00 
       00001A1A 00 00 00 00 00 00 00 00 00 00 
       00001A24 00 00 00 00 00 00 00 00 00 00 
       00001A2E 00 00 00 00 00 00 00 00 00 00 
       00001A38 00 00 00 00 00 00 00 00 00 00 
       00001A42 00 00 00 00 00 00 00 00 00 00 
       00001A4C 00 00 00 00 00 00 00 00 00 00 
       00001A56 00 00 00 00 00 00 00 00 00 00 
       00001A60 00 00 00 00 00 00 00 00 00 00 
       00001A6A 00 00 00 00 00 00 00 00 00 00 
       00001A74 00 00 00 00 00 00 00 00 00 00 
       00001A7E 00 00 00 00 00 00 00 00 00 00 
       00001A88 00 00 00 00 00 00 00 00 00 00 
       00001A92 00 00 00 00 00 00 00 00 00 00 
       00001A9C 00 00 00 00 00 00 00 00 00 00 
       00001AA6 00 00 00 00 00 00 00 00 00 00 
       00001AB0 00 00 00 00 00 00 00 00 00 00 
       00001ABA 00 00 00 00 00 00 00 00 00 00 
       00001AC4 00 00 00 00 00 00 00 00 00 00 
       00001ACE 00 00 00 00 00 00 00 00 00 00 
       00001AD8 00 00 00 00 00 00 00 00 00 00 
       00001AE2 00 00 00 00 00 00 00 00 00 00 
       00001AEC 00 00 00 00 00 00 00 00 00 00 
       00001AF6 00 00 00 00 00 00 00 00 00 00 
       00001B00 00 00 00 00 00 00 00 00 00 00 
       00001B0A 00 00 00 00 00 00 00 00 00 00 
       00001B14 00 00 00 00 00 00 00 00 00 00 
       00001B1E 00 00 00 00 00 00 00 00 00 00 
       00001B28 00 00 00 00 00 00 00 00 00 00 
       00001B32 00 00 00 00 00 00 00 00 00 00 
       00001B3C 00 00 00 00 00 00 00 00 00 00 
       00001B46 00 00 00 00 00 00 00 00 00 00 
       00001B50 00 00 00 00 00 00 00 00 00 00 
       00001B5A 00 00 00 00 00 00 00 00 00 00 
       00001B64 00 00 00 00 00 00 00 00 00 00 
       00001B6E 00 00 00 00 00 00 00 00 00 00 
       00001B78 00 00 00 00 00 00 00 00 00 00 
       00001B82 00 00 00 00 00 00 00 00 00 00 
       00001B8C 00 00 00 00 00 00 00 00 00 00 
       00001B96 00 00 00 00 00 00 00 00 00 00 
       00001BA0 00 00 00 00 00 00 00 00 00 00 
       00001BAA 00 00 00 00 00 00 00 00 00 00 
       00001BB4 00 00 00 00 00 00 00 00 00 00 
       00001BBE 00 00 00 00 00 00 00 00 00 00 
       00001BC8 00 00 00 00 00 00 00 00 00 00 
       00001BD2 00 00 00 00 00 00 00 00 00 00 
       00001BDC 00 00 00 00 00 00 00 00 00 00 
       00001BE6 00 00 00 00 00 00 00 00 00 00 
       00001BF0 00 00 00 00 00 00 00 00 00 00 
       00001BFA 00 00 00 00 00 00 00 00 00 00 
       00001C04 00 00 00 00 00 00 00 00 00 00 
       00001C0E 00 00 00 00 00 00 00 00 00 00 
       00001C18 00 00 00 00 00 00 00 00 00 00 
       00001C22 00 00 00 00 00 00 00 00 00 00 
       00001C2C 00 00 00 00 00 00 00 00 00 00 
       00001C36 00 00 00 00 00 00 00 00 00 00 
       00001C40 00 00 00 00 00 00 00 00 00 00 
       00001C4A 00 00 00 00 00 00 00 00 00 00 
       00001C54 00 00 00 00 00 00 00 00 00 00 
       00001C5E 00 00 00 00 00 00 00 00 00 00 
       00001C68 00 00 00 00 00 00 00 00 00 00 
       00001C72 00 00 00 00 00 00 00 00 00 00 
       00001C7C 00 00 00 00 00 00 00 00 00 00 
       00001C86 00 00 00 00 00 00 00 00 00 00 
       00001C90 00 00 00 00 00 00 00 00 00 00 
       00001C9A 00 00 00 00 00 00 00 00 00 00 
       00001CA4 00 00 00 00 00 00 00 00 00 00 
       00001CAE 00 00 00 00 00 00 00 00 00 00 
       00001CB8 00 00 00 00 00 00 00 00 00 00 
       00001CC2 00 00 00 00 00 00 00 00 00 00 
       00001CCC 00 00 00 00 00 00 00 00 00 00 
       00001CD6 00 00 00 00 00 00 00 00 00 00 
       00001CE0 00 00 00 00 00 00 00 00 00 00 
       00001CEA 00 00 00 00 00 00 00 00 00 00 
       00001CF4 00 00 00 00 00 00 00 00 00 00 
       00001CFE 00 00 00 00 00 00 00 00 00 00 
       00001D08 00 00 00 00 00 00 00 00 00 00 
       00001D12 00 00 00 00 00 00 00 00 00 00 
       00001D1C 00 00 00 00 00 00 00 00 00 00 
       00001D26 00 00 00 00 00 00 00 00 00 00 
       00001D30 00 00 00 00 00 00 00 00 00 00 
       00001D3A 00 00 00 00 00 00 00 00 00 00 
       00001D44 00 00 00 00 00 00 00 00 00 00 
       00001D4E 00 00 00 00 00 00 00 00 00 00 
       00001D58 00 00 00 00 00 00 00 00 00 00 
       00001D62 00 00 00 00 00 00 00 00 00 00 
       00001D6C 00 00 00 00 00 00 00 00 00 00 
       00001D76 00 00 00 00 00 00 00 00 00 00 
       00001D80 00 00 00 00 00 00 00 00 00 00 
       00001D8A 00 00 00 00 00 00 00 00 00 00 
       00001D94 00 00 00 00 00 00 00 00 00 00 
       00001D9E 00 00 00 00 00 00 00 00 00 00 
       00001DA8 00 00 00 00 00 00 00 00 00 00 
       00001DB2 00 00 00 00 00 00 00 00 00 00 
       00001DBC 00 00 00 00 00 00 00 00 00 00 
       00001DC6 00 00 00 00 00 00 00 00 00 00 
       00001DD0 00 00 00 00 00 00 00 00 00 00 
       00001DDA 00 00 00 00 00 00 00 00 00 00 
       00001DE4 00 00 00 00 00 00 00 00 00 00 
       00001DEE 00 00 00 00 00 00 00 00 00 00 
       00001DF8 00 00 00 00 00 00 00 00 00 00 
       00001E02 00 00 00 00 00 00 00 00 00 00 
       00001E0C 00 00 00 00 00 00 00 00 00 00 
       00001E16 00 00 00 00 00 00 00 00 00 00 
       00001E20 00 00 00 00 00 00 00 00 00 00 
       00001E2A 00 00 00 00 00 00 00 00 00 00 
       00001E34 00 00 00 00 00 00 00 00 00 00 
       00001E3E 00 00 00 00 00 00 00 00 00 00 
       00001E48 00 00 00 00 00 00 00 00 00 00 
       00001E52 00 00 00 00 00 00 00 00 00 00 
       00001E5C 00 00 00 00 00 00 00 00 00 00 
       00001E66 00 00 00 00 00 00 00 00 00 00 
       00001E70 00 00 00 00 00 00 00 00 00 00 
       00001E7A 00 00 00 00 00 00 00 00 00 00 
       00001E84 00 00 00 00 00 00 00 00 00 00 
       00001E8E 00 00 00 00 00 00 00 00 00 00 
       00001E98 00 00 00 00 00 00 00 00 00 00 
       00001EA2 00 00 00 00 00 00 00 00 00 00 
       00001EAC 00 00 00 00 00 00 00 00 00 00 
       00001EB6 00 00 00 00 00 00 00 00 00 00 
       00001EC0 00 00 00 00 00 00 00 00 00 00 
       00001ECA 00 00 00 00 00 00 00 00 00 00 
       00001ED4 00 00 00 00 00 00 00 00 00 00 
       00001EDE 00 00 00 00 00 00 00 00 00 00 
       00001EE8 00 00 00 00 00 00 00 00 00 00 
       00001EF2 00 00 00 00 00 00 00 00 00 00 
       00001EFC 00 00 00 00 00 00 00 00 00 00 
       00001F06 00 00 00 00 00 00 00 00 00 00 
       00001F10 00 00 00 00 00 00 00 00 00 00 
       00001F1A 00 00 00 00 00 00 00 00 00 00 
       00001F24 00 00 00 00 00 00 00 00 00 00 
       00001F2E 00 00 00 00 00 00 00 00 00 00 
       00001F38 00 00 00 00 00 00 00 00 00 00 
       00001F42 00 00 00 00 00 00 00 00 00 00 
       00001F4C 00 00 00 00 00 00 00 00 00 00 
       00001F56 00 00 00 00 00 00 00 00 00 00 
       00001F60 00 00 00 00 00 00 00 00 00 00 
       00001F6A 00 00 00 00 00 00 00 00 00 00 
       00001F74 00 00 00 00 00 00 00 00 00 00 
       00001F7E 00 00 00 00 00 00 00 00 00 00 
       00001F88 00 00 00 00 00 00 00 00 00 00 
       00001F92 00 00 00 00 00 00 00 00 00 00 
       00001F9C 00 00 00 00 00 00 00 00 00 00 
       00001FA6 00 00 00 00 00 00 00 00 00 00 
       00001FB0 00 00 00 00 00 00 00 00 00 00 
       00001FBA 00 00 00 00 00 00 00 00 00 00 
       00001FC4 00 00 00 00 00 00 00 00 00 00 
       00001FCE 00 00 00 00 00 00 00 00 00 00 
       00001FD8 00 00 00 00 00 00 00 00 00 00 
       00001FE2 00 00 00 00 00 00 00 00 00 00 
       00001FEC 00 00 00 00 00 00 00 00 00 00 
       00001FF6 00 00 00 00 00 00 00 00 00 00 
       00002000 00 00 00 00 00 00 00 00 00 00 
       0000200A 00 00 00 00 00 00 00 00 00 00 
       00002014 00 00 00 00 00 00 00 00 00 00 
       0000201E 00 00 00 00 00 00 00 00 00 00 
       00002028 00 00 00 00 00 00 00 00 00 00 
       00002032 00 00 00 00 00 00 00 00 00 00 
       0000203C 00 00 00 00 00 00 00 00 00 00 
       00002046 00 00 00 00 00 00 00 00 00 00 
       00002050 00 00 00 00 00 00 00 00 00 00 
       0000205A 00 00 00 00 00 00 00 00 00 00 
       00002064 00 00 00 00 00 00 00 00 00 00 
       0000206E 00 00 00 00 00 00 00 00 00 00 
       00002078 00 00 00 00 00 00 00 00 00 00 
       00002082 00 00 00 00 00 00 00 00 00 00 
       0000208C 00 00 00 00 00 00 00 00 00 00 
       00002096 00 00 00 00 00 00 00 00 00 00 
       000020A0 00 00 00 00 00 00 00 00 00 00 
       000020AA 00 00 00 00 00 00 00 00 00 00 
       000020B4 00 00 00 00 00 00 00 00 00 00 
       000020BE 00 00 00 00 00 00 00 00 00 00 
       000020C8 00 00 00 00 00 00 00 00 00 00 
       000020D2 00 00 00 00 00 00 00 00 00 00 
       000020DC 00 00 00 00 00 00 00 00 00 00 
       000020E6 00 00 00 00 00 00 00 00 00 00 
       000020F0 00 00 00 00 00 00 00 00 00 00 
       000020FA 00 00 00 00 00 00 00 00 00 00 
       00002104 00 00 00 00 00 00 00 00 00 00 
       0000210E 00 00 00 00 00 00 00 00 00 00 
       00002118 00 00 00 00 00 00 00 00 00 00 
       00002122 00 00 00 00 00 00 00 00 00 00 
       0000212C 00 00 00 00 00 00 00 00 00 00 
       00002136 00 00 00 00 00 00 00 00 00 00 
       00002140 00 00 00 00 00 00 00 00 00 00 
       0000214A 00 00 00 00 00 00 00 00 00 00 
       00002154 00 00 00 00 00 00 00 00 00 00 
       0000215E 00 00 00 00 00 00 00 00 00 00 
       00002168 00 00 00 00 00 00 00 00 00 00 
       00002172 00 00 00 00 00 00 00 00 00 00 
       0000217C 00 00 00 00 00 00 00 00 00 00 
       00002186 00 00 00 00 00 00 00 00 00 00 
       00002190 00 00 00 00 00 00 00 00 00 00 
       0000219A 00 00 00 00 00 00 00 00 00 00 
       000021A4 00 00 00 00 00 00 00 00 00 00 
       000021AE 00 00 00 00 00 00 00 00 00 00 
       000021B8 00 00 00 00 00 00 00 00 00 00 
       000021C2 00 00 00 00 00 00 00 00 00 00 
       000021CC 00 00 00 00 00 00 00 00 00 00 
       000021D6 00 00 00 00 00 00 00 00 00 00 
       000021E0 00 00 00 00 00 00 00 00 00 00 
       000021EA 00 00 00 00 00 00 00 00 00 00 
       000021F4 00 00 00 00 00 00 00 00 00 00 
       000021FE 00 00 00 00 00 00 00 00 00 00 
       00002208 00 00 00 00 00 00 00 00 00 00 
       00002212 00 00 00 00 00 00 00 00 00 00 
       0000221C 00 00 00 00 00 00 00 00 00 00 
       00002226 00 00 00 00 00 00 00 00 00 00 
       00002230 00 00 00 00 00 00 00 00 00 00 
       0000223A 00 00 00 00 00 00 00 00 00 00 
       00002244 00 00 00 00 00 00 00 00 00 00 
       0000224E 00 00 00 00 00 00 00 00 00 00 
       00002258 00 00 00 00 00 00 00 00 00 00 
       00002262 00 00 00 00 00 00 00 00 00 00 
       0000226C 00 00 00 00 00 00 00 00 00 00 
       00002276 00 00 00 00 00 00 00 00 00 00 
       00002280 00 00 00 00 00 00 00 00 00 00 
       0000228A 00 00 00 00 00 00 00 00 00 00 
       00002294 00 00 00 00 00 00 00 00 00 00 
       0000229E 00 00 00 00 00 00 00 00 00 00 
       000022A8 00 00 00 00 00 00 00 00 00 00 
       000022B2 00 00 00 00 00 00 00 00 00 00 
       000022BC 00 00 00 00 00 00 00 00 00 00 
       000022C6 00 00 00 00 00 00 00 00 00 00 
       000022D0 00 00 00 00 00 00 00 00 00 00 
       000022DA 00 00 00 00 00 00 00 00 00 00 
       000022E4 00 00 00 00 00 00 00 00 00 00 
       000022EE 00 00 00 00 00 00 00 00 00 00 
       000022F8 00 00 00 00 00 00 00 00 00 00 
       00002302 00 00 00 00 00 00 00 00 00 00 
       0000230C 00 00 00 00 00 00 00 00 00 00 
       00002316 00 00 00 00 00 00 00 00 00 00 
       00002320 00 00 00 00 00 00 00 00 00 00 
       0000232A 00 00 00 00 00 00 00 00 00 00 
       00002334 00 00 00 00 00 00 00 00 00 00 
       0000233E 00 00 00 00 00 00 00 00 00 00 
       00002348 00 00 00 00 00 00 00 00 00 00 
       00002352 00 00 00 00 00 00 00 00 00 00 
       0000235C 00 00 00 00 00 00 00 00 00 00 
       00002366 00 00 00 00 00 00 00 00 00 00 
       00002370 00 00 00 00 00 00 00 00 00 00 
       0000237A 00 00 00 00 00 00 00 00 00 00 
       00002384 00 00 00 00 00 00 00 00 00 00 
       0000238E 00 00 00 00 00 00 00 00 00 00 
       00002398 00 00 00 00 00 00 00 00 00 00 
       000023A2 00 00 00 00 00 00 00 00 00 00 
       000023AC 00 00 00 00 00 00 00 00 00 00 
       000023B6 00 00 00 00 00 00 00 00 00 00 
       000023C0 00 00 00 00 00 00 00 00 00 00 
       000023CA 00 00 00 00 00 00 00 00 00 00 
       000023D4 00 00 00 00 00 00 00 00 00 00 
       000023DE 00 00 00 00 00 00 00 00 00 00 
       000023E8 00 00 00 00 00 00 00 00 00 00 
       000023F2 00 00 00 00 00 00 00 00 00 00 
       000023FC 00 00 00 00 00 00 00 00 00 00 
       00002406 00 00 00 00 00 00 00 00 00 00 
       00002410 00 00 00 00 00 00 00 00 00 00 
       0000241A 00 00 00 00 00 00 00 00 00 00 
       00002424 00 00 00 00 00 00 00 00 00 00 
       0000242E 00 00 00 00 00 00 00 00 00 00 
       00002438 00 00 00 00 00 00 00 00 00 00 
       00002442 00 00 00 00 00 00 00 00 00 00 
       0000244C 00 00 00 00 00 00 00 00 00 00 
       00002456 00 00 00 00 00 00 00 00 00 00 
       00002460 00 00 00 00 00 00 00 00 00 00 
       0000246A 00 00 00 00 00 00 00 00 00 00 
       00002474 00 00 00 00 00 00 00 00 00 00 
       0000247E 00 00 00 00 00 00 00 00 00 00 
       00002488 00 00 00 00 00 00 00 00 00 00 
       00002492 00 00 00 00 00 00 00 00 00 00 
       0000249C 00 00 00 00 00 00 00 00 00 00 
       000024A6 00 00 00 00 00 00 00 00 00 00 
       000024B0 00 00 00 00 00 00 00 00 00 00 
       000024BA 00 00 00 00 00 00 00 00 00 00 
       000024C4 00 00 00 00 00 00 00 00 00 00 
       000024CE 00 00 00 00 00 00 00 00 00 00 
       000024D8 00 00 00 00 00 00 00 00 00 00 
       000024E2 00 00 00 00 00 00 00 00 00 00 
       000024EC 00 00 00 00 00 00 00 00 00 00 
       000024F6 00 00 00 00 00 00 00 00 00 00 
       00002500 00 00 00 00 00 00 00 00 00 00 
       0000250A 00 00 00 00 00 00 00 00 00 00 
       00002514 00 00 00 00 00 00 00 00 00 00 
       0000251E 00 00 00 00 00 00 00 00 00 00 
       00002528 00 00 00 00 00 00 00 00 00 00 
       00002532 00 00 00 00 00 00 00 00 00 00 
       0000253C 00 00 00 00 00 00 00 00 00 00 
       00002546 00 00 00 00 00 00 00 00 00 00 
       00002550 00 00 00 00 00 00 00 00 00 00 
       0000255A 00 00 00 00 00 00 00 00 00 00 
       00002564 00 00 00 00 00 00 00 00 00 00 
       0000256E 00 00 00 00 00 00 00 00 00 00 
       00002578 00 00 00 00 00 00 00 00 00 00 
       00002582 00 00 00 00 00 00 00 00 00 00 
       0000258C 00 00 00 00 00 00 00 00 00 00 
       00002596 00 00 00 00 00 00 00 00 00 00 
       000025A0 00 00 00 00 00 00 00 00 00 00 
       000025AA 00 00 00 00 00 00 00 00 00 00 
       000025B4 00 00 00 00 00 00 00 00 00 00 
       000025BE 00 00 00 00 00 00 00 00 00 00 
       000025C8 00 00 00 00 00 00 00 00 00 00 
       000025D2 00 00 00 00 00 00 00 00 00 00 
       000025DC 00 00 00 00 00 00 00 00 00 00 
       000025E6 00 00 00 00 00 00 00 00 00 00 
       000025F0 00 00 00 00 00 00 00 00 00 00 
       000025FA 00 00 00 00 00 00 00 00 00 00 
       00002604 00 00 00 00 00 00 00 00 00 00 
       0000260E 00 00 00 00 00 00 00 00 00 00 
       00002618 00 00 00 00 00 00 00 00 00 00 
       00002622 00 00 00 00 00 00 00 00 00 00 
       0000262C 00 00 00 00 00 00 00 00 00 00 
       00002636 00 00 00 00 00 00 00 00 00 00 
       00002640 00 00 00 00 00 00 00 00 00 00 
       0000264A 00 00 00 00 00 00 00 00 00 00 
       00002654 00 00 00 00 00 00 00 00 00 00 
       0000265E 00 00 00 00 00 00 00 00 00 00 
       00002668 00 00 00 00 00 00 00 00 00 00 
       00002672 00 00 00 00 00 00 00 00 00 00 
       0000267C 00 00 00 00 00 00 00 00 00 00 
       00002686 00 00 00 00 00 00 00 00 00 00 
       00002690 00 00 00 00 00 00 00 00 00 00 
       0000269A 00 00 00 00 00 00 00 00 00 00 
       000026A4 00 00 00 00 00 00 00 00 00 00 
       000026AE 00 00 00 00 00 00 00 00 00 00 
       000026B8 00 00 00 00 00 00 00 00 00 00 
       000026C2 00 00 00 00 00 00 00 00 00 00 
       000026CC 00 00 00 00 00 00 00 00 00 00 
       000026D6 00 00 00 00 00 00 00 00 00 00 
       000026E0 00 00 00 00 00 00 00 00 00 00 
       000026EA 00 00 00 00 00 00 00 00 00 00 
       000026F4 00 00 00 00 00 00 00 00 00 00 
       000026FE 00 00 00 00 00 00 00 00 00 00 
       00002708 00 00 00 00 00 00 00 00 00 00 
       00002712 00 00 00 00 00 00 00 00 00 00 
       0000271C 00 00 00 00 00 00 00 00 00 00 
       00002726 00 00 00 00 00 00 00 00 00 00 
       00002730 00 00 00 00 00 00 00 00 00 00 
       0000273A 00 00 00 00 00 00 00 00 00 00 
       00002744 00 00 00 00 00 00 00 00 00 00 
       0000274E 00 00 00 00 00 00 00 00 00 00 
       00002758 00 00 00 00 00 00 00 00 00 00 
       00002762 00 00 00 00 00 00 00 00 00 00 
       0000276C 00 00 00 00 00 00 00 00 00 00 
       00002776 00 00 00 00 00 00 00 00 00 00 
       00002780 00 00 00 00 00 00 00 00 00 00 
       0000278A 00 00 00 00 00 00 00 00 00 00 
       00002794 00 00 00 00 00 00 00 00 00 00 
       0000279E 00 00 00 00 00 00 00 00 00 00 
       000027A8 00 00 00 00 00 00 00 00 00 00 
       000027B2 00 00 00 00 00 00 00 00 00 00 
       000027BC 00 00 00 00 00 00 00 00 00 00 
       000027C6 00 00 00 00 00 00 00 00 00 00 
       000027D0 00 00 00 00 00 00 00 00 00 00 
       000027DA 00 00 00 00 00 00 00 00 00 00 
       000027E4 00 00 00 00 00 00 00 00 00 00 
       000027EE 00 00 00 00 00 00 00 00 00 00 
       000027F8 00 00 00 00 00 00 00 00 00 00 
       00002802 00 00 00 00 00 00 00 00 00 00 
       0000280C 00 00 00 00 00 00 00 00 00 00 
       00002816 00 00 00 00 00 00 00 00 00 00 
       00002820 00 00 00 00 00 00 00 00 00 00 
       0000282A 00 00 00 00 00 00 00 00 00 00 
       00002834 00 00 00 00 00 00 00 00 00 00 
       0000283E 00 00 00 00 00 00 00 00 00 00 
       00002848 00 00 00 00 00 00 00 00 00 00 
       00002852 00 00 00 00 00 00 00 00 00 00 
       0000285C 00 00 00 00 00 00 00 00 00 00 
       00002866 00 00 00 00 00 00 00 00 00 00 
       00002870 00 00 00 00 00 00 00 00 00 00 
       0000287A 00 00 00 00 00 00 00 00 00 00 
       00002884 00 00 00 00 00 00 00 00 00 00 
       0000288E 00 00 00 00 00 00 00 00 00 00 
       00002898 00 00 00 00 00 00 00 00 00 00 
       000028A2 00 00 00 00 00 00 00 00 00 00 
       000028AC 00 00 00 00 00 00 00 00 00 00 
       000028B6 00 00 00 00 00 00 00 00 00 00 
       000028C0 00 00 00 00 00 00 00 00 00 00 
       000028CA 00 00 00 00 00 00 00 00 00 00 
       000028D4 00 00 00 00 00 00 00 00 00 00 
       000028DE 00 00 00 00 00 00 00 00 00 00 
       000028E8 00 00 00 00 00 00 00 00 00 00 
       000028F2 00 00 00 00 00 00 00 00 00 00 
       000028FC 00 00 00 00 00 00 00 00 00 00 
       00002906 00 00 00 00 00 00 00 00 00 00 
       00002910 00 00 00 00 00 00 00 00 00 00 
       0000291A 00 00 00 00 00 00 00 00 00 00 
       00002924 00 00 00 00 00 00 00 00 00 00 
       0000292E 00 00 00 00 00 00 00 00 00 00 
       00002938 00 00 00 00 00 00 00 00 00 00 
       00002942 00 00 00 00 00 00 00 00 00 00 
       0000294C 00 00 00 00 00 00 00 00 00 00 
       00002956 00 00 00 00 00 00 00 00 00 00 
       00002960 00 00 00 00 00 00 00 00 00 00 
       0000296A 00 00 00 00 00 00 00 00 00 00 
       00002974 00 00 00 00 00 00 00 00 00 00 
       0000297E 00 00 00 00 00 00 00 00 00 00 
       00002988 00 00 00 00 00 00 00 00 00 00 
       00002992 00 00 00 00 00 00 00 00 00 00 
       0000299C 00 00 00 00 00 00 00 00 00 00 
       000029A6 00 00 00 00 00 00 00 00 00 00 
       000029B0 00 00 00 00 00 00 00 00 00 00 
       000029BA 00 00 00 00 00 00 00 00 00 00 
       000029C4 00 00 00 00 00 00 00 00 00 00 
       000029CE 00 00 00 00 00 00 00 00 00 00 
       000029D8 00 00 00 00 00 00 00 00 00 00 
       000029E2 00 00 00 00 00 00 00 00 00 00 
       000029EC 00 00 00 00 00 00 00 00 00 00 
       000029F6 00 00 00 00 00 00 00 00 00 00 
       00002A00 00 00 00 00 00 00 00 00 00 00 
       00002A0A 00 00 00 00 00 00 00 00 00 00 
       00002A14 00 00 00 00 00 00 00 00 00 00 
       00002A1E 00 00 00 00 00 00 00 00 00 00 
       00002A28 00 00 00 00 00 00 00 00 00 00 
       00002A32 00 00 00 00 00 00 00 00 00 00 
       00002A3C 00 00 00 00 00 00 00 00 00 00 
       00002A46 00 00 00 00 00 00 00 00 00 00 
       00002A50 00 00 00 00 00 00 00 00 00 00 
       00002A5A 00 00 00 00 00 00 00 00 00 00 
       00002A64 00 00 00 00 00 00 00 00 00 00 
       00002A6E 00 00 00 00 00 00 00 00 00 00 
       00002A78 00 00 00 00 00 00 00 00 00 00 
       00002A82 00 00 00 00 00 00 00 00 00 00 
       00002A8C 00 00 00 00 00 00 00 00 00 00 
       00002A96 00 00 00 00 00 00 00 00 00 00 
       00002AA0 00 00 00 00 00 00 00 00 00 00 
       00002AAA 00 00 00 00 00 00 00 00 00 00 
       00002AB4 00 00 00 00 00 00 00 00 00 00 
       00002ABE 00 00 00 00 00 00 00 00 00 00 
       00002AC8 00 00 00 00 00 00 00 00 00 00 
       00002AD2 00 00 00 00 00 00 00 00 00 00 
       00002ADC 00 00 00 00 00 00 00 00 00 00 
       00002AE6 00 00 00 00 00 00 00 00 00 00 
       00002AF0 00 00 00 00 00 00 00 00 00 00 
       00002AFA 00 00 00 00 00 00 00 00 00 00 
       00002B04 00 00 00 00 00 00 00 00 00 00 
       00002B0E 00 00 00 00 00 00 00 00 00 00 
       00002B18 00 00 00 00 00 00 00 00 00 00 
       00002B22 00 00 00 00 00 00 00 00 00 00 
       00002B2C 00 00 00 00 00 00 00 00 00 00 
       00002B36 00 00 00 00 00 00 00 00 00 00 
       00002B40 00 00 00 00 00 00 00 00 00 00 
       00002B4A 00 00 00 00 00 00 00 00 00 00 
       00002B54 00 00 00 00 00 00 00 00 00 00 
       00002B5E 00 00 00 00 00 00 00 00 00 00 
       00002B68 00 00 00 00 00 00 00 00 00 00 
       00002B72 00 00 00 00 00 00 00 00 00 00 
       00002B7C 00 00 00 00 00 00 00 00 00 00 
       00002B86 00 00 00 00 00 00 00 00 00 00 
       00002B90 00 00 00 00 00 00 00 00 00 00 
       00002B9A 00 00 00 00 00 00 00 00 00 00 
       00002BA4 00 00 00 00 00 00 00 00 00 00 
       00002BAE 00 00 00 00 00 00 00 00 00 00 
       00002BB8 00 00 00 00 00 00 00 00 00 00 
       00002BC2 00 00 00 00 00 00 00 00 00 00 
       00002BCC 00 00 00 00 00 00 00 00 00 00 
       00002BD6 00 00 00 00 00 00 00 00 00 00 
       00002BE0 00 00 00 00 00 00 00 00 00 00 
       00002BEA 00 00 00 00 00 00 00 00 00 00 
       00002BF4 00 00 00 00 00 00 00 00 00 00 
       00002BFE 00 00 00 00 00 00 00 00 00 00 
       00002C08 00 00 00 00 00 00 00 00 00 00 
       00002C12 00 00 00 00 00 00 00 00 00 00 
       00002C1C 00 00 00 00 00 00 00 00 00 00 
       00002C26 00 00 00 00 00 00 00 00 00 00 
       00002C30 00 00 00 00 00 00 00 00 00 00 
       00002C3A 00 00 00 00 00 00 00 00 00 00 
       00002C44 00 00 00 00 00 00 00 00 00 00 
       00002C4E 00 00 00 00 00 00 00 00 00 00 
       00002C58 00 00 00 00 00 00 00 00 00 00 
       00002C62 00 00 00 00 00 00 00 00 00 00 
       00002C6C 00 00 00 00 00 00 00 00 00 00 
       00002C76 00 00 00 00 00 00 00 00 00 00 
       00002C80 00 00 00 00 00 00 00 00 00 00 
       00002C8A 00 00 00 00 00 00 00 00 00 00 
       00002C94 00 00 00 00 00 00 00 00 00 00 
       00002C9E 00 00 00 00 00 00 00 00 00 00 
       00002CA8 00 00 00 00 00 00 00 00 00 00 
       00002CB2 00 00 00 00 00 00 00 00 00 00 
       00002CBC 00 00 00 00 00 00 00 00 00 00 
       00002CC6 00 00 00 00 00 00 00 00 00 00 
       00002CD0 00 00 00 00 00 00 00 00 00 00 
       00002CDA 00 00 00 00 00 00 00 00 00 00 
       00002CE4 00 00 00 00 00 00 00 00 00 00 
       00002CEE 00 00 00 00 00 00 00 00 00 00 
       00002CF8 00 00 00 00 00 00 00 00 00 00 
       00002D02 00 00 00 00 00 00 00 00 00 00 
       00002D0C 00 00 00 00 00 00 00 00 00 00 
       00002D16 00 00 00 00 00 00 00 00 00 00 
       00002D20 00 00 00 00 00 00 00 00 00 00 
       00002D2A 00 00 00 00 00 00 00 00 00 00 
       00002D34 00 00 00 00 00 00 00 00 00 00 
       00002D3E 00 00 00 00 00 00 00 00 00 00 
       00002D48 00 00 00 00 00 00 00 00 00 00 
       00002D52 00 00 00 00 00 00 00 00 00 00 
       00002D5C 00 00 00 00 00 00 00 00 00 00 
       00002D66 00 00 00 00 00 00 00 00 00 00 
       00002D70 00 00 00 00 00 00 00 00 00 00 
       00002D7A 00 00 00 00 00 00 00 00 00 00 
       00002D84 00 00 00 00 00 00 00 00 00 00 
       00002D8E 00 00 00 00 00 00 00 00 00 00 
       00002D98 00 00 00 00 00 00 00 00 00 00 
       00002DA2 00 00 00 00 00 00 00 00 00 00 
       00002DAC 00 00 00 00 00 00 00 00 00 00 
       00002DB6 00 00 00 00 00 00 00 00 00 00 
       00002DC0 00 00 00 00 00 00 00 00 00 00 
       00002DCA 00 00 00 00 00 00 00 00 00 00 
       00002DD4 00 00 00 00 00 00 00 00 00 00 
       00002DDE 00 00 00 00 00 00 00 00 00 00 
       00002DE8 00 00 00 00 00 00 00 00 00 00 
       00002DF2 00 00 00 00 00 00 00 00 00 00 
       00002DFC 00 00 00 00 00 00 00 00 00 00 
       00002E06 00 00 00 00 00 00 00 00 00 00 
       00002E10 00 00 00 00 00 00 00 00 00 00 
       00002E1A 00 00 00 00 00 00 00 00 00 00 
       00002E24 00 00 00 00 00 00 00 00 00 00 
       00002E2E 00 00 00 00 00 00 00 00 00 00 
       00002E38 00 00 00 00 00 00 00 00 00 00 
       00002E42 00 00 00 00 00 00 00 00 00 00 
       00002E4C 00 00 00 00 00 00 00 00 00 00 
       00002E56 00 00 00 00 00 00 00 00 00 00 
       00002E60 00 00 00 00 00 00 00 00 00 00 
       00002E6A 00 00 00 00 00 00 00 00 00 00 
       00002E74 00 00 00 00 00 00 00 00 00 00 
       00002E7E 00 00 00 00 00 00 00 00 00 00 
       00002E88 00 00 00 00 00 00 00 00 00 00 
       00002E92 00 00 00 00 00 00 00 00 00 00 
       00002E9C 00 00 00 00 00 00 00 00 00 00 
       00002EA6 00 00 00 00 00 00 00 00 00 00 
       00002EB0 00 00 00 00 00 00 00 00 00 00 
       00002EBA 00 00 00 00 00 00 00 00 00 00 
       00002EC4 00 00 00 00 00 00 00 00 00 00 
       00002ECE 00 00 00 00 00 00 00 00 00 00 
       00002ED8 00 00 00 00 00 00 00 00 00 00 
       00002EE2 00 00 00 00 00 00 00 00 00 00 
       00002EEC 00 00 00 00 00 00 00 00 00 00 
       00002EF6 00 00 00 00 00 00 00 00 00 00 
       00002F00 00 00 00 00 00 00 00 00 00 00 
       00002F0A 00 00 00 00 00 00 00 00 00 00 
       00002F14 00 00 00 00 00 00 00 00 00 00 
       00002F1E 00 00 00 00 00 00 00 00 00 00 
       00002F28 00 00 00 00 00 00 00 00 00 00 
       00002F32 00 00 00 00 00 00 00 00 00 00 
       00002F3C 00 00 00 00 00 00 00 00 00 00 
       00002F46 00 00 00 00 00 00 00 00 00 00 
       00002F50 00 00 00 00 00 00 00 00 00 00 
       00002F5A 00 00 00 00 00 00 00 00 00 00 
       00002F64 00 00 00 00 00 00 00 00 00 00 
       00002F6E 00 00 00 00 00 00 00 00 00 00 
       00002F78 00 00 00 00 00 00 00 00 00 00 
       00002F82 00 00 00 00 00 00 00 00 00 00 
       00002F8C 00 00 00 00 00 00 00 00 00 00 
       00002F96 00 00 00 00 00 00 00 00 00 00 
       00002FA0 00 00 00 00 00 00 00 00 00 00 
       00002FAA 00 00 00 00 00 00 00 00 00 00 
       00002FB4 00 00 00 00 00 00 00 00 00 00 
       00002FBE 00 00 00 00 00 00 00 00 00 00 
       00002FC8 00 00 00 00 00 00 00 00 00 00 
       00002FD2 00 00 00 00 00 00 00 00 00 00 
       00002FDC 00 00 00 00 00 00 00 00 00 00 
       00002FE6 00 00 00 00 00 00 00 00 00 00 
       00002FF0 00 00 00 00 00 00 00 00 00 00 
       00002FFA 00 00 00 00 00 00 00 00 00 00 
       00003004 00 00 00 00 00 00 00 00 00 00 
       0000300E 00 00 00 00 00 00 00 00 00 00 
       00003018 00 00 00 00 00 00 00 00 00 00 
       00003022 00 00 00 00 00 00 00 00 00 00 
       0000302C 00 00 00 00 00 00 00 00 00 00 
       00003036 00 00 00 00 00 00 00 00 00 00 
       00003040 00 00 00 00 00 00 00 00 00 00 
       0000304A 00 00 00 00 00 00 00 00 00 00 
       00003054 00 00 00 00 00 00 00 00 00 00 
       0000305E 00 00 00 00 00 00 00 00 00 00 
       00003068 00 00 00 00 00 00 00 00 00 00 
       00003072 00 00 00 00 00 00 00 00 00 00 
       0000307C 00 00 00 00 00 00 00 00 00 00 
       00003086 00 00 00 00 00 00 00 00 00 00 
       00003090 00 00 00 00 00 00 00 00 00 00 
       0000309A 00 00 00 00 00 00 00 00 00 00 
       000030A4 00 00 00 00 00 00 00 00 00 00 
       000030AE 00 00 00 00 00 00 00 00 00 00 
       000030B8 00 00 00 00 00 00 00 00 00 00 
       000030C2 00 00 00 00 00 00 00 00 00 00 
       000030CC 00 00 00 00 00 00 00 00 00 00 
       000030D6 00 00 00 00 00 00 00 00 00 00 
       000030E0 00 00 00 00 00 00 00 00 00 00 
       000030EA 00 00 00 00 00 00 00 00 00 00 
       000030F4 00 00 00 00 00 00 00 00 00 00 
       000030FE 00 00 00 00 00 00 00 00 00 00 
       00003108 00 00 00 00 00 00 00 00 00 00 
       00003112 00 00 00 00 00 00 00 00 00 00 
       0000311C 00 00 00 00 00 00 00 00 00 00 
       00003126 00 00 00 00 00 00 00 00 00 00 
       00003130 00 00 00 00 00 00 00 00 00 00 
       0000313A 00 00 00 00 00 00 00 00 00 00 
       00003144 00 00 00 00 00 00 00 00 00 00 
       0000314E 00 00 00 00 00 00 00 00 00 00 
       00003158 00 00 00 00 00 00 00 00 00 00 
       00003162 00 00 00 00 00 00 00 00 00 00 
       0000316C 00 00 00 00 00 00 00 00 00 00 
       00003176 00 00 00 00 00 00 00 00 00 00 
       00003180 00 00 00 00 00 00 00 00 00 00 
       0000318A 00 00 00 00 00 00 00 00 00 00 
       00003194 00 00 00 00 00 00 00 00 00 00 
       0000319E 00 00 00 00 00 00 00 00 00 00 
       000031A8 00 00 00 00 00 00 00 00 00 00 
       000031B2 00 00 00 00 00 00 00 00 00 00 
       000031BC 00 00 00 00 00 00 00 00 00 00 
       000031C6 00 00 00 00 00 00 00 00 00 00 
       000031D0 00 00 00 00 00 00 00 00 00 00 
       000031DA 00 00 00 00 00 00 00 00 00 00 
       000031E4 00 00 00 00 00 00 00 00 00 00 
       000031EE 00 00 00 00 00 00 00 00 00 00 
       000031F8 00 00 00 00 00 00 00 00 00 00 
       00003202 00 00 00 00 00 00 00 00 00 00 
       0000320C 00 00 00 00 00 00 00 00 00 00 
       00003216 00 00 00 00 00 00 00 00 00 00 
       00003220 00 00 00 00 00 00 00 00 00 00 
       0000322A 00 00 00 00 00 00 00 00 00 00 
       00003234 00 00 00 00 00 00 00 00 00 00 
       0000323E 00 00 00 00 00 00 00 00 00 00 
       00003248 00 00 00 00 00 00 00 00 00 00 
       00003252 00 00 00 00 00 00 00 00 00 00 
       0000325C 00 00 00 00 00 00 00 00 00 00 
       00003266 00 00 00 00 00 00 00 00 00 00 
       00003270 00 00 00 00 00 00 00 00 00 00 
       0000327A 00 00 00 00 00 00 00 00 00 00 
       00003284 00 00 00 00 00 00 00 00 00 00 
       0000328E 00 00 00 00 00 00 00 00 00 00 
       00003298 00 00 00 00 00 00 00 00 00 00 
       000032A2 00 00 00 00 00 00 00 00 00 00 
       000032AC 00 00 00 00 00 00 00 00 00 00 
       000032B6 00 00 00 00 00 00 00 00 00 00 
       000032C0 00 00 00 00 00 00 00 00 00 00 
       000032CA 00 00 00 00 00 00 00 00 00 00 
       000032D4 00 00 00 00 00 00 00 00 00 00 
       000032DE 00 00 00 00 00 00 00 00 00 00 
       000032E8 00 00 00 00 00 00 00 00 00 00 
       000032F2 00 00 00 00 00 00 00 00 00 00 
       000032FC 00 00 00 00 00 00 00 00 00 00 
       00003306 00 00 00 00 00 00 00 00 00 00 
       00003310 00 00 00 00 00 00 00 00 00 00 
       0000331A 00 00 00 00 00 00 00 00 00 00 
       00003324 00 00 00 00 00 00 00 00 00 00 
       0000332E 00 00 00 00 00 00 00 00 00 00 
       00003338 00 00 00 00 00 00 00 00 00 00 
       00003342 00 00 00 00 00 00 00 00 00 00 
       0000334C 00 00 00 00 00 00 00 00 00 00 
       00003356 00 00 00 00 00 00 00 00 00 00 
       00003360 00 00 00 00 00 00 00 00 00 00 
       0000336A 00 00 00 00 00 00 00 00 00 00 
       00003374 00 00 00 00 00 00 00 00 00 00 
       0000337E 00 00 00 00 00 00 00 00 00 00 
       00003388 00 00 00 00 00 00 00 00 00 00 
       00003392 00 00 00 00 00 00 00 00 00 00 
       0000339C 00 00 00 00 00 00 00 00 00 00 
       000033A6 00 00 00 00 00 00 00 00 00 00 
       000033B0 00 00 00 00 00 00 00 00 00 00 
       000033BA 00 00 00 00 00 00 00 00 00 00 
       000033C4 00 00 00 00 00 00 00 00 00 00 
       000033CE 00 00 00 00 00 00 00 00 00 00 
       000033D8 00 00 00 00 00 00 00 00 00 00 
       000033E2 00 00 00 00 00 00 00 00 00 00 
       000033EC 00 00 00 00 00 00 00 00 00 00 
       000033F6 00 00 00 00 00 00 00 00 00 00 
       00003400 00 00 00 00 00 00 00 00 00 00 
       0000340A 00 00 00 00 00 00 00 00 00 00 
       00003414 00 00 00 00 00 00 00 00 00 00 
       0000341E 00 00 00 00 00 00 00 00 00 00 
       00003428 00 00 00 00 00 00 00 00 00 00 
       00003432 00 00 00 00 00 00 00 00 00 00 
       0000343C 00 00 00 00 00 00 00 00 00 00 
       00003446 00 00 00 00 00 00 00 00 00 00 
       00003450 00 00 00 00 00 00 00 00 00 00 
       0000345A 00 00 00 00 00 00 00 00 00 00 
       00003464 00 00 00 00 00 00 00 00 00 00 
       0000346E 00 00 00 00 00 00 00 00 00 00 
       00003478 00 00 00 00 00 00 00 00 00 00 
       00003482 00 00 00 00 00 00 00 00 00 00 
       0000348C 00 00 00 00 00 00 00 00 00 00 
       00003496 00 00 00 00 00 00 00 00 00 00 
       000034A0 00 00 00 00 00 00 00 00 00 00 
       000034AA 00 00 00 00 00 00 00 00 00 00 
       000034B4 00 00 00 00 00 00 00 00 00 00 
       000034BE 00 00 00 00 00 00 00 00 00 00 
       000034C8 00 00 00 00 00 00 00 00 00 00 
       000034D2 00 00 00 00 00 00 00 00 00 00 
       000034DC 00 00 00 00 00 00 00 00 00 00 
       000034E6 00 00 00 00 00 00 00 00 00 00 
       000034F0 00 00 00 00 00 00 00 00 00 00 
       000034FA 00 00 00 00 00 00 00 00 00 00 
       00003504 00 00 00 00 00 00 00 00 00 00 
       0000350E 00 00 00 00 00 00 00 00 00 00 
       00003518 00 00 00 00 00 00 00 00 00 00 
       00003522 00 00 00 00 00 00 00 00 00 00 
       0000352C 00 00 00 00 00 00 00 00 00 00 
       00003536 00 00 00 00 00 00 00 00 00 00 
       00003540 00 00 00 00 00 00 00 00 00 00 
       0000354A 00 00 00 00 00 00 00 00 00 00 
       00003554 00 00 00 00 00 00 00 00 00 00 
       0000355E 00 00 00 00 00 00 00 00 00 00 
       00003568 00 00 00 00 00 00 00 00 00 00 
       00003572 00 00 00 00 00 00 00 00 00 00 
       0000357C 00 00 00 00 00 00 00 00 00 00 
       00003586 00 00 00 00 00 00 00 00 00 00 
       00003590 00 00 00 00 00 00 00 00 00 00 
       0000359A 00 00 00 00 00 00 00 00 00 00 
       000035A4 00 00 00 00 00 00 00 00 00 00 
       000035AE 00 00 00 00 00 00 00 00 00 00 
       000035B8 00 00 00 00 00 00 00 00 00 00 
       000035C2 00 00 00 00 00 00 00 00 00 00 
       000035CC 00 00 00 00 00 00 00 00 00 00 
       000035D6 00 00 00 00 00 00 00 00 00 00 
       000035E0 00 00 00 00 00 00 00 00 00 00 
       000035EA 00 00 00 00 00 00 00 00 00 00 
       000035F4 00 00 00 00 00 00 00 00 00 00 
       000035FE 00 00 00 00 00 00 00 00 00 00 
       00003608 00 00 00 00 00 00 00 00 00 00 
       00003612 00 00 00 00 00 00 00 00 00 00 
       0000361C 00 00 00 00 00 00 00 00 00 00 
       00003626 00 00 00 00 00 00 00 00 00 00 
       00003630 00 00 00 00 00 00 00 00 00 00 
       0000363A 00 00 00 00 00 00 00 00 00 00 
       00003644 00 00 00 00 00 00 00 00 00 00 
       0000364E 00 00 00 00 00 00 00 00 00 00 
       00003658 00 00 00 00 00 00 00 00 00 00 
       00003662 00 00 00 00 00 00 00 00 00 00 
       0000366C 00 00 00 00 00 00 00 00 00 00 
       00003676 00 00 00 00 00 00 00 00 00 00 
       00003680 00 00 00 00 00 00 00 00 00 00 
       0000368A 00 00 00 00 00 00 00 00 00 00 
       00003694 00 00 00 00 00 00 00 00 00 00 
       0000369E 00 00 00 00 00 00 00 00 00 00 
       000036A8 00 00 00 00 00 00 00 00 00 00 
       000036B2 00 00 00 00 00 00 00 00 00 00 
       000036BC 00 00 00 00 00 00 00 00 00 00 
       000036C6 00 00 00 00 00 00 00 00 00 00 
       000036D0 00 00 00 00 00 00 00 00 00 00 
       000036DA 00 00 00 00 00 00 00 00 00 00 
       000036E4 00 00 00 00 00 00 00 00 00 00 
       000036EE 00 00 00 00 00 00 00 00 00 00 
       000036F8 00 00 00 00 00 00 00 00 00 00 
       00003702 00 00 00 00 00 00 00 00 00 00 
       0000370C 00 00 00 00 00 00 00 00 00 00 
       00003716 00 00 00 00 00 00 00 00 00 00 
       00003720 00 00 00 00 00 00 00 00 00 00 
       0000372A 00 00 00 00 00 00 00 00 00 00 
       00003734 00 00 00 00 00 00 00 00 00 00 
       0000373E 00 00 00 00 00 00 00 00 00 00 
       00003748 00 00 00 00 00 00 00 00 00 00 
       00003752 00 00 00 00 00 00 00 00 00 00 
       0000375C 00 00 00 00 00 00 00 00 00 00 
       00003766 00 00 00 00 00 00 00 00 00 00 
       00003770 00 00 00 00 00 00 00 00 00 00 
       0000377A 00 00 00 00 00 00 00 00 00 00 
       00003784 00 00 00 00 00 00 00 00 00 00 
       0000378E 00 00 00 00 00 00 00 00 00 00 
       00003798 00 00 00 00 00 00 00 00 00 00 
       000037A2 00 00 00 00 00 00 00 00 00 00 
       000037AC 00 00 00 00 00 00 00 00 00 00 
       000037B6 00 00 00 00 00 00 00 00 00 00 
       000037C0 00 00 00 00 00 00 00 00 00 00 
       000037CA 00 00 00 00 00 00 00 00 00 00 
       000037D4 00 00 00 00 00 00 00 00 00 00 
       000037DE 00 00 00 00 00 00 00 00 00 00 
       000037E8 00 00 00 00 00 00 00 00 00 00 
       000037F2 00 00 00 00 00 00 00 00 00 00 
       000037FC 00 00 00 00 00 00 00 00 00 00 
       00003806 00 00 00 00 00 00 00 00 00 00 
       00003810 00 00 00 00 00 00 00 00 00 00 
       0000381A 00 00 00 00 00 00 00 00 00 00 
       00003824 00 00 00 00 00 00 00 00 00 00 
       0000382E 00 00 00 00 00 00 00 00 00 00 
       00003838 00 00 00 00 00 00 00 00 00 00 
       00003842 00 00 00 00 00 00 00 00 00 00 
       0000384C 00 00 00 00 00 00 00 00 00 00 
       00003856 00 00 00 00 00 00 00 00 00 00 
       00003860 00 00 00 00 00 00 00 00 00 00 
       0000386A 00 00 00 00 00 00 00 00 00 00 
       00003874 00 00 00 00 00 00 00 00 00 00 
       0000387E 00 00 00 00 00 00 00 00 00 00 
       00003888 00 00 00 00 00 00 00 00 00 00 
       00003892 00 00 00 00 00 00 00 00 00 00 
       0000389C 00 00 00 00 00 00 00 00 00 00 
       000038A6 00 00 00 00 00 00 00 00 00 00 
       000038B0 00 00 00 00 00 00 00 00 00 00 
       000038BA 00 00 00 00 00 00 00 00 00 00 
       000038C4 00 00 00 00 00 00 00 00 00 00 
       000038CE 00 00 00 00 00 00 00 00 00 00 
       000038D8 00 00 00 00 00 00 00 00 00 00 
       000038E2 00 00 00 00 00 00 00 00 00 00 
       000038EC 00 00 00 00 00 00 00 00 00 00 
       000038F6 00 00 00 00 00 00 00 00 00 00 
       00003900 00 00 00 00 00 00 00 00 00 00 
       0000390A 00 00 00 00 00 00 00 00 00 00 
       00003914 00 00 00 00 00 00 00 00 00 00 
       0000391E 00 00 00 00 00 00 00 00 00 00 
       00003928 00 00 00 00 00 00 00 00 00 00 
       00003932 00 00 00 00 00 00 00 00 00 00 
       0000393C 00 00 00 00 00 00 00 00 00 00 
       00003946 00 00 00 00 00 00 00 00 00 00 
       00003950 00 00 00 00 00 00 00 00 00 00 
       0000395A 00 00 00 00 00 00 00 00 00 00 
       00003964 00 00 00 00 00 00 00 00 00 00 
       0000396E 00 00 00 00 00 00 00 00 00 00 
       00003978 00 00 00 00 00 00 00 00 00 00 
       00003982 00 00 00 00 00 00 00 00 00 00 
       0000398C 00 00 00 00 00 00 00 00 00 00 
       00003996 00 00 00 00 00 00 00 00 00 00 
       000039A0 00 00 00 00 00 00 00 00 00 00 
       000039AA 00 00 00 00 00 00 00 00 00 00 
       000039B4 00 00 00 00 00 00 00 00 00 00 
       000039BE 00 00 00 00 00 00 00 00 00 00 
       000039C8 00 00 00 00 00 00 00 00 00 00 
       000039D2 00 00 00 00 00 00 00 00 00 00 
       000039DC 00 00 00 00 00 00 00 00 00 00 
       000039E6 00 00 00 00 00 00 00 00 00 00 
       000039F0 00 00 00 00 00 00 00 00 00 00 
       000039FA 00 00 00 00 00 00 00 00 00 00 
       00003A04 00 00 00 00 00 00 00 00 00 00 
       00003A0E 00 00 00 00 00 00 00 00 00 00 
       00003A18 00 00 00 00 00 00 00 00 00 00 
       00003A22 00 00 00 00 00 00 00 00 00 00 
       00003A2C 00 00 00 00 00 00 00 00 00 00 
       00003A36 00 00 00 00 00 00 00 00 00 00 
       00003A40 00 00 00 00 00 00 00 00 00 00 
       00003A4A 00 00 00 00 00 00 00 00 00 00 
       00003A54 00 00 00 00 00 00 00 00 00 00 
       00003A5E 00 00 00 00 00 00 00 00 00 00 
       00003A68 00 00 00 00 00 00 00 00 00 00 
       00003A72 00 00 00 00 00 00 00 00 00 00 
       00003A7C 00 00 00 00 00 00 00 00 00 00 
       00003A86 00 00 00 00 00 00 00 00 00 00 
       00003A90 00 00 00 00 00 00 00 00 00 00 
       00003A9A 00 00 00 00 00 00 00 00 00 00 
       00003AA4 00 00 00 00 00 00 00 00 00 00 
       00003AAE 00 00 00 00 00 00 00 00 00 00 
       00003AB8 00 00 00 00 00 00 00 00 00 00 
       00003AC2 00 00 00 00 00 00 00 00 00 00 
       00003ACC 00 00 00 00 00 00 00 00 00 00 
       00003AD6 00 00 00 00 00 00 00 00 00 00 
       00003AE0 00 00 00 00 00 00 00 00 00 00 
       00003AEA 00 00 00 00 00 00 00 00 00 00 
       00003AF4 00 00 00 00 00 00 00 00 00 00 
       00003AFE 00 00 00 00 00 00 00 00 00 00 
       00003B08 00 00 00 00 00 00 00 00 00 00 
       00003B12 00 00 00 00 00 00 00 00 00 00 
       00003B1C 00 00 00 00 00 00 00 00 00 00 
       00003B26 00 00 00 00 00 00 00 00 00 00 
       00003B30 00 00 00 00 00 00 00 00 00 00 
       00003B3A 00 00 00 00 00 00 00 00 00 00 
       00003B44 00 00 00 00 00 00 00 00 00 00 
       00003B4E 00 00 00 00 00 00 00 00 00 00 
       00003B58 00 00 00 00 00 00 00 00 00 00 
       00003B62 00 00 00 00 00 00 00 00 00 00 
       00003B6C 00 00 00 00 00 00 00 00 00 00 
       00003B76 00 00 00 00 00 00 00 00 00 00 
       00003B80 00 00 00 00 00 00 00 00 00 00 
       00003B8A 00 00 00 00 00 00 00 00 00 00 
       00003B94 00 00 00 00 00 00 00 00 00 00 
       00003B9E 00 00 00 00 00 00 00 00 00 00 
       00003BA8 00 00 00 00 00 00 00 00 00 00 
       00003BB2 00 00 00 00 00 00 00 00 00 00 
       00003BBC 00 00 00 00 00 00 00 00 00 00 
       00003BC6 00 00 00 00 00 00 00 00 00 00 
       00003BD0 00 00 00 00 00 00 00 00 00 00 
       00003BDA 00 00 00 00 00 00 00 00 00 00 
       00003BE4 00 00 00 00 00 00 00 00 00 00 
       00003BEE 00 00 00 00 00 00 00 00 00 00 
       00003BF8 00 00 00 00 00 00 00 00 00 00 
       00003C02 00 00 00 00 00 00 00 00 00 00 
       00003C0C 00 00 00 00 00 00 00 00 00 00 
       00003C16 00 00 00 00 00 00 00 00 00 00 
       00003C20 00 00 00 00 00 00 00 00 00 00 
       00003C2A 00 00 00 00 00 00 00 00 00 00 
       00003C34 00 00 00 00 00 00 00 00 00 00 
       00003C3E 00 00 00 00 00 00 00 00 00 00 
       00003C48 00 00 00 00 00 00 00 00 00 00 
       00003C52 00 00 00 00 00 00 00 00 00 00 
       00003C5C 00 00 00 00 00 00 00 00 00 00 
       00003C66 00 00 00 00 00 00 00 00 00 00 
       00003C70 00 00 00 00 00 00 00 00 00 00 
       00003C7A 00 00 00 00 00 00 00 00 00 00 
       00003C84 00 00 00 00 00 00 00 00 00 00 
       00003C8E 00 00 00 00 00 00 00 00 00 00 
       00003C98 00 00 00 00 00 00 00 00 00 00 
       00003CA2 00 00 00 00 00 00 00 00 00 00 
       00003CAC 00 00 00 00 00 00 00 00 00 00 
       00003CB6 00 00 00 00 00 00 00 00 00 00 
       00003CC0 00 00 00 00 00 00 00 00 00 00 
       00003CCA 00 00 00 00 00 00 00 00 00 00 
       00003CD4 00 00 00 00 00 00 00 00 00 00 
       00003CDE 00 00 00 00 00 00 00 00 00 00 
       00003CE8 00 00 00 00 00 00 00 00 00 00 
       00003CF2 00 00 00 00 00 00 00 00 00 00 
       00003CFC 00 00 00 00 00 00 00 00 00 00 
       00003D06 00 00 00 00 00 00 00 00 00 00 
       00003D10 00 00 00 00 00 00 00 00 00 00 
       00003D1A 00 00 00 00 00 00 00 00 00 00 
       00003D24 00 00 00 00 00 00 00 00 00 00 
       00003D2E 00 00 00 00 00 00 00 00 00 00 
       00003D38 00 00 00 00 00 00 00 00 00 00 
       00003D42 00 00 00 00 00 00 00 00 00 00 
       00003D4C 00 00 00 00 00 00 00 00 00 00 
       00003D56 00 00 00 00 00 00 00 00 00 00 
       00003D60 00 00 00 00 00 00 00 00 00 00 
       00003D6A 00 00 00 00 00 00 00 00 00 00 
       00003D74 00 00 00 00 00 00 00 00 00 00 
       00003D7E 00 00 00 00 00 00 00 00 00 00 
       00003D88 00 00 00 00 00 00 00 00 00 00 
       00003D92 00 00 00 00 00 00 00 00 00 00 
       00003D9C 00 00 00 00 00 00 00 00 00 00 
       00003DA6 00 00 00 00 00 00 00 00 00 00 
       00003DB0 00 00 00 00 00 00 00 00 00 00 
       00003DBA 00 00 00 00 00 00 00 00 00 00 
       00003DC4 00 00 00 00 00 00 00 00 00 00 
       00003DCE 00 00 00 00 00 00 00 00 00 00 
       00003DD8 00 00 00 00 00 00 00 00 00 00 
       00003DE2 00 00 00 00 00 00 00 00 00 00 
       00003DEC 00 00 00 00 00 00 00 00 00 00 
       00003DF6 00 00 00 00 00 00 00 00 00 00 
       00003E00 00 00 00 00 00 00 00 00 00 00 
       00003E0A 00 00 00 00 00 00 00 00 00 00 
       00003E14 00 00 00 00 00 00 00 00 00 00 
       00003E1E 00 00 00 00 00 00 00 00 00 00 
       00003E28 00 00 00 00 00 00 00 00 00 00 
       00003E32 00 00 00 00 00 00 00 00 00 00 
       00003E3C 00 00 00 00 00 00 00 00 00 00 
       00003E46 00 00 00 00 00 00 00 00 00 00 
       00003E50 00 00 00 00 00 00 00 00 00 00 
       00003E5A 00 00 00 00 00 00 00 00 00 00 
       00003E64 00 00 00 00 00 00 00 00 00 00 
       00003E6E 00 00 00 00 00 00 00 00 00 00 
       00003E78 00 00 00 00 00 00 00 00 00 00 
       00003E82 00 00 00 00 00 00 00 00 00 00 
       00003E8C 00 00 00 00 00 00 00 00 00 00 
       00003E96 00 00 00 00 00 00 00 00 00 00 
       00003EA0 00 00 00 00 00 00 00 00 00 00 
       00003EAA 00 00 00 00 00 00 00 00 00 00 
       00003EB4 00 00 00 00 00 00 00 00 00 00 
       00003EBE 00 00 00 00 00 00 00 00 00 00 
       00003EC8 00 00 00 00 00 00 00 00 00 00 
       00003ED2 00 00 00 00 00 00 00 00 00 00 
       00003EDC 00 00 00 00 00 00 00 00 00 00 
       00003EE6 00 00 00 00 00 00 00 00 00 00 
       00003EF0 00 00 00 00 00 00 00 00 00 00 
       00003EFA 00 00 00 00 00 00 00 00 00 00 
       00003F04 00 00 00 00 00 00 00 00 00 00 
       00003F0E 00 00 00 00 00 00 00 00 00 00 
       00003F18 00 00 00 00 00 00 00 00 00 00 
       00003F22 00 00 00 00 00 00 00 00 00 00 
       00003F2C 00 00 00 00 00 00 00 00 00 00 
       00003F36 00 00 00 00 00 00 00 00 00 00 
       00003F40 00 00 00 00 00 00 00 00 00 00 
       00003F4A 00 00 00 00 00 00 00 00 00 00 
       00003F54 00 00 00 00 00 00 00 00 00 00 
       00003F5E 00 00 00 00 00 00 00 00 00 00 
       00003F68 00 00 00 00 00 00 00 00 00 00 
       00003F72 00 00 00 00 00 00 00 00 00 00 
       00003F7C 00 00 00 00 00 00 00 00 00 00 
       00003F86 00 00 00 00 00 00 00 00 00 00 
       00003F90 00 00 00 00 00 00 00 00 00 00 
       00003F9A 00 00 00 00 00 00 00 00 00 00 
       00003FA4 00 00 00 00 00 00 00 00 00 00 
       00003FAE 00 00 00 00 00 00 00 00 00 00 
       00003FB8 00 00 00 00 00 00 00 00 00 00 
       00003FC2 00 00 00 00 00 00 00 00 00 00 
       00003FCC 00 00 00 00 00 00 00 00 00 00 
       00003FD6 00 00 00 00 00 00 00 00 00 00 
       00003FE0 00 00 00 00 00 00 00 00 00 00 
       00003FEA 00 00 00 00 00 00 00 00 00 00 
       00003FF4 00 00 00 00 00 00 00 00 00 00 
       00003FFE 00 00 00 00 00 00 00 00 00 00 
       00004008 00 00 00 00 00 00 00 00 00 00 
       00004012 00 00 00 00 00 00 00 00 00 00 
       0000401C 00 00 00 00 00 00 00 00 00 00 
       00004026 00 00 00 00 00 00 00 00 00 00 
       00004030 00 00 00 00 00 00 00 00 00 00 
       0000403A 00 00 00 00 00 00 00 00 00 00 
       00004044 00 00 00 00 00 00 00 00 00 00 
       0000404E 00 00 00 00 00 00 00 00 00 00 
       00004058 00 00 00 00 00 00 00 00 00 00 
       00004062 00 00 00 00 00 00 00 00 00 00 
       0000406C 00 00 00 00 00 00 00 00 00 00 
       00004076 00 00 00 00 00 00 00 00 00 00 
       00004080 00 00 00 00 00 00 00 00 00 00 
       0000408A 00 00 00 00 00 00 00 00 00 00 
       00004094 00 00 00 00 00 00 00 00 00 00 
       0000409E 00 00 00 00 00 00 00 00 00 00 
       000040A8 00 00 00 00 00 00 00 00 00 00 
       000040B2 00 00 00 00 00 00 00 00 00 00 
       000040BC 00 00 00 00 00 00 00 00 00 00 
       000040C6 00 00 00 00 00 00 00 00 00 00 
       000040D0 00 00 00 00 00 00 00 00 00 00 
       000040DA 00 00 00 00 00 00 00 00 00 00 
       000040E4 00 00 00 00 00 00 00 00 00 00 
       000040EE 00 00 00 00 00 00 00 00 00 00 
       000040F8 00 00 00 00 00 00 00 00 00 00 
       00004102 00 00 00 00 00 00 00 00 00 00 
       0000410C 00 00 00 00 00 00 00 00 00 00 
       00004116 00 00 00 00 00 00 00 00 00 00 
       00004120 00 00 00 00 00 00 00 00 00 00 
       0000412A 00 00 00 00 00 00 00 00 00 00 
       00004134 00 00 00 00 00 00 00 00 00 00 
       0000413E 00 00 00 00 00 00 00 00 00 00 
       00004148 00 00 00 00 00 00 00 00 00 00 
       00004152 00 00 00 00 00 00 00 00 00 00 
       0000415C 00 00 00 00 00 00 00 00 00 00 
       00004166 00 00 00 00 00 00 00 00 00 00 
       00004170 00 00 00 00 00 00 00 00 00 00 
       0000417A 00 00 00 00 00 00 00 00 00 00 
       00004184 00 00 00 00 00 00 00 00 00 00 
       0000418E 00 00 00 00 00 00 00 00 00 00 
       00004198 00 00 00 00 00 00 00 00 00 00 
       000041A2 00 00 00 00 00 00 00 00 00 00 
       000041AC 00 00 00 00 00 00 00 00 00 00 
       000041B6 00 00 00 00 00 00 00 00 00 00 
       000041C0 00 00 00 00 00 00 00 00 00 00 
       000041CA 00 00 00 00 00 00 00 00 00 00 
       000041D4 00 00 00 00 00 00 00 00 00 00 
       000041DE 00 00 00 00 00 00 00 00 00 00 
       000041E8 00 00 00 00 00 00 00 00 00 00 
       000041F2 00 00 00 00 00 00 00 00 00 00 
       000041FC 00 00 00 00 00 00 00 00 00 00 
       00004206 00 00 00 00 00 00 00 00 00 00 
       00004210 00 00 00 00 00 00 00 00 00 00 
       0000421A 00 00 00 00 00 00 00 00 00 00 
       00004224 00 00 00 00 00 00 00 00 00 00 
       0000422E 00 00 00 00 00 00 00 00 00 00 
       00004238 00 00 00 00 00 00 00 00 00 00 
       00004242 00 00 00 00 00 00 00 00 00 00 
       0000424C 00 00 00 00 00 00 00 00 00 00 
       00004256 00 00 00 00 00 00 00 00 00 00 
       00004260 00 00 00 00 00 00 00 00 00 00 
       0000426A 00 00 00 00 00 00 00 00 00 00 
       00004274 00 00 00 00 00 00 00 00 00 00 
       0000427E 00 00 00 00 00 00 00 00 00 00 
       00004288 00 00 00 00 00 00 00 00 00 00 
       00004292 00 00 00 00 00 00 00 00 00 00 
       0000429C 00 00 00 00 00 00 00 00 00 00 
       000042A6 00 00 00 00 00 00 00 00 00 00 
       000042B0 00 00 00 00 00 00 00 00 00 00 
       000042BA 00 00 00 00 00 00 00 00 00 00 
       000042C4 00 00 00 00 00 00 00 00 00 00 
       000042CE 00 00 00 00 00 00 00 00 00 00 
       000042D8 00 00 00 00 00 00 00 00 00 00 
       000042E2 00 00 00 00 00 00 00 00 00 00 
       000042EC 00 00 00 00 00 00 00 00 00 00 
       000042F6 00 00 00 00 00 00 00 00 00 00 
       00004300 00 00 00 00 00 00 00 00 00 00 
       0000430A 00 00 00 00 00 00 00 00 00 00 
       00004314 00 00 00 00 00 00 00 00 00 00 
       0000431E 00 00 00 00 00 00 00 00 00 00 
       00004328 00 00 00 00 00 00 00 00 00 00 
       00004332 00 00 00 00 00 00 00 00 00 00 
       0000433C 00 00 00 00 00 00 00 00 00 00 
       00004346 00 00 00 00 00 00 00 00 00 00 
       00004350 00 00 00 00 00 00 00 00 00 00 
       0000435A 00 00 00 00 00 00 00 00 00 00 
       00004364 00 00 00 00 00 00 00 00 00 00 
       0000436E 00 00 00 00 00 00 00 00 00 00 
       00004378 00 00 00 00 00 00 00 00 00 00 
       00004382 00 00 00 00 00 00 00 00 00 00 
       0000438C 00 00 00 00 00 00 00 00 00 00 
       00004396 00 00 00 00 00 00 00 00 00 00 
       000043A0 00 00 00 00 00 00 00 00 00 00 
       000043AA 00 00 00 00 00 00 00 00 00 00 
       000043B4 00 00 00 00 00 00 00 00 00 00 
       000043BE 00 00 00 00 00 00 00 00 00 00 
       000043C8 00 00 00 00 00 00 00 00 00 00 
       000043D2 00 00 00 00 00 00 00 00 00 00 
       000043DC 00 00 00 00 00 00 00 00 00 00 
       000043E6 00 00 00 00 00 00 00 00 00 00 
       000043F0 00 00 00 00 00 00 00 00 00 00 
       000043FA 00 00 00 00 00 00 00 00 00 00 
       00004404 00 00 00 00 00 00 00 00 00 00 
       0000440E 00 00 00 00 00 00 00 00 00 00 
       00004418 00 00 00 00 00 00 00 00 00 00 
       00004422 00 00 00 00 00 00 00 00 00 00 
       0000442C 00 00 00 00 00 00 00 00 00 00 
       00004436 00 00 00 00 00 00 00 00 00 00 
       00004440 00 00 00 00 00 00 00 00 00 00 
       0000444A 00 00 00 00 00 00 00 00 00 00 
       00004454 00 00 00 00 00 00 00 00 00 00 
       0000445E 00 00 00 00 00 00 00 00 00 00 
       00004468 00 00 00 00 00 00 00 00 00 00 
       00004472 00 00 00 00 00 00 00 00 00 00 
       0000447C 00 00 00 00 00 00 00 00 00 00 
       00004486 00 00 00 00 00 00 00 00 00 00 
       00004490 00 00 00 00 00 00 00 00 00 00 
       0000449A 00 00 00 00 00 00 00 00 00 00 
       000044A4 00 00 00 00 00 00 00 00 00 00 
       000044AE 00 00 00 00 00 00 00 00 00 00 
       000044B8 00 00 00 00 00 00 00 00 00 00 
       000044C2 00 00 00 00 00 00 00 00 00 00 
       000044CC 00 00 00 00 00 00 00 00 00 00 
       000044D6 00 00 00 00 00 00 00 00 00 00 
       000044E0 00 00 00 00 00 00 00 00 00 00 
       000044EA 00 00 00 00 00 00 00 00 00 00 
       000044F4 00 00 00 00 00 00 00 00 00 00 
       000044FE 00 00 00 00 00 00 00 00 00 00 
       00004508 00 00 00 00 00 00 00 00 00 00 
       00004512 00 00 00 00 00 00 00 00 00 00 
       0000451C 00 00 00 00 00 00 00 00 00 00 
       00004526 00 00 00 00 00 00 00 00 00 00 
       00004530 00 00 00 00 00 00 00 00 00 00 
       0000453A 00 00 00 00 00 00 00 00 00 00 
       00004544 00 00 00 00 00 00 00 00 00 00 
       0000454E 00 00 00 00 00 00 00 00 00 00 
       00004558 00 00 00 00 00 00 00 00 00 00 
       00004562 00 00 00 00 00 00 00 00 00 00 
       0000456C 00 00 00 00 00 00 00 00 00 00 
       00004576 00 00 00 00 00 00 00 00 00 00 
       00004580 00 00 00 00 00 00 00 00 00 00 
       0000458A 00 00 00 00 00 00 00 00 00 00 
       00004594 00 00 00 00 00 00 00 00 00 00 
       0000459E 00 00 00 00 00 00 00 00 00 00 
       000045A8 00 00 00 00 00 00 00 00 00 00 
       000045B2 00 00 00 00 00 00 00 00 00 00 
       000045BC 00 00 00 00 00 00 00 00 00 00 
       000045C6 00 00 00 00 00 00 00 00 00 00 
       000045D0 00 00 00 00 00 00 00 00 00 00 
       000045DA 00 00 00 00 00 00 00 00 00 00 
       000045E4 00 00 00 00 00 00 00 00 00 00 
       000045EE 00 00 00 00 00 00 00 00 00 00 
       000045F8 00 00 00 00 00 00 00 00 00 00 
       00004602 00 00 00 00 00 00 00 00 00 00 
       0000460C 00 00 00 00 00 00 00 00 00 00 
       00004616 00 00 00 00 00 00 00 00 00 00 
       00004620 00 00 00 00 00 00 00 00 00 00 
       0000462A 00 00 00 00 00 00 00 00 00 00 
       00004634 00 00 00 00 00 00 00 00 00 00 
       0000463E 00 00 00 00 00 00 00 00 00 00 
       00004648 00 00 00 00 00 00 00 00 00 00 
       00004652 00 00 00 00 00 00 00 00 00 00 
       0000465C 00 00 00 00 00 00 00 00 00 00 
       00004666 00 00 00 00 00 00 00 00 00 00 
       00004670 00 00 00 00 00 00 00 00 00 00 
       0000467A 00 00 00 00 00 00 00 00 00 00 
       00004684 00 00 00 00 00 00 00 00 00 00 
       0000468E 00 00 00 00 00 00 00 00 00 00 
       00004698 00 00 00 00 00 00 00 00 00 00 
       000046A2 00 00 00 00 00 00 00 00 00 00 
       000046AC 00 00 00 00 00 00 00 00 00 00 
       000046B6 00 00 00 00 00 00 00 00 00 00 
       000046C0 00 00 00 00 00 00 00 00 00 00 
       000046CA 00 00 00 00 00 00 00 00 00 00 
       000046D4 00 00 00 00 00 00 00 00 00 00 
       000046DE 00 00 00 00 00 00 00 00 00 00 
       000046E8 00 00 00 00 00 00 00 00 00 00 
       000046F2 00 00 00 00 00 00 00 00 00 00 
       000046FC 00 00 00 00 00 00 00 00 00 00 
       00004706 00 00 00 00 00 00 00 00 00 00 
       00004710 00 00 00 00 00 00 00 00 00 00 
       0000471A 00 00 00 00 00 00 00 00 00 00 
       00004724 00 00 00 00 00 00 00 00 00 00 
       0000472E 00 00 00 00 00 00 00 00 00 00 
       00004738 00 00 00 00 00 00 00 00 00 00 
       00004742 00 00 00 00 00 00 00 00 00 00 
       0000474C 00 00 00 00 00 00 00 00 00 00 
       00004756 00 00 00 00 00 00 00 00 00 00 
       00004760 00 00 00 00 00 00 00 00 00 00 
       0000476A 00 00 00 00 00 00 00 00 00 00 
       00004774 00 00 00 00 00 00 00 00 00 00 
       0000477E 00 00 00 00 00 00 00 00 00 00 
       00004788 00 00 00 00 00 00 00 00 00 00 
       00004792 00 00 00 00 00 00 00 00 00 00 
       0000479C 00 00 00 00 00 00 00 00 00 00 
       000047A6 00 00 00 00 00 00 00 00 00 00 
       000047B0 00 00 00 00 00 00 00 00 00 00 
       000047BA 00 00 00 00 00 00 00 00 00 00 
       000047C4 00 00 00 00 00 00 00 00 00 00 
       000047CE 00 00 00 00 00 00 00 00 00 00 
       000047D8 00 00 00 00 00 00 00 00 00 00 
       000047E2 00 00 00 00 00 00 00 00 00 00 
       000047EC 00 00 00 00 00 00 00 00 00 00 
       000047F6 00 00 00 00 00 00 00 00 00 00 
       00004800 00 00 00 00 00 00 00 00 00 00 
       0000480A 00 00 00 00 00 00 00 00 00 00 
       00004814 00 00 00 00 00 00 00 00 00 00 
       0000481E 00 00 00 00 00 00 00 00 00 00 
       00004828 00 00 00 00 00 00 00 00 00 00 
       00004832 00 00 00 00 00 00 00 00 00 00 
       0000483C 00 00 00 00 00 00 00 00 00 00 
       00004846 00 00 00 00 00 00 00 00 00 00 
       00004850 00 00 00 00 00 00 00 00 00 00 
       0000485A 00 00 00 00 00 00 00 00 00 00 
       00004864 00 00 00 00 00 00 00 00 00 00 
       0000486E 00 00 00 00 00 00 00 00 00 00 
       00004878 00 00 00 00 00 00 00 00 00 00 
       00004882 00 00 00 00 00 00 00 00 00 00 
       0000488C 00 00 00 00 00 00 00 00 00 00 
       00004896 00 00 00 00 00 00 00 00 00 00 
       000048A0 00 00 00 00 00 00 00 00 00 00 
       000048AA 00 00 00 00 00 00 00 00 00 00 
       000048B4 00 00 00 00 00 00 00 00 00 00 
       000048BE 00 00 00 00 00 00 00 00 00 00 
       000048C8 00 00 00 00 00 00 00 00 00 00 
       000048D2 00 00 00 00 00 00 00 00 00 00 
       000048DC 00 00 00 00 00 00 00 00 00 00 
       000048E6 00 00 00 00 00 00 00 00 00 00 
       000048F0 00 00 00 00 00 00 00 00 00 00 
       000048FA 00 00 00 00 00 00 00 00 00 00 
       00004904 00 00 00 00 00 00 00 00 00 00 
       0000490E 00 00 00 00 00 00 00 00 00 00 
       00004918 00 00 00 00 00 00 00 00 00 00 
       00004922 00 00 00 00 00 00 00 00 00 00 
       0000492C 00 00 00 00 00 00 00 00 00 00 
       00004936 00 00 00 00 00 00 00 00 00 00 
       00004940 00 00 00 00 00 00 00 00 00 00 
       0000494A 00 00 00 00 00 00 00 00 00 00 
       00004954 00 00 00 00 00 00 00 00 00 00 
       0000495E 00 00 00 00 00 00 00 00 00 00 
       00004968 00 00 00 00 00 00 00 00 00 00 
       00004972 00 00 00 00 00 00 00 00 00 00 
       0000497C 00 00 00 00 00 00 00 00 00 00 
       00004986 00 00 00 00 00 00 00 00 00 00 
       00004990 00 00 00 00 00 00 00 00 00 00 
       0000499A 00 00 00 00 00 00 00 00 00 00 
       000049A4 00 00 00 00 00 00 00 00 00 00 
       000049AE 00 00 00 00 00 00 00 00 00 00 
       000049B8 00 00 00 00 00 00 00 00 00 00 
       000049C2 00 00 00 00 00 00 00 00 00 00 
       000049CC 00 00 00 00 00 00 00 00 00 00 
       000049D6 00 00 00 00 00 00 00 00 00 00 
       000049E0 00 00 00 00 00 00 00 00 00 00 
       000049EA 00 00 00 00 00 00 00 00 00 00 
       000049F4 00 00 00 00 00 00 00 00 00 00 
       000049FE 00 00 00 00 00 00 00 00 00 00 
       00004A08 00 00 00 00 00 00 00 00 00 00 
       00004A12 00 00 00 00 00 00 00 00 00 00 
       00004A1C 00 00 00 00 00 00 00 00 00 00 
       00004A26 00 00 00 00 00 00 00 00 00 00 
       00004A30 00 00 00 00 00 00 00 00 00 00 
       00004A3A 00 00 00 00 00 00 00 00 00 00 
       00004A44 00 00 00 00 00 00 00 00 00 00 
       00004A4E 00 00 00 00 00 00 00 00 00 00 
       00004A58 00 00 00 00 00 00 00 00 00 00 
       00004A62 00 00 00 00 00 00 00 00 00 00 
       00004A6C 00 00 00 00 00 00 00 00 00 00 
       00004A76 00 00 00 00 00 00 00 00 00 00 
       00004A80 00 00 00 00 00 00 00 00 00 00 
       00004A8A 00 00 00 00 00 00 00 00 00 00 
       00004A94 00 00 00 00 00 00 00 00 00 00 
       00004A9E 00 00 00 00 00 00 00 00 00 00 
       00004AA8 00 00 00 00 00 00 00 00 00 00 
       00004AB2 00 00 00 00 00 00 00 00 00 00 
       00004ABC 00 00 00 00 00 00 00 00 00 00 
       00004AC6 00 00 00 00 00 00 00 00 00 00 
       00004AD0 00 00 00 00 00 00 00 00 00 00 
       00004ADA 00 00 00 00 00 00 00 00 00 00 
       00004AE4 00 00 00 00 00 00 00 00 00 00 
       00004AEE 00 00 00 00 00 00 00 00 00 00 
       00004AF8 00 00 00 00 00 00 00 00 00 00 
       00004B02 00 00 00 00 00 00 00 00 00 00 
       00004B0C 00 00 00 00 00 00 00 00 00 00 
       00004B16 00 00 00 00 00 00 00 00 00 00 
       00004B20 00 00 00 00 00 00 00 00 00 00 
       00004B2A 00 00 00 00 00 00 00 00 00 00 
       00004B34 00 00 00 00 00 00 00 00 00 00 
       00004B3E 00 00 00 00 00 00 00 00 00 00 
       00004B48 00 00 00 00 00 00 00 00 00 00 
       00004B52 00 00 00 00 00 00 00 00 00 00 
       00004B5C 00 00 00 00 00 00 00 00 00 00 
       00004B66 00 00 00 00 00 00 00 00 00 00 
       00004B70 00 00 00 00 00 00 00 00 00 00 
       00004B7A 00 00 00 00 00 00 00 00 00 00 
       00004B84 00 00 00 00 00 00 00 00 00 00 
       00004B8E 00 00 00 00 00 00 00 00 00 00 
       00004B98 00 00 00 00 00 00 00 00 00 00 
       00004BA2 00 00 00 00 00 00 00 00 00 00 
       00004BAC 00 00 00 00 00 00 00 00 00 00 
       00004BB6 00 00 00 00 00 00 00 00 00 00 
       00004BC0 00 00 00 00 00 00 00 00 00 00 
       00004BCA 00 00 00 00 00 00 00 00 00 00 
       00004BD4 00 00 00 00 00 00 00 00 00 00 
       00004BDE 00 00 00 00 00 00 00 00 00 00 
       00004BE8 00 00 00 00 00 00 00 00 00 00 
       00004BF2 00 00 00 00 00 00 00 00 00 00 
       00004BFC 00 00 00 00 00 00 00 00 00 00 
       00004C06 00 00 00 00 00 00 00 00 00 00 
       00004C10 00 00 00 00 00 00 00 00 00 00 
       00004C1A 00 00 00 00 00 00 00 00 00 00 
       00004C24 00 00 00 00 00 00 00 00 00 00 
       00004C2E 00 00 00 00 00 00 00 00 00 00 
       00004C38 00 00 00 00 00 00 00 00 00 00 
       00004C42 00 00 00 00 00 00 00 00 00 00 
       00004C4C 00 00 00 00 00 00 00 00 00 00 
       00004C56 00 00 00 00 00 00 00 00 00 00 
       00004C60 00 00 00 00 00 00 00 00 00 00 
       00004C6A 00 00 00 00 00 00 00 00 00 00 
       00004C74 00 00 00 00 00 00 00 00 00 00 
       00004C7E 00 00 00 00 00 00 00 00 00 00 
       00004C88 00 00 00 00 00 00 00 00 00 00 
       00004C92 00 00 00 00 00 00 00 00 00 00 
       00004C9C 00 00 00 00 00 00 00 00 00 00 
       00004CA6 00 00 00 00 00 00 00 00 00 00 
       00004CB0 00 00 00 00 00 00 00 00 00 00 
       00004CBA 00 00 00 00 00 00 00 00 00 00 
       00004CC4 00 00 00 00 00 00 00 00 00 00 
       00004CCE 00 00 00 00 00 00 00 00 00 00 
       00004CD8 00 00 00 00 00 00 00 00 00 00 
       00004CE2 00 00 00 00 00 00 00 00 00 00 
       00004CEC 00 00 00 00 00 00 00 00 00 00 
       00004CF6 00 00 00 00 00 00 00 00 00 00 
       00004D00 00 00 00 00 00 00 00 00 00 00 
       00004D0A 00 00 00 00 00 00 00 00 00 00 
       00004D14 00 00 00 00 00 00 00 00 00 00 
       00004D1E 00 00 00 00 00 00 00 00 00 00 
       00004D28 00 00 00 00 00 00 00 00 00 00 
       00004D32 00 00 00 00 00 00 00 00 00 00 
       00004D3C 00 00 00 00 00 00 00 00 00 00 
       00004D46 00 00 00 00 00 00 00 00 00 00 
       00004D50 00 00 00 00 00 00 00 00 00 00 
       00004D5A 00 00 00 00 00 00 00 00 00 00 
       00004D64 00 00 00 00 00 00 00 00 00 00 
       00004D6E 00 00 00 00 00 00 00 00 00 00 
       00004D78 00 00 00 00 00 00 00 00 00 00 
       00004D82 00 00 00 00 00 00 00 00 00 00 
       00004D8C 00 00 00 00 00 00 00 00 00 00 
       00004D96 00 00 00 00 00 00 00 00 00 00 
       00004DA0 00 00 00 00 00 00 00 00 00 00 
       00004DAA 00 00 00 00 00 00 00 00 00 00 
       00004DB4 00 00 00 00 00 00 00 00 00 00 
       00004DBE 00 00 00 00 00 00 00 00 00 00 
       00004DC8 00 00 00 00 00 00 00 00 00 00 
       00004DD2 00 00 00 00 00 00 00 00 00 00 
       00004DDC 00 00 00 00 00 00 00 00 00 00 
       00004DE6 00 00 00 00 00 00 00 00 00 00 
       00004DF0 00 00 00 00 00 00 00 00 00 00 
       00004DFA 00 00 00 00 00 00 00 00 00 00 
       00004E04 00 00 00 00 00 00 00 00 00 00 
       00004E0E 00 00 00 00 00 00 00 00 00 00 
       00004E18 00 00 00 00 00 00 00 00 00 00 
       00004E22 00 00 00 00 00 00 00 00 00 00 
       00004E2C 00 00 00 00 00 00 00 00 00 00 
       00004E36 00 00 00 00 00 00 00 00 00 00 
       00004E40 00 00 00 00 00 00 00 00 00 00 
       00004E4A 00 00 00 00 00 00 00 00 00 00 
       00004E54 00 00 00 00 00 00 00 00 00 00 
       00004E5E 00 00 00 00 00 00 00 00 00 00 
       00004E68 00 00 00 00 00 00 00 00 00 00 
       00004E72 00 00 00 00 00 00 00 00 00 00 
       00004E7C 00 00 00 00 00 00 00 00 00 00 
       00004E86 00 00 00 00 00 00 00 00 00 00 
       00004E90 00 00 00 00 00 00 00 00 00 00 
       00004E9A 00 00 00 00 00 00 00 00 00 00 
       00004EA4 00 00 00 00 00 00 00 00 00 00 
       00004EAE 00 00 00 00 00 00 00 00 00 00 
       00004EB8 00 00 00 00 00 00 00 00 00 00 
       00004EC2 00 00 00 00 00 00 00 00 00 00 
       00004ECC 00 00 00 00 00 00 00 00 00 00 
       00004ED6 00 00 00 00 00 00 00 00 00 00 
       00004EE0 00 00 00 00 00 00 00 00 00 00 
       00004EEA 00 00 00 00 00 00 00 00 00 00 
       00004EF4 00 00 00 00 00 00 00 00 00 00 
       00004EFE 00 00 00 00 00 00 00 00 00 00 
       00004F08 00 00 00 00 00 00 00 00 00 00 
       00004F12 00 00 00 00 00 00 00 00 00 00 
       00004F1C 00 00 00 00 00 00 00 00 00 00 
       00004F26 00 00 00 00 00 00 00 00 00 00 
       00004F30 00 00 00 00 00 00 00 00 00 00 
       00004F3A 00 00 00 00 00 00 00 00 00 00 
       00004F44 00 00 00 00 00 00 00 00 00 00 
       00004F4E 00 00 00 00 00 00 00 00 00 00 
       00004F58 00 00 00 00 00 00 00 00 00 00 
       00004F62 00 00 00 00 00 00 00 00 00 00 
       00004F6C 00 00 00 00 00 00 00 00 00 00 
       00004F76 00 00 00 00 00 00 00 00 00 00 
       00004F80 00 00 00 00 00 00 00 00 00 00 
       00004F8A 00 00 00 00 00 00 00 00 00 00 
       00004F94 00 00 00 00 00 00 00 00 00 00 
       00004F9E 00 00 00 00 00 00 00 00 00 00 
       00004FA8 00 00 00 00 00 00 00 00 00 00 
       00004FB2 00 00 00 00 00 00 00 00 00 00 
       00004FBC 00 00 00 00 00 00 00 00 00 00 
       00004FC6 00 00 00 00 00 00 00 00 00 00 
       00004FD0 00 00 00 00 00 00 00 00 00 00 
       00004FDA 00 00 00 00 00 00 00 00 00 00 
       00004FE4 00 00 00 00 00 00 00 00 00 00 
       00004FEE 00 00 00 00 00 00 00 00 00 00 
       00004FF8 00 00 00 00 00 00 00 00 00 00 
       00005002 00 00 00 00 00 00 00 00 00 00 
       0000500C 00 00 00 00 00 00 00 00 00 00 
       00005016 00 00 00 00 00 00 00 00 00 00 
       00005020 00 00 00 00 00 00 00 00 00 00 
       0000502A 00 00 00 00 00 00 00 00 00 00 
       00005034 00 00 00 00 00 00 00 00 00 00 
       0000503E 00 00 00 00 00 00 00 00 00 00 
       00005048 00 00 00 00 00 00 00 00 00 00 
       00005052 00 00 00 00 00 00 00 00 00 00 
       0000505C 00 00 00 00 00 00 00 00 00 00 
       00005066 00 00 00 00 00 00 00 00 00 00 
       00005070 00 00 00 00 00 00 00 00 00 00 
       0000507A 00 00 00 00 00 00 00 00 00 00 
       00005084 00 00 00 00 00 00 00 00 00 00 
       0000508E 00 00 00 00 00 00 00 00 00 00 
       00005098 00 00 00 00 00 00 00 00 00 00 
       000050A2 00 00 00 00 00 00 00 00 00 00 
       000050AC 00 00 00 00 00 00 00 00 00 00 
       000050B6 00 00 00 00 00 00 00 00 00 00 
       000050C0 00 00 00 00 00 00 00 00 00 00 
       000050CA 00 00 00 00 00 00 00 00 00 00 
       000050D4 00 00 00 00 00 00 00 00 00 00 
       000050DE 00 00 00 00 00 00 00 00 00 00 
       000050E8 00 00 00 00 00 00 00 00 00 00 
       000050F2 00 00 00 00 00 00 00 00 00 00 
       000050FC 00 00 00 00 00 00 00 00 00 00 
       00005106 00 00 00 00 00 00 00 00 00 00 
       00005110 00 00 00 00 00 00 00 00 00 00 
       0000511A 00 00 00 00 00 00 00 00 00 00 
       00005124 00 00 00 00 00 00 00 00 00 00 
       0000512E 00 00 00 00 00 00 00 00 00 00 
       00005138 00 00 00 00 00 00 00 00 00 00 
       00005142 00 00 00 00 00 00 00 00 00 00 
       0000514C 00 00 00 00 00 00 00 00 00 00 
       00005156 00 00 00 00 00 00 00 00 00 00 
       00005160 00 00 00 00 00 00 00 00 00 00 
       0000516A 00 00 00 00 00 00 00 00 00 00 
       00005174 00 00 00 00 00 00 00 00 00 00 
       0000517E 00 00 00 00 00 00 00 00 00 00 
       00005188 00 00 00 00 00 00 00 00 00 00 
       00005192 00 00 00 00 00 00 00 00 00 00 
       0000519C 00 00 00 00 00 00 00 00 00 00 
       000051A6 00 00 00 00 00 00 00 00 00 00 
       000051B0 00 00 00 00 00 00 00 00 00 00 
       000051BA 00 00 00 00 00 00 00 00 00 00 
       000051C4 00 00 00 00 00 00 00 00 00 00 
       000051CE 00 00 00 00 00 00 00 00 00 00 
       000051D8 00 00 00 00 00 00 00 00 00 00 
       000051E2 00 00 00 00 00 00 00 00 00 00 
       000051EC 00 00 00 00 00 00 00 00 00 00 
       000051F6 00 00 00 00 00 00 00 00 00 00 
       00005200 00 00 00 00 00 00 00 00 00 00 
       0000520A 00 00 00 00 00 00 00 00 00 00 
       00005214 00 00 00 00 00 00 00 00 00 00 
       0000521E 00 00 00 00 00 00 00 00 00 00 
       00005228 00 00 00 00 00 00 00 00 00 00 
       00005232 00 00 00 00 00 00 00 00 00 00 
       0000523C 00 00 00 00 00 00 00 00 00 00 
       00005246 00 00 00 00 00 00 00 00 00 00 
       00005250 00 00 00 00 00 00 00 00 00 00 
       0000525A 00 00 00 00 00 00 00 00 00 00 
       00005264 00 00 00 00 00 00 00 00 00 00 
       0000526E 00 00 00 00 00 00 00 00 00 00 
       00005278 00 00 00 00 00 00 00 00 00 00 
       00005282 00 00 00 00 00 00 00 00 00 00 
       0000528C 00 00 00 00 00 00 00 00 00 00 
       00005296 00 00 00 00 00 00 00 00 00 00 
       000052A0 00 00 00 00 00 00 00 00 00 00 
       000052AA 00 00 00 00 00 00 00 00 00 00 
       000052B4 00 00 00 00 00 00 00 00 00 00 
       000052BE 00 00 00 00 00 00 00 00 00 00 
       000052C8 00 00 00 00 00 00 00 00 00 00 
       000052D2 00 00 00 00 00 00 00 00 00 00 
       000052DC 00 00 00 00 00 00 00 00 00 00 
       000052E6 00 00 00 00 00 00 00 00 00 00 
       000052F0 00 00 00 00 00 00 00 00 00 00 
       000052FA 00 00 00 00 00 00 00 00 00 00 
       00005304 00 00 00 00 00 00 00 00 00 00 
       0000530E 00 00 00 00 00 00 00 00 00 00 
       00005318 00 00 00 00 00 00 00 00 00 00 
       00005322 00 00 00 00 00 00 00 00 00 00 
       0000532C 00 00 00 00 00 00 00 00 00 00 
       00005336 00 00 00 00 00 00 00 00 00 00 
       00005340 00 00 00 00 00 00 00 00 00 00 
       0000534A 00 00 00 00 00 00 00 00 00 00 
       00005354 00 00 00 00 00 00 00 00 00 00 
       0000535E 00 00 00 00 00 00 00 00 00 00 
       00005368 00 00 00 00 00 00 00 00 00 00 
       00005372 00 00 00 00 00 00 00 00 00 00 
       0000537C 00 00 00 00 00 00 00 00 00 00 
       00005386 00 00 00 00 00 00 00 00 00 00 
       00005390 00 00 00 00 00 00 00 00 00 00 
       0000539A 00 00 00 00 00 00 00 00 00 00 
       000053A4 00 00 00 00 00 00 00 00 00 00 
       000053AE 00 00 00 00 00 00 00 00 00 00 
       000053B8 00 00 00 00 00 00 00 00 00 00 
       000053C2 00 00 00 00 00 00 00 00 00 00 
       000053CC 00 00 00 00 00 00 00 00 00 00 
       000053D6 00 00 00 00 00 00 00 00 00 00 
       000053E0 00 00 00 00 00 00 00 00 00 00 
       000053EA 00 00 00 00 00 00 00 00 00 00 
       000053F4 00 00 00 00 00 00 00 00 00 00 
       000053FE 00 00 00 00 00 00 00 00 00 00 
       00005408 00 00 00 00 00 00 00 00 00 00 
       00005412 00 00 00 00 00 00 00 00 00 00 
       0000541C 00 00 00 00 00 00 00 00 00 00 
       00005426 00 00 00 00 00 00 00 00 00 00 
       00005430 00 00 00 00 00 00 00 00 00 00 
       0000543A 00 00 00 00 00 00 00 00 00 00 
       00005444 00 00 00 00 00 00 00 00 00 00 
       0000544E 00 00 00 00 00 00 00 00 00 00 
       00005458 00 00 00 00 00 00 00 00 00 00 
       00005462 00 00 00 00 00 00 00 00 00 00 
       0000546C 00 00 00 00 00 00 00 00 00 00 
       00005476 00 00 00 00 00 00 00 00 00 00 
       00005480 00 00 00 00 00 00 00 00 00 00 
       0000548A 00 00 00 00 00 00 00 00 00 00 
       00005494 00 00 00 00 00 00 00 00 00 00 
       0000549E 00 00 00 00 00 00 00 00 00 00 
       000054A8 00 00 00 00 00 00 00 00 00 00 
       000054B2 00 00 00 00 00 00 00 00 00 00 
       000054BC 00 00 00 00 00 00 00 00 00 00 
       000054C6 00 00 00 00 00 00 00 00 00 00 
       000054D0 00 00 00 00 00 00 00 00 00 00 
       000054DA 00 00 00 00 00 00 00 00 00 00 
       000054E4 00 00 00 00 00 00 00 00 00 00 
       000054EE 00 00 00 00 00 00 00 00 00 00 
       000054F8 00 00 00 00 00 00 00 00 00 00 
       00005502 00 00 00 00 00 00 00 00 00 00 
       0000550C 00 00 00 00 00 00 00 00 00 00 
       00005516 00 00 00 00 00 00 00 00 00 00 
       00005520 00 00 00 00 00 00 00 00 00 00 
       0000552A 00 00 00 00 00 00 00 00 00 00 
       00005534 00 00 00 00 00 00 00 00 00 00 
       0000553E 00 00 00 00 00 00 00 00 00 00 
       00005548 00 00 00 00 00 00 00 00 00 00 
       00005552 00 00 00 00 00 00 00 00 00 00 
       0000555C 00 00 00 00 00 00 00 00 00 00 
       00005566 00 00 00 00 00 00 00 00 00 00 
       00005570 00 00 00 00 00 00 00 00 00 00 
       0000557A 00 00 00 00 00 00 00 00 00 00 
       00005584 00 00 00 00 00 00 00 00 00 00 
       0000558E 00 00 00 00 00 00 00 00 00 00 
       00005598 00 00 00 00 00 00 00 00 00 00 
       000055A2 00 00 00 00 00 00 00 00 00 00 
       000055AC 00 00 00 00 00 00 00 00 00 00 
       000055B6 00 00 00 00 00 00 00 00 00 00 
       000055C0 00 00 00 00 00 00 00 00 00 00 
       000055CA 00 00 00 00 00 00 00 00 00 00 
       000055D4 00 00 00 00 00 00 00 00 00 00 
       000055DE 00 00 00 00 00 00 00 00 00 00 
       000055E8 00 00 00 00 00 00 00 00 00 00 
       000055F2 00 00 00 00 00 00 00 00 00 00 
       000055FC 00 00 00 00 00 00 00 00 00 00 
       00005606 00 00 00 00 00 00 00 00 00 00 
       00005610 00 00 00 00 00 00 00 00 00 00 
       0000561A 00 00 00 00 00 00 00 00 00 00 
       00005624 00 00 00 00 00 00 00 00 00 00 
       0000562E 00 00 00 00 00 00 00 00 00 00 
       00005638 00 00 00 00 00 00 00 00 00 00 
       00005642 00 00 00 00 00 00 00 00 00 00 
       0000564C 00 00 00 00 00 00 00 00 00 00 
       00005656 00 00 00 00 00 00 00 00 00 00 
       00005660 00 00 00 00 00 00 00 00 00 00 
       0000566A 00 00 00 00 00 00 00 00 00 00 
       00005674 00 00 00 00 00 00 00 00 00 00 
       0000567E 00 00 00 00 00 00 00 00 00 00 
       00005688 00 00 00 00 00 00 00 00 00 00 
       00005692 00 00 00 00 00 00 00 00 00 00 
       0000569C 00 00 00 00 00 00 00 00 00 00 
       000056A6 00 00 00 00 00 00 00 00 00 00 
       000056B0 00 00 00 00 00 00 00 00 00 00 
       000056BA 00 00 00 00 00 00 00 00 00 00 
       000056C4 00 00 00 00 00 00 00 00 00 00 
       000056CE 00 00 00 00 00 00 00 00 00 00 
       000056D8 00 00 00 00 00 00 00 00 00 00 
       000056E2 00 00 00 00 00 00 00 00 00 00 
       000056EC 00 00 00 00 00 00 00 00 00 00 
       000056F6 00 00 00 00 00 00 00 00 00 00 
       00005700 00 00 00 00 00 00 00 00 00 00 
       0000570A 00 00 00 00 00 00 00 00 00 00 
       00005714 00 00 00 00 00 00 00 00 00 00 
       0000571E 00 00 00 00 00 00 00 00 00 00 
       00005728 00 00 00 00 00 00 00 00 00 00 
       00005732 00 00 00 00 00 00 00 00 00 00 
       0000573C 00 00 00 00 00 00 00 00 00 00 
       00005746 00 00 00 00 00 00 00 00 00 00 
       00005750 00 00 00 00 00 00 00 00 00 00 
       0000575A 00 00 00 00 00 00 00 00 00 00 
       00005764 00 00 00 00 00 00 00 00 00 00 
       0000576E 00 00 00 00 00 00 00 00 00 00 
       00005778 00 00 00 00 00 00 00 00 00 00 
       00005782 00 00 00 00 00 00 00 00 00 00 
       0000578C 00 00 00 00 00 00 00 00 00 00 
       00005796 00 00 00 00 00 00 00 00 00 00 
       000057A0 00 00 00 00 00 00 00 00 00 00 
       000057AA 00 00 00 00 00 00 00 00 00 00 
       000057B4 00 00 00 00 00 00 00 00 00 00 
       000057BE 00 00 00 00 00 00 00 00 00 00 
       000057C8 00 00 00 00 00 00 00 00 00 00 
       000057D2 00 00 00 00 00 00 00 00 00 00 
       000057DC 00 00 00 00 00 00 00 00 00 00 
       000057E6 00 00 00 00 00 00 00 00 00 00 
       000057F0 00 00 00 00 00 00 00 00 00 00 
       000057FA 00 00 00 00 00 00 00 00 00 00 
       00005804 00 00 00 00 00 00 00 00 00 00 
       0000580E 00 00 00 00 00 00 00 00 00 00 
       00005818 00 00 00 00 00 00 00 00 00 00 
       00005822 00 00 00 00 00 00 00 00 00 00 
       0000582C 00 00 00 00 00 00 00 00 00 00 
       00005836 00 00 00 00 00 00 00 00 00 00 
       00005840 00 00 00 00 00 00 00 00 00 00 
       0000584A 00 00 00 00 00 00 00 00 00 00 
       00005854 00 00 00 00 00 00 00 00 00 00 
       0000585E 00 00 00 00 00 00 00 00 00 00 
       00005868 00 00 00 00 00 00 00 00 00 00 
       00005872 00 00 00 00 00 00 00 00 00 00 
       0000587C 00 00 00 00 00 00 00 00 00 00 
       00005886 00 00 00 00 00 00 00 00 00 00 
       00005890 00 00 00 00 00 00 00 00 00 00 
       0000589A 00 00 00 00 00 00 00 00 00 00 
       000058A4 00 00 00 00 00 00 00 00 00 00 
       000058AE 00 00 00 00 00 00 00 00 00 00 
       000058B8 00 00 00 00 00 00 00 00 00 00 
       000058C2 00 00 00 00 00 00 00 00 00 00 
       000058CC 00 00 00 00 00 00 00 00 00 00 
       000058D6 00 00 00 00 00 00 00 00 00 00 
       000058E0 00 00 00 00 00 00 00 00 00 00 
       000058EA 00 00 00 00 00 00 00 00 00 00 
       000058F4 00 00 00 00 00 00 00 00 00 00 
       000058FE 00 00 00 00 00 00 00 00 00 00 
       00005908 00 00 00 00 00 00 00 00 00 00 
       00005912 00 00 00 00 00 00 00 00 00 00 
       0000591C 00 00 00 00 00 00 00 00 00 00 
       00005926 00 00 00 00 00 00 00 00 00 00 
       00005930 00 00 00 00 00 00 00 00 00 00 
       0000593A 00 00 00 00 00 00 00 00 00 00 
       00005944 00 00 00 00 00 00 00 00 00 00 
       0000594E 00 00 00 00 00 00 00 00 00 00 
       00005958 00 00 00 00 00 00 00 00 00 00 
       00005962 00 00 00 00 00 00 00 00 00 00 
       0000596C 00 00 00 00 00 00 00 00 00 00 
       00005976 00 00 00 00 00 00 00 00 00 00 
       00005980 00 00 00 00 00 00 00 00 00 00 
       0000598A 00 00 00 00 00 00 00 00 00 00 
       00005994 00 00 00 00 00 00 00 00 00 00 
       0000599E 00 00 00 00 00 00 00 00 00 00 
       000059A8 00 00 00 00 00 00 00 00 00 00 
       000059B2 00 00 00 00 00 00 00 00 00 00 
       000059BC 00 00 00 00 00 00 00 00 00 00 
       000059C6 00 00 00 00 00 00 00 00 00 00 
       000059D0 00 00 00 00 00 00 00 00 00 00 
       000059DA 00 00 00 00 00 00 00 00 00 00 
       000059E4 00 00 00 00 00 00 00 00 00 00 
       000059EE 00 00 00 00 00 00 00 00 00 00 
       000059F8 00 00 00 00 00 00 00 00 00 00 
       00005A02 00 00 00 00 00 00 00 00 00 00 
       00005A0C 00 00 00 00 00 00 00 00 00 00 
       00005A16 00 00 00 00 00 00 00 00 00 00 
       00005A20 00 00 00 00 00 00 00 00 00 00 
       00005A2A 00 00 00 00 00 00 00 00 00 00 
       00005A34 00 00 00 00 00 00 00 00 00 00 
       00005A3E 00 00 00 00 00 00 00 00 00 00 
       00005A48 00 00 00 00 00 00 00 00 00 00 
       00005A52 00 00 00 00 00 00 00 00 00 00 
       00005A5C 00 00 00 00 00 00 00 00 00 00 
       00005A66 00 00 00 00 00 00 00 00 00 00 
       00005A70 00 00 00 00 00 00 00 00 00 00 
       00005A7A 00 00 00 00 00 00 00 00 00 00 
       00005A84 00 00 00 00 00 00 00 00 00 00 
       00005A8E 00 00 00 00 00 00 00 00 00 00 
       00005A98 00 00 00 00 00 00 00 00 00 00 
       00005AA2 00 00 00 00 00 00 00 00 00 00 
       00005AAC 00 00 00 00 00 00 00 00 00 00 
       00005AB6 00 00 00 00 00 00 00 00 00 00 
       00005AC0 00 00 00 00 00 00 00 00 00 00 
       00005ACA 00 00 00 00 00 00 00 00 00 00 
       00005AD4 00 00 00 00 00 00 00 00 00 00 
       00005ADE 00 00 00 00 00 00 00 00 00 00 
       00005AE8 00 00 00 00 00 00 00 00 00 00 
       00005AF2 00 00 00 00 00 00 00 00 00 00 
       00005AFC 00 00 00 00 00 00 00 00 00 00 
       00005B06 00 00 00 00 00 00 00 00 00 00 
       00005B10 00 00 00 00 00 00 00 00 00 00 
       00005B1A 00 00 00 00 00 00 00 00 00 00 
       00005B24 00 00 00 00 00 00 00 00 00 00 
       00005B2E 00 00 00 00 00 00 00 00 00 00 
       00005B38 00 00 00 00 00 00 00 00 00 00 
       00005B42 00 00 00 00 00 00 00 00 00 00 
       00005B4C 00 00 00 00 00 00 00 00 00 00 
       00005B56 00 00 00 00 00 00 00 00 00 00 
       00005B60 00 00 00 00 00 00 00 00 00 00 
       00005B6A 00 00 00 00 00 00 00 00 00 00 
       00005B74 00 00 00 00 00 00 00 00 00 00 
       00005B7E 00 00 00 00 00 00 00 00 00 00 
       00005B88 00 00 00 00 00 00 00 00 00 00 
       00005B92 00 00 00 00 00 00 00 00 00 00 
       00005B9C 00 00 00 00 00 00 00 00 00 00 
       00005BA6 00 00 00 00 00 00 00 00 00 00 
       00005BB0 00 00 00 00 00 00 00 00 00 00 
       00005BBA 00 00 00 00 00 00 00 00 00 00 
       00005BC4 00 00 00 00 00 00 00 00 00 00 
       00005BCE 00 00 00 00 00 00 00 00 00 00 
       00005BD8 00 00 00 00 00 00 00 00 00 00 
       00005BE2 00 00 00 00 00 00 00 00 00 00 
       00005BEC 00 00 00 00 00 00 00 00 00 00 
       00005BF6 00 00 00 00 00 00 00 00 00 00 
       00005C00 00 00 00 00 00 00 00 00 00 00 
       00005C0A 00 00 00 00 00 00 00 00 00 00 
       00005C14 00 00 00 00 00 00 00 00 00 00 
       00005C1E 00 00 00 00 00 00 00 00 00 00 
       00005C28 00 00 00 00 00 00 00 00 00 00 
       00005C32 00 00 00 00 00 00 00 00 00 00 
       00005C3C 00 00 00 00 00 00 00 00 00 00 
       00005C46 00 00 00 00 00 00 00 00 00 00 
       00005C50 00 00 00 00 00 00 00 00 00 00 
       00005C5A 00 00 00 00 00 00 00 00 00 00 
       00005C64 00 00 00 00 00 00 00 00 00 00 
       00005C6E 00 00 00 00 00 00 00 00 00 00 
       00005C78 00 00 00 00 00 00 00 00 00 00 
       00005C82 00 00 00 00 00 00 00 00 00 00 
       00005C8C 00 00 00 00 00 00 00 00 00 00 
       00005C96 00 00 00 00 00 00 00 00 00 00 
       00005CA0 00 00 00 00 00 00 00 00 00 00 
       00005CAA 00 00 00 00 00 00 00 00 00 00 
       00005CB4 00 00 00 00 00 00 00 00 00 00 
       00005CBE 00 00 00 00 00 00 00 00 00 00 
       00005CC8 00 00 00 00 00 00 00 00 00 00 
       00005CD2 00 00 00 00 00 00 00 00 00 00 
       00005CDC 00 00 00 00 00 00 00 00 00 00 
       00005CE6 00 00 00 00 00 00 00 00 00 00 
       00005CF0 00 00 00 00 00 00 00 00 00 00 
       00005CFA 00 00 00 00 00 00 00 00 00 00 
       00005D04 00 00 00 00 00 00 00 00 00 00 
       00005D0E 00 00 00 00 00 00 00 00 00 00 
       00005D18 00 00 00 00 00 00 00 00 00 00 
       00005D22 00 00 00 00 00 00 00 00 00 00 
       00005D2C 00 00 00 00 00 00 00 00 00 00 
       00005D36 00 00 00 00 00 00 00 00 00 00 
       00005D40 00 00 00 00 00 00 00 00 00 00 
       00005D4A 00 00 00 00 00 00 00 00 00 00 
       00005D54 00 00 00 00 00 00 00 00 00 00 
       00005D5E 00 00 00 00 00 00 00 00 00 00 
       00005D68 00 00 00 00 00 00 00 00 00 00 
       00005D72 00 00 00 00 00 00 00 00 00 00 
       00005D7C 00 00 00 00 00 00 00 00 00 00 
       00005D86 00 00 00 00 00 00 00 00 00 00 
       00005D90 00 00 00 00 00 00 00 00 00 00 
       00005D9A 00 00 00 00 00 00 00 00 00 00 
       00005DA4 00 00 00 00 00 00 00 00 00 00 
       00005DAE 00 00 00 00 00 00 00 00 00 00 
       00005DB8 00 00 00 00 00 00 00 00 00 00 
       00005DC2 00 00 00 00 00 00 00 00 00 00 
       00005DCC 00 00 00 00 00 00 00 00 00 00 
       00005DD6 00 00 00 00 00 00 00 00 00 00 
       00005DE0 00 00 00 00 00 00 00 00 00 00 
       00005DEA 00 00 00 00 00 00 00 00 00 00 
       00005DF4 00 00 00 00 00 00 00 00 00 00 
       00005DFE 00 00 00 00 00 00 00 00 00 00 
       00005E08 00 00 00 00 00 00 00 00 00 00 
       00005E12 00 00 00 00 00 00 00 00 00 00 
       00005E1C 00 00 00 00 00 00 00 00 00 00 
       00005E26 00 00 00 00 00 00 00 00 00 00 
       00005E30 00 00 00 00 00 00 00 00 00 00 
       00005E3A 00 00 00 00 00 00 00 00 00 00 
       00005E44 00 00 00 00 00 00 00 00 00 00 
       00005E4E 00 00 00 00 00 00 00 00 00 00 
       00005E58 00 00 00 00 00 00 00 00 00 00 
       00005E62 00 00 00 00 00 00 00 00 00 00 
       00005E6C 00 00 00 00 00 00 00 00 00 00 
       00005E76 00 00 00 00 00 00 00 00 00 00 
       00005E80 00 00 00 00 00 00 00 00 00 00 
       00005E8A 00 00 00 00 00 00 00 00 00 00 
       00005E94 00 00 00 00 00 00 00 00 00 00 
       00005E9E 00 00 00 00 00 00 00 00 00 00 
       00005EA8 00 00 00 00 00 00 00 00 00 00 
       00005EB2 00 00 00 00 00 00 00 00 00 00 
       00005EBC 00 00 00 00 00 00 00 00 00 00 
       00005EC6 00 00 00 00 00 00 00 00 00 00 
       00005ED0 00 00 00 00 00 00 00 00 00 00 
       00005EDA 00 00 00 00 00 00 00 00 00 00 
       00005EE4 00 00 00 00 00 00 00 00 00 00 
       00005EEE 00 00 00 00 00 00 00 00 00 00 
       00005EF8 00 00 00 00 00 00 00 00 00 00 
       00005F02 00 00 00 00 00 00 00 00 00 00 
       00005F0C 00 00 00 00 00 00 00 00 00 00 
       00005F16 00 00 00 00 00 00 00 00 00 00 
       00005F20 00 00 00 00 00 00 00 00 00 00 
       00005F2A 00 00 00 00 00 00 00 00 00 00 
       00005F34 00 00 00 00 00 00 00 00 00 00 
       00005F3E 00 00 00 00 00 00 00 00 00 00 
       00005F48 00 00 00 00 00 00 00 00 00 00 
       00005F52 00 00 00 00 00 00 00 00 00 00 
       00005F5C 00 00 00 00 00 00 00 00 00 00 
       00005F66 00 00 00 00 00 00 00 00 00 00 
       00005F70 00 00 00 00 00 00 00 00 00 00 
       00005F7A 00 00 00 00 00 00 00 00 00 00 
       00005F84 00 00 00 00 00 00 00 00 00 00 
       00005F8E 00 00 00 00 00 00 00 00 00 00 
       00005F98 00 00 00 00 00 00 00 00 00 00 
       00005FA2 00 00 00 00 00 00 00 00 00 00 
       00005FAC 00 00 00 00 00 00 00 00 00 00 
       00005FB6 00 00 00 00 00 00 00 00 00 00 
       00005FC0 00 00 00 00 00 00 00 00 00 00 
       00005FCA 00 00 00 00 00 00 00 00 00 00 
       00005FD4 00 00 00 00 00 00 00 00 00 00 
       00005FDE 00 00 00 00 00 00 00 00 00 00 
       00005FE8 00 00 00 00 00 00 00 00 00 00 
       00005FF2 00 00 00 00 00 00 00 00 00 00 
       00005FFC 00 00 00 00 00 00 00 00 00 00 
       00006006 00 00 00 00 00 00 00 00 00 00 
       00006010 00 00 00 00 00 00 00 00 00 00 
       0000601A 00 00 00 00 00 00 00 00 00 00 
       00006024 00 00 00 00 00 00 00 00 00 00 
       0000602E 00 00 00 00 00 00 00 00 00 00 
       00006038 00 00 00 00 00 00 00 00 00 00 
       00006042 00 00 00 00 00 00 00 00 00 00 
       0000604C 00 00 00 00 00 00 00 00 00 00 
       00006056 00 00 00 00 00 00 00 00 00 00 
       00006060 00 00 00 00 00 00 00 00 00 00 
       0000606A 00 00 00 00 00 00 00 00 00 00 
       00006074 00 00 00 00 00 00 00 00 00 00 
       0000607E 00 00 00 00 00 00 00 00 00 00 
       00006088 00 00 00 00 00 00 00 00 00 00 
       00006092 00 00 00 00 00 00 00 00 00 00 
       0000609C 00 00 00 00 00 00 00 00 00 00 
       000060A6 00 00 00 00 00 00 00 00 00 00 
       000060B0 00 00 00 00 00 00 00 00 00 00 
       000060BA 00 00 00 00 00 00 00 00 00 00 
       000060C4 00 00 00 00 00 00 00 00 00 00 
       000060CE 00 00 00 00 00 00 00 00 00 00 
       000060D8 00 00 00 00 00 00 00 00 00 00 
       000060E2 00 00 00 00 00 00 00 00 00 00 
       000060EC 00 00 00 00 00 00 00 00 00 00 
       000060F6 00 00 00 00 00 00 00 00 00 00 
       00006100 00 00 00 00 00 00 00 00 00 00 
       0000610A 00 00 00 00 00 00 00 00 00 00 
       00006114 00 00 00 00 00 00 00 00 00 00 
       0000611E 00 00 00 00 00 00 00 00 00 00 
       00006128 00 00 00 00 00 00 00 00 00 00 
       00006132 00 00 00 00 00 00 00 00 00 00 
       0000613C 00 00 00 00 00 00 00 00 00 00 
       00006146 00 00 00 00 00 00 00 00 00 00 
       00006150 00 00 00 00 00 00 00 00 00 00 
       0000615A 00 00 00 00 00 00 00 00 00 00 
       00006164 00 00 00 00 00 00 00 00 00 00 
       0000616E 00 00 00 00 00 00 00 00 00 00 
       00006178 00 00 00 00 00 00 00 00 00 00 
       00006182 00 00 00 00 00 00 00 00 00 00 
       0000618C 00 00 00 00 00 00 00 00 00 00 
       00006196 00 00 00 00 00 00 00 00 00 00 
       000061A0 00 00 00 00 00 00 00 00 00 00 
       000061AA 00 00 00 00 00 00 00 00 00 00 
       000061B4 00 00 00 00 00 00 00 00 00 00 
       000061BE 00 00 00 00 00 00 00 00 00 00 
       000061C8 00 00 00 00 00 00 00 00 00 00 
       000061D2 00 00 00 00 00 00 00 00 00 00 
       000061DC 00 00 00 00 00 00 00 00 00 00 
       000061E6 00 00 00 00 00 00 00 00 00 00 
       000061F0 00 00 00 00 00 00 00 00 00 00 
       000061FA 00 00 00 00 00 00 00 00 00 00 
       00006204 00 00 00 00 00 00 00 00 00 00 
       0000620E 00 00 00 00 00 00 00 00 00 00 
       00006218 00 00 00 00 00 00 00 00 00 00 
       00006222 00 00 00 00 00 00 00 00 00 00 
       0000622C 00 00 00 00 00 00 00 00 00 00 
       00006236 00 00 00 00 00 00 00 00 00 00 
       00006240 00 00 00 00 00 00 00 00 00 00 
       0000624A 00 00 00 00 00 00 00 00 00 00 
       00006254 00 00 00 00 00 00 00 00 00 00 
       0000625E 00 00 00 00 00 00 00 00 00 00 
       00006268 00 00 00 00 00 00 00 00 00 00 
       00006272 00 00 00 00 00 00 00 00 00 00 
       0000627C 00 00 00 00 00 00 00 00 00 00 
       00006286 00 00 00 00 00 00 00 00 00 00 
       00006290 00 00 00 00 00 00 00 00 00 00 
       0000629A 00 00 00 00 00 00 00 00 00 00 
       000062A4 00 00 00 00 00 00 00 00 00 00 
       000062AE 00 00 00 00 00 00 00 00 00 00 
       000062B8 00 00 00 00 00 00 00 00 00 00 
       000062C2 00 00 00 00 00 00 00 00 00 00 
       000062CC 00 00 00 00 00 00 00 00 00 00 
       000062D6 00 00 00 00 00 00 00 00 00 00 
       000062E0 00 00 00 00 00 00 00 00 00 00 
       000062EA 00 00 00 00 00 00 00 00 00 00 
       000062F4 00 00 00 00 00 00 00 00 00 00 
       000062FE 00 00 00 00 00 00 00 00 00 00 
       00006308 00 00 00 00 00 00 00 00 00 00 
       00006312 00 00 00 00 00 00 00 00 00 00 
       0000631C 00 00 00 00 00 00 00 00 00 00 
       00006326 00 00 00 00 00 00 00 00 00 00 
       00006330 00 00 00 00 00 00 00 00 00 00 
       0000633A 00 00 00 00 00 00 00 00 00 00 
       00006344 00 00 00 00 00 00 00 00 00 00 
       0000634E 00 00 00 00 00 00 00 00 00 00 
       00006358 00 00 00 00 00 00 00 00 00 00 
       00006362 00 00 00 00 00 00 00 00 00 00 
       0000636C 00 00 00 00 00 00 00 00 00 00 
       00006376 00 00 00 00 00 00 00 00 00 00 
       00006380 00 00 00 00 00 00 00 00 00 00 
       0000638A 00 00 00 00 00 00 00 00 00 00 
       00006394 00 00 00 00 00 00 00 00 00 00 
       0000639E 00 00 00 00 00 00 00 00 00 00 
       000063A8 00 00 00 00 00 00 00 00 00 00 
       000063B2 00 00 00 00 00 00 00 00 00 00 
       000063BC 00 00 00 00 00 00 00 00 00 00 
       000063C6 00 00 00 00 00 00 00 00 00 00 
       000063D0 00 00 00 00 00 00 00 00 00 00 
       000063DA 00 00 00 00 00 00 00 00 00 00 
       000063E4 00 00 00 00 00 00 00 00 00 00 
       000063EE 00 00 00 00 00 00 00 00 00 00 
       000063F8 00 00 00 00 00 00 00 00 00 00 
       00006402 00 00 00 00 00 00 00 00 00 00 
       0000640C 00 00 00 00 00 00 00 00 00 00 
       00006416 00 00 00 00 00 00 00 00 00 00 
       00006420 00 00 00 00 00 00 00 00 00 00 
       0000642A 00 00 00 00 00 00 00 00 00 00 
       00006434 00 00 00 00 00 00 00 00 00 00 
       0000643E 00 00 00 00 00 00 00 00 00 00 
       00006448 00 00 00 00 00 00 00 00 00 00 
       00006452 00 00 00 00 00 00 00 00 00 00 
       0000645C 00 00 00 00 00 00 00 00 00 00 
       00006466 00 00 00 00 00 00 00 00 00 00 
       00006470 00 00 00 00 00 00 00 00 00 00 
       0000647A 00 00 00 00 00 00 00 00 00 00 
       00006484 00 00 00 00 00 00 00 00 00 00 
       0000648E 00 00 00 00 00 00 00 00 00 00 
       00006498 00 00 00 00 00 00 00 00 00 00 
       000064A2 00 00 00 00 00 00 00 00 00 00 
       000064AC 00 00 00 00 00 00 00 00 00 00 
       000064B6 00 00 00 00 00 00 00 00 00 00 
       000064C0 00 00 00 00 00 00 00 00 00 00 
       000064CA 00 00 00 00 00 00 00 00 00 00 
       000064D4 00 00 00 00 00 00 00 00 00 00 
       000064DE 00 00 00 00 00 00 00 00 00 00 
       000064E8 00 00 00 00 00 00 00 00 00 00 
       000064F2 00 00 00 00 00 00 00 00 00 00 
       000064FC 00 00 00 00 00 00 00 00 00 00 
       00006506 00 00 00 00 00 00 00 00 00 00 
       00006510 00 00 00 00 00 00 00 00 00 00 
       0000651A 00 00 00 00 00 00 00 00 00 00 
       00006524 00 00 00 00 00 00 00 00 00 00 
       0000652E 00 00 00 00 00 00 00 00 00 00 
       00006538 00 00 00 00 00 00 00 00 00 00 
       00006542 00 00 00 00 00 00 00 00 00 00 
       0000654C 00 00 00 00 00 00 00 00 00 00 
       00006556 00 00 00 00 00 00 00 00 00 00 
       00006560 00 00 00 00 00 00 00 00 00 00 
       0000656A 00 00 00 00 00 00 00 00 00 00 
       00006574 00 00 00 00 00 00 00 00 00 00 
       0000657E 00 00 00 00 00 00 00 00 00 00 
       00006588 00 00 00 00 00 00 00 00 00 00 
       00006592 00 00 00 00 00 00 00 00 00 00 
       0000659C 00 00 00 00 00 00 00 00 00 00 
       000065A6 00 00 00 00 00 00 00 00 00 00 
       000065B0 00 00 00 00 00 00 00 00 00 00 
       000065BA 00 00 00 00 00 00 00 00 00 00 
       000065C4 00 00 00 00 00 00 00 00 00 00 
       000065CE 00 00 00 00 00 00 00 00 00 00 
       000065D8 00 00 00 00 00 00 00 00 00 00 
       000065E2 00 00 00 00 00 00 00 00 00 00 
       000065EC 00 00 00 00 00 00 00 00 00 00 
       000065F6 00 00 00 00 00 00 00 00 00 00 
       00006600 00 00 00 00 00 00 00 00 00 00 
       0000660A 00 00 00 00 00 00 00 00 00 00 
       00006614 00 00 00 00 00 00 00 00 00 00 
       0000661E 00 00 00 00 00 00 00 00 00 00 
       00006628 00 00 00 00 00 00 00 00 00 00 
       00006632 00 00 00 00 00 00 00 00 00 00 
       0000663C 00 00 00 00 00 00 00 00 00 00 
       00006646 00 00 00 00 00 00 00 00 00 00 
       00006650 00 00 00 00 00 00 00 00 00 00 
       0000665A 00 00 00 00 00 00 00 00 00 00 
       00006664 00 00 00 00 00 00 00 00 00 00 
       0000666E 00 00 00 00 00 00 00 00 00 00 
       00006678 00 00 00 00 00 00 00 00 00 00 
       00006682 00 00 00 00 00 00 00 00 00 00 
       0000668C 00 00 00 00 00 00 00 00 00 00 
       00006696 00 00 00 00 00 00 00 00 00 00 
       000066A0 00 00 00 00 00 00 00 00 00 00 
       000066AA 00 00 00 00 00 00 00 00 00 00 
       000066B4 00 00 00 00 00 00 00 00 00 00 
       000066BE 00 00 00 00 00 00 00 00 00 00 
       000066C8 00 00 00 00 00 00 00 00 00 00 
       000066D2 00 00 00 00 00 00 00 00 00 00 
       000066DC 00 00 00 00 00 00 00 00 00 00 
       000066E6 00 00 00 00 00 00 00 00 00 00 
       000066F0 00 00 00 00 00 00 00 00 00 00 
       000066FA 00 00 00 00 00 00 00 00 00 00 
       00006704 00 00 00 00 00 00 00 00 00 00 
       0000670E 00 00 00 00 00 00 00 00 00 00 
       00006718 00 00 00 00 00 00 00 00 00 00 
       00006722 00 00 00 00 00 00 00 00 00 00 
       0000672C 00 00 00 00 00 00 00 00 00 00 
       00006736 00 00 00 00 00 00 00 00 00 00 
       00006740 00 00 00 00 00 00 00 00 00 00 
       0000674A 00 00 00 00 00 00 00 00 00 00 
       00006754 00 00 00 00 00 00 00 00 00 00 
       0000675E 00 00 00 00 00 00 00 00 00 00 
       00006768 00 00 00 00 00 00 00 00 00 00 
       00006772 00 00 00 00 00 00 00 00 00 00 
       0000677C 00 00 00 00 00 00 00 00 00 00 
       00006786 00 00 00 00 00 00 00 00 00 00 
       00006790 00 00 00 00 00 00 00 00 00 00 
       0000679A 00 00 00 00 00 00 00 00 00 00 
       000067A4 00 00 00 00 00 00 00 00 00 00 
       000067AE 00 00 00 00 00 00 00 00 00 00 
       000067B8 00 00 00 00 00 00 00 00 00 00 
       000067C2 00 00 00 00 00 00 00 00 00 00 
       000067CC 00 00 00 00 00 00 00 00 00 00 
       000067D6 00 00 00 00 00 00 00 00 00 00 
       000067E0 00 00 00 00 00 00 00 00 00 00 
       000067EA 00 00 00 00 00 00 00 00 00 00 
       000067F4 00 00 00 00 00 00 00 00 00 00 
       000067FE 00 00 00 00 00 00 00 00 00 00 
       00006808 00 00 00 00 00 00 00 00 00 00 
       00006812 00 00 00 00 00 00 00 00 00 00 
       0000681C 00 00 00 00 00 00 00 00 00 00 
       00006826 00 00 00 00 00 00 00 00 00 00 
       00006830 00 00 00 00 00 00 00 00 00 00 
       0000683A 00 00 00 00 00 00 00 00 00 00 
       00006844 00 00 00 00 00 00 00 00 00 00 
       0000684E 00 00 00 00 00 00 00 00 00 00 
       00006858 00 00 00 00 00 00 00 00 00 00 
       00006862 00 00 00 00 00 00 00 00 00 00 
       0000686C 00 00 00 00 00 00 00 00 00 00 
       00006876 00 00 00 00 00 00 00 00 00 00 
       00006880 00 00 00 00 00 00 00 00 00 00 
       0000688A 00 00 00 00 00 00 00 00 00 00 
       00006894 00 00 00 00 00 00 00 00 00 00 
       0000689E 00 00 00 00 00 00 00 00 00 00 
       000068A8 00 00 00 00 00 00 00 00 00 00 
       000068B2 00 00 00 00 00 00 00 00 00 00 
       000068BC 00 00 00 00 00 00 00 00 00 00 
       000068C6 00 00 00 00 00 00 00 00 00 00 
       000068D0 00 00 00 00 00 00 00 00 00 00 
       000068DA 00 00 00 00 00 00 00 00 00 00 
       000068E4 00 00 00 00 00 00 00 00 00 00 
       000068EE 00 00 00 00 00 00 00 00 00 00 
       000068F8 00 00 00 00 00 00 00 00 00 00 
       00006902 00 00 00 00 00 00 00 00 00 00 
       0000690C 00 00 00 00 00 00 00 00 00 00 
       00006916 00 00 00 00 00 00 00 00 00 00 
       00006920 00 00 00 00 00 00 00 00 00 00 
       0000692A 00 00 00 00 00 00 00 00 00 00 
       00006934 00 00 00 00 00 00 00 00 00 00 
       0000693E 00 00 00 00 00 00 00 00 00 00 
       00006948 00 00 00 00 00 00 00 00 00 00 
       00006952 00 00 00 00 00 00 00 00 00 00 
       0000695C 00 00 00 00 00 00 00 00 00 00 
       00006966 00 00 00 00 00 00 00 00 00 00 
       00006970 00 00 00 00 00 00 00 00 00 00 
       0000697A 00 00 00 00 00 00 00 00 00 00 
       00006984 00 00 00 00 00 00 00 00 00 00 
       0000698E 00 00 00 00 00 00 00 00 00 00 
       00006998 00 00 00 00 00 00 00 00 00 00 
       000069A2 00 00 00 00 00 00 00 00 00 00 
       000069AC 00 00 00 00 00 00 00 00 00 00 
       000069B6 00 00 00 00 00 00 00 00 00 00 
       000069C0 00 00 00 00 00 00 00 00 00 00 
       000069CA 00 00 00 00 00 00 00 00 00 00 
       000069D4 00 00 00 00 00 00 00 00 00 00 
       000069DE 00 00 00 00 00 00 00 00 00 00 
       000069E8 00 00 00 00 00 00 00 00 00 00 
       000069F2 00 00 00 00 00 00 00 00 00 00 
       000069FC 00 00 00 00 00 00 00 00 00 00 
       00006A06 00 00 00 00 00 00 00 00 00 00 
       00006A10 00 00 00 00 00 00 00 00 00 00 
       00006A1A 00 00 00 00 00 00 00 00 00 00 
       00006A24 00 00 00 00 00 00 00 00 00 00 
       00006A2E 00 00 00 00 00 00 00 00 00 00 
       00006A38 00 00 00 00 00 00 00 00 00 00 
       00006A42 00 00 00 00 00 00 00 00 00 00 
       00006A4C 00 00 00 00 00 00 00 00 00 00 
       00006A56 00 00 00 00 00 00 00 00 00 00 
       00006A60 00 00 00 00 00 00 00 00 00 00 
       00006A6A 00 00 00 00 00 00 00 00 00 00 
       00006A74 00 00 00 00 00 00 00 00 00 00 
       00006A7E 00 00 00 00 00 00 00 00 00 00 
       00006A88 00 00 00 00 00 00 00 00 00 00 
       00006A92 00 00 00 00 00 00 00 00 00 00 
       00006A9C 00 00 00 00 00 00 00 00 00 00 
       00006AA6 00 00 00 00 00 00 00 00 00 00 
       00006AB0 00 00 00 00 00 00 00 00 00 00 
       00006ABA 00 00 00 00 00 00 00 00 00 00 
       00006AC4 00 00 00 00 00 00 00 00 00 00 
       00006ACE 00 00 00 00 00 00 00 00 00 00 
       00006AD8 00 00 00 00 00 00 00 00 00 00 
       00006AE2 00 00 00 00 00 00 00 00 00 00 
       00006AEC 00 00 00 00 00 00 00 00 00 00 
       00006AF6 00 00 00 00 00 00 00 00 00 00 
       00006B00 00 00 00 00 00 00 00 00 00 00 
       00006B0A 00 00 00 00 00 00 00 00 00 00 
       00006B14 00 00 00 00 00 00 00 00 00 00 
       00006B1E 00 00 00 00 00 00 00 00 00 00 
       00006B28 00 00 00 00 00 00 00 00 00 00 
       00006B32 00 00 00 00 00 00 00 00 00 00 
       00006B3C 00 00 00 00 00 00 00 00 00 00 
       00006B46 00 00 00 00 00 00 00 00 00 00 
       00006B50 00 00 00 00 00 00 00 00 00 00 
       00006B5A 00 00 00 00 00 00 00 00 00 00 
       00006B64 00 00 00 00 00 00 00 00 00 00 
       00006B6E 00 00 00 00 00 00 00 00 00 00 
       00006B78 00 00 00 00 00 00 00 00 00 00 
       00006B82 00 00 00 00 00 00 00 00 00 00 
       00006B8C 00 00 00 00 00 00 00 00 00 00 
       00006B96 00 00 00 00 00 00 00 00 00 00 
       00006BA0 00 00 00 00 00 00 00 00 00 00 
       00006BAA 00 00 00 00 00 00 00 00 00 00 
       00006BB4 00 00 00 00 00 00 00 00 00 00 
       00006BBE 00 00 00 00 00 00 00 00 00 00 
       00006BC8 00 00 00 00 00 00 00 00 00 00 
       00006BD2 00 00 00 00 00 00 00 00 00 00 
       00006BDC 00 00 00 00 00 00 00 00 00 00 
       00006BE6 00 00 00 00 00 00 00 00 00 00 
       00006BF0 00 00 00 00 00 00 00 00 00 00 
       00006BFA 00 00 00 00 00 00 00 00 00 00 
       00006C04 00 00 00 00 00 00 00 00 00 00 
       00006C0E 00 00 00 00 00 00 00 00 00 00 
       00006C18 00 00 00 00 00 00 00 00 00 00 
       00006C22 00 00 00 00 00 00 00 00 00 00 
       00006C2C 00 00 00 00 00 00 00 00 00 00 
       00006C36 00 00 00 00 00 00 00 00 00 00 
       00006C40 00 00 00 00 00 00 00 00 00 00 
       00006C4A 00 00 00 00 00 00 00 00 00 00 
       00006C54 00 00 00 00 00 00 00 00 00 00 
       00006C5E 00 00 00 00 00 00 00 00 00 00 
       00006C68 00 00 00 00 00 00 00 00 00 00 
       00006C72 00 00 00 00 00 00 00 00 00 00 
       00006C7C 00 00 00 00 00 00 00 00 00 00 
       00006C86 00 00 00 00 00 00 00 00 00 00 
       00006C90 00 00 00 00 00 00 00 00 00 00 
       00006C9A 00 00 00 00 00 00 00 00 00 00 
       00006CA4 00 00 00 00 00 00 00 00 00 00 
       00006CAE 00 00 00 00 00 00 00 00 00 00 
       00006CB8 00 00 00 00 00 00 00 00 00 00 
       00006CC2 00 00 00 00 00 00 00 00 00 00 
       00006CCC 00 00 00 00 00 00 00 00 00 00 
       00006CD6 00 00 00 00 00 00 00 00 00 00 
       00006CE0 00 00 00 00 00 00 00 00 00 00 
       00006CEA 00 00 00 00 00 00 00 00 00 00 
       00006CF4 00 00 00 00 00 00 00 00 00 00 
       00006CFE 00 00 00 00 00 00 00 00 00 00 
       00006D08 00 00 00 00 00 00 00 00 00 00 
       00006D12 00 00 00 00 00 00 00 00 00 00 
       00006D1C 00 00 00 00 00 00 00 00 00 00 
       00006D26 00 00 00 00 00 00 00 00 00 00 
       00006D30 00 00 00 00 00 00 00 00 00 00 
       00006D3A 00 00 00 00 00 00 00 00 00 00 
       00006D44 00 00 00 00 00 00 00 00 00 00 
       00006D4E 00 00 00 00 00 00 00 00 00 00 
       00006D58 00 00 00 00 00 00 00 00 00 00 
       00006D62 00 00 00 00 00 00 00 00 00 00 
       00006D6C 00 00 00 00 00 00 00 00 00 00 
       00006D76 00 00 00 00 00 00 00 00 00 00 
       00006D80 00 00 00 00 00 00 00 00 00 00 
       00006D8A 00 00 00 00 00 00 00 00 00 00 
       00006D94 00 00 00 00 00 00 00 00 00 00 
       00006D9E 00 00 00 00 00 00 00 00 00 00 
       00006DA8 00 00 00 00 00 00 00 00 00 00 
       00006DB2 00 00 00 00 00 00 00 00 00 00 
       00006DBC 00 00 00 00 00 00 00 00 00 00 
       00006DC6 00 00 00 00 00 00 00 00 00 00 
       00006DD0 00 00 00 00 00 00 00 00 00 00 
       00006DDA 00 00 00 00 00 00 00 00 00 00 
       00006DE4 00 00 00 00 00 00 00 00 00 00 
       00006DEE 00 00 00 00 00 00 00 00 00 00 
       00006DF8 00 00 00 00 00 00 00 00 00 00 
       00006E02 00 00 00 00 00 00 00 00 00 00 
       00006E0C 00 00 00 00 00 00 00 00 00 00 
       00006E16 00 00 00 00 00 00 00 00 00 00 
       00006E20 00 00 00 00 00 00 00 00 00 00 
       00006E2A 00 00 00 00 00 00 00 00 00 00 
       00006E34 00 00 00 00 00 00 00 00 00 00 
       00006E3E 00 00 00 00 00 00 00 00 00 00 
       00006E48 00 00 00 00 00 00 00 00 00 00 
       00006E52 00 00 00 00 00 00 00 00 00 00 
       00006E5C 00 00 00 00 00 00 00 00 00 00 
       00006E66 00 00 00 00 00 00 00 00 00 00 
       00006E70 00 00 00 00 00 00 00 00 00 00 
       00006E7A 00 00 00 00 00 00 00 00 00 00 
       00006E84 00 00 00 00 00 00 00 00 00 00 
       00006E8E 00 00 00 00 00 00 00 00 00 00 
       00006E98 00 00 00 00 00 00 00 00 00 00 
       00006EA2 00 00 00 00 00 00 00 00 00 00 
       00006EAC 00 00 00 00 00 00 00 00 00 00 
       00006EB6 00 00 00 00 00 00 00 00 00 00 
       00006EC0 00 00 00 00 00 00 00 00 00 00 
       00006ECA 00 00 00 00 00 00 00 00 00 00 
       00006ED4 00 00 00 00 00 00 00 00 00 00 
       00006EDE 00 00 00 00 00 00 00 00 00 00 
       00006EE8 00 00 00 00 00 00 00 00 00 00 
       00006EF2 00 00 00 00 00 00 00 00 00 00 
       00006EFC 00 00 00 00 00 00 00 00 00 00 
       00006F06 00 00 00 00 00 00 00 00 00 00 
       00006F10 00 00 00 00 00 00 00 00 00 00 
       00006F1A 00 00 00 00 00 00 00 00 00 00 
       00006F24 00 00 00 00 00 00 00 00 00 00 
       00006F2E 00 00 00 00 00 00 00 00 00 00 
       00006F38 00 00 00 00 00 00 00 00 00 00 
       00006F42 00 00 00 00 00 00 00 00 00 00 
       00006F4C 00 00 00 00 00 00 00 00 00 00 
       00006F56 00 00 00 00 00 00 00 00 00 00 
       00006F60 00 00 00 00 00 00 00 00 00 00 
       00006F6A 00 00 00 00 00 00 00 00 00 00 
       00006F74 00 00 00 00 00 00 00 00 00 00 
       00006F7E 00 00 00 00 00 00 00 00 00 00 
       00006F88 00 00 00 00 00 00 00 00 00 00 
       00006F92 00 00 00 00 00 00 00 00 00 00 
       00006F9C 00 00 00 00 00 00 00 00 00 00 
       00006FA6 00 00 00 00 00 00 00 00 00 00 
       00006FB0 00 00 00 00 00 00 00 00 00 00 
       00006FBA 00 00 00 00 00 00 00 00 00 00 
       00006FC4 00 00 00 00 00 00 00 00 00 00 
       00006FCE 00 00 00 00 00 00 00 00 00 00 
       00006FD8 00 00 00 00 00 00 00 00 00 00 
       00006FE2 00 00 00 00 00 00 00 00 00 00 
       00006FEC 00 00 00 00 00 00 00 00 00 00 
       00006FF6 00 00 00 00 00 00 00 00 00 00 
       00007000 00 00 00 00 00 00 00 00 00 00 
       0000700A 00 00 00 00 00 00 00 00 00 00 
       00007014 00 00 00 00 00 00 00 00 00 00 
       0000701E 00 00 00 00 00 00 00 00 00 00 
       00007028 00 00 00 00 00 00 00 00 00 00 
       00007032 00 00 00 00 00 00 00 00 00 00 
       0000703C 00 00 00 00 00 00 00 00 00 00 
       00007046 00 00 00 00 00 00 00 00 00 00 
       00007050 00 00 00 00 00 00 00 00 00 00 
       0000705A 00 00 00 00 00 00 00 00 00 00 
       00007064 00 00 00 00 00 00 00 00 00 00 
       0000706E 00 00 00 00 00 00 00 00 00 00 
       00007078 00 00 00 00 00 00 00 00 00 00 
       00007082 00 00 00 00 00 00 00 00 00 00 
       0000708C 00 00 00 00 00 00 00 00 00 00 
       00007096 00 00 00 00 00 00 00 00 00 00 
       000070A0 00 00 00 00 00 00 00 00 00 00 
       000070AA 00 00 00 00 00 00 00 00 00 00 
       000070B4 00 00 00 00 00 00 00 00 00 00 
       000070BE 00 00 00 00 00 00 00 00 00 00 
       000070C8 00 00 00 00 00 00 00 00 00 00 
       000070D2 00 00 00 00 00 00 00 00 00 00 
       000070DC 00 00 00 00 00 00 00 00 00 00 
       000070E6 00 00 00 00 00 00 00 00 00 00 
       000070F0 00 00 00 00 00 00 00 00 00 00 
       000070FA 00 00 00 00 00 00 00 00 00 00 
       00007104 00 00 00 00 00 00 00 00 00 00 
       0000710E 00 00 00 00 00 00 00 00 00 00 
       00007118 00 00 00 00 00 00 00 00 00 00 
       00007122 00 00 00 00 00 00 00 00 00 00 
       0000712C 00 00 00 00 00 00 00 00 00 00 
       00007136 00 00 00 00 00 00 00 00 00 00 
       00007140 00 00 00 00 00 00 00 00 00 00 
       0000714A 00 00 00 00 00 00 00 00 00 00 
       00007154 00 00 00 00 00 00 00 00 00 00 
       0000715E 00 00 00 00 00 00 00 00 00 00 
       00007168 00 00 00 00 00 00 00 00 00 00 
       00007172 00 00 00 00 00 00 00 00 00 00 
       0000717C 00 00 00 00 00 00 00 00 00 00 
       00007186 00 00 00 00 00 00 00 00 00 00 
       00007190 00 00 00 00 00 00 00 00 00 00 
       0000719A 00 00 00 00 00 00 00 00 00 00 
       000071A4 00 00 00 00 00 00 00 00 00 00 
       000071AE 00 00 00 00 00 00 00 00 00 00 
       000071B8 00 00 00 00 00 00 00 00 00 00 
       000071C2 00 00 00 00 00 00 00 00 00 00 
       000071CC 00 00 00 00 00 00 00 00 00 00 
       000071D6 00 00 00 00 00 00 00 00 00 00 
       000071E0 00 00 00 00 00 00 00 00 00 00 
       000071EA 00 00 00 00 00 00 00 00 00 00 
       000071F4 00 00 00 00 00 00 00 00 00 00 
       000071FE 00 00 00 00 00 00 00 00 00 00 
       00007208 00 00 00 00 00 00 00 00 00 00 
       00007212 00 00 00 00 00 00 00 00 00 00 
       0000721C 00 00 00 00 00 00 00 00 00 00 
       00007226 00 00 00 00 00 00 00 00 00 00 
       00007230 00 00 00 00 00 00 00 00 00 00 
       0000723A 00 00 00 00 00 00 00 00 00 00 
       00007244 00 00 00 00 00 00 00 00 00 00 
       0000724E 00 00 00 00 00 00 00 00 00 00 
       00007258 00 00 00 00 00 00 00 00 00 00 
       00007262 00 00 00 00 00 00 00 00 00 00 
       0000726C 00 00 00 00 00 00 00 00 00 00 
       00007276 00 00 00 00 00 00 00 00 00 00 
       00007280 00 00 00 00 00 00 00 00 00 00 
       0000728A 00 00 00 00 00 00 00 00 00 00 
       00007294 00 00 00 00 00 00 00 00 00 00 
       0000729E 00 00 00 00 00 00 00 00 00 00 
       000072A8 00 00 00 00 00 00 00 00 00 00 
       000072B2 00 00 00 00 00 00 00 00 00 00 
       000072BC 00 00 00 00 00 00 00 00 00 00 
       000072C6 00 00 00 00 00 00 00 00 00 00 
       000072D0 00 00 00 00 00 00 00 00 00 00 
       000072DA 00 00 00 00 00 00 00 00 00 00 
       000072E4 00 00 00 00 00 00 00 00 00 00 
       000072EE 00 00 00 00 00 00 00 00 00 00 
       000072F8 00 00 00 00 00 00 00 00 00 00 
       00007302 00 00 00 00 00 00 00 00 00 00 
       0000730C 00 00 00 00 00 00 00 00 00 00 
       00007316 00 00 00 00 00 00 00 00 00 00 
       00007320 00 00 00 00 00 00 00 00 00 00 
       0000732A 00 00 00 00 00 00 00 00 00 00 
       00007334 00 00 00 00 00 00 00 00 00 00 
       0000733E 00 00 00 00 00 00 00 00 00 00 
       00007348 00 00 00 00 00 00 00 00 00 00 
       00007352 00 00 00 00 00 00 00 00 00 00 
       0000735C 00 00 00 00 00 00 00 00 00 00 
       00007366 00 00 00 00 00 00 00 00 00 00 
       00007370 00 00 00 00 00 00 00 00 00 00 
       0000737A 00 00 00 00 00 00 00 00 00 00 
       00007384 00 00 00 00 00 00 00 00 00 00 
       0000738E 00 00 00 00 00 00 00 00 00 00 
       00007398 00 00 00 00 00 00 00 00 00 00 
       000073A2 00 00 00 00 00 00 00 00 00 00 
       000073AC 00 00 00 00 00 00 00 00 00 00 
       000073B6 00 00 00 00 00 00 00 00 00 00 
       000073C0 00 00 00 00 00 00 00 00 00 00 
       000073CA 00 00 00 00 00 00 00 00 00 00 
       000073D4 00 00 00 00 00 00 00 00 00 00 
       000073DE 00 00 00 00 00 00 00 00 00 00 
       000073E8 00 00 00 00 00 00 00 00 00 00 
       000073F2 00 00 00 00 00 00 00 00 00 00 
       000073FC 00 00 00 00 00 00 00 00 00 00 
       00007406 00 00 00 00 00 00 00 00 00 00 
       00007410 00 00 00 00 00 00 00 00 00 00 
       0000741A 00 00 00 00 00 00 00 00 00 00 
       00007424 00 00 00 00 00 00 00 00 00 00 
       0000742E 00 00 00 00 00 00 00 00 00 00 
       00007438 00 00 00 00 00 00 00 00 00 00 
       00007442 00 00 00 00 00 00 00 00 00 00 
       0000744C 00 00 00 00 00 00 00 00 00 00 
       00007456 00 00 00 00 00 00 00 00 00 00 
       00007460 00 00 00 00 00 00 00 00 00 00 
       0000746A 00 00 00 00 00 00 00 00 00 00 
       00007474 00 00 00 00 00 00 00 00 00 00 
       0000747E 00 00 00 00 00 00 00 00 00 00 
       00007488 00 00 00 00 00 00 00 00 00 00 
       00007492 00 00 00 00 00 00 00 00 00 00 
       0000749C 00 00 00 00 00 00 00 00 00 00 
       000074A6 00 00 00 00 00 00 00 00 00 00 
       000074B0 00 00 00 00 00 00 00 00 00 00 
       000074BA 00 00 00 00 00 00 00 00 00 00 
       000074C4 00 00 00 00 00 00 00 00 00 00 
       000074CE 00 00 00 00 00 00 00 00 00 00 
       000074D8 00 00 00 00 00 00 00 00 00 00 
       000074E2 00 00 00 00 00 00 00 00 00 00 
       000074EC 00 00 00 00 00 00 00 00 00 00 
       000074F6 00 00 00 00 00 00 00 00 00 00 
       00007500 00 00 00 00 00 00 00 00 00 00 
       0000750A 00 00 00 00 00 00 00 00 00 00 
       00007514 00 00 00 00 00 00 00 00 00 00 
       0000751E 00 00 00 00 00 00 00 00 00 00 
       00007528 00 00 00 00 00 00 00 00 00 00 
       00007532 00 00 00 00 00 00 00 00 00 00 
       0000753C 00 00 00 00 00 00 00 00 00 00 
       00007546 00 00 00 00 00 00 00 00 00 00 
       00007550 00 00 00 00 00 00 00 00 00 00 
       0000755A 00 00 00 00 00 00 00 00 00 00 
       00007564 00 00 00 00 00 00 00 00 00 00 
       0000756E 00 00 00 00 00 00 00 00 00 00 
       00007578 00 00 00 00 00 00 00 00 00 00 
       00007582 00 00 00 00 00 00 00 00 00 00 
       0000758C 00 00 00 00 00 00 00 00 00 00 
       00007596 00 00 00 00 00 00 00 00 00 00 
       000075A0 00 00 00 00 00 00 00 00 00 00 
       000075AA 00 00 00 00 00 00 00 00 00 00 
       000075B4 00 00 00 00 00 00 00 00 00 00 
       000075BE 00 00 00 00 00 00 00 00 00 00 
       000075C8 00 00 00 00 00 00 00 00 00 00 
       000075D2 00 00 00 00 00 00 00 00 00 00 
       000075DC 00 00 00 00 00 00 00 00 00 00 
       000075E6 00 00 00 00 00 00 00 00 00 00 
       000075F0 00 00 00 00 00 00 00 00 00 00 
       000075FA 00 00 00 00 00 00 00 00 00 00 
       00007604 00 00 00 00 00 00 00 00 00 00 
       0000760E 00 00 00 00 00 00 00 00 00 00 
       00007618 00 00 00 00 00 00 00 00 00 00 
       00007622 00 00 00 00 00 00 00 00 00 00 
       0000762C 00 00 00 00 00 00 00 00 00 00 
       00007636 00 00 00 00 00 00 00 00 00 00 
       00007640 00 00 00 00 00 00 00 00 00 00 
       0000764A 00 00 00 00 00 00 00 00 00 00 
       00007654 00 00 00 00 00 00 00 00 00 00 
       0000765E 00 00 00 00 00 00 00 00 00 00 
       00007668 00 00 00 00 00 00 00 00 00 00 
       00007672 00 00 00 00 00 00 00 00 00 00 
       0000767C 00 00 00 00 00 00 00 00 00 00 
       00007686 00 00 00 00 00 00 00 00 00 00 
       00007690 00 00 00 00 00 00 00 00 00 00 
       0000769A 00 00 00 00 00 00 00 00 00 00 
       000076A4 00 00 00 00 00 00 00 00 00 00 
       000076AE 00 00 00 00 00 00 00 00 00 00 
       000076B8 00 00 00 00 00 00 00 00 00 00 
       000076C2 00 00 00 00 00 00 00 00 00 00 
       000076CC 00 00 00 00 00 00 00 00 00 00 
       000076D6 00 00 00 00 00 00 00 00 00 00 
       000076E0 00 00 00 00 00 00 00 00 00 00 
       000076EA 00 00 00 00 00 00 00 00 00 00 
       000076F4 00 00 00 00 00 00 00 00 00 00 
       000076FE 00 00 00 00 00 00 00 00 00 00 
       00007708 00 00 00 00 00 00 00 00 00 00 
       00007712 00 00 00 00 00 00 00 00 00 00 
       0000771C 00 00 00 00 00 00 00 00 00 00 
       00007726 00 00 00 00 00 00 00 00 00 00 
       00007730 00 00 00 00 00 00 00 00 00 00 
       0000773A 00 00 00 00 00 00 00 00 00 00 
       00007744 00 00 00 00 00 00 00 00 00 00 
       0000774E 00 00 00 00 00 00 00 00 00 00 
       00007758 00 00 00 00 00 00 00 00 00 00 
       00007762 00 00 00 00 00 00 00 00 00 00 
       0000776C 00 00 00 00 00 00 00 00 00 00 
       00007776 00 00 00 00 00 00 00 00 00 00 
       00007780 00 00 00 00 00 00 00 00 00 00 
       0000778A 00 00 00 00 00 00 00 00 00 00 
       00007794 00 00 00 00 00 00 00 00 00 00 
       0000779E 00 00 00 00 00 00 00 00 00 00 
       000077A8 00 00 00 00 00 00 00 00 00 00 
       000077B2 00 00 00 00 00 00 00 00 00 00 
       000077BC 00 00 00 00 00 00 00 00 00 00 
       000077C6 00 00 00 00 00 00 00 00 00 00 
       000077D0 00 00 00 00 00 00 00 00 00 00 
       000077DA 00 00 00 00 00 00 00 00 00 00 
       000077E4 00 00 00 00 00 00 00 00 00 00 
       000077EE 00 00 00 00 00 00 00 00 00 00 
       000077F8 00 00 00 00 00 00 00 00 00 00 
       00007802 00 00 00 00 00 00 00 00 00 00 
       0000780C 00 00 00 00 00 00 00 00 00 00 
       00007816 00 00 00 00 00 00 00 00 00 00 
       00007820 00 00 00 00 00 00 00 00 00 00 
       0000782A 00 00 00 00 00 00 00 00 00 00 
       00007834 00 00 00 00 00 00 00 00 00 00 
       0000783E 00 00 00 00 00 00 00 00 00 00 
       00007848 00 00 00 00 00 00 00 00 00 00 
       00007852 00 00 00 00 00 00 00 00 00 00 
       0000785C 00 00 00 00 00 00 00 00 00 00 
       00007866 00 00 00 00 00 00 00 00 00 00 
       00007870 00 00 00 00 00 00 00 00 00 00 
       0000787A 00 00 00 00 00 00 00 00 00 00 
       00007884 00 00 00 00 00 00 00 00 00 00 
       0000788E 00 00 00 00 00 00 00 00 00 00 
       00007898 00 00 00 00 00 00 00 00 00 00 
       000078A2 00 00 00 00 00 00 00 00 00 00 
       000078AC 00 00 00 00 00 00 00 00 00 00 
       000078B6 00 00 00 00 00 00 00 00 00 00 
       000078C0 00 00 00 00 00 00 00 00 00 00 
       000078CA 00 00 00 00 00 00 00 00 00 00 
       000078D4 00 00 00 00 00 00 00 00 00 00 
       000078DE 00 00 00 00 00 00 00 00 00 00 
       000078E8 00 00 00 00 00 00 00 00 00 00 
       000078F2 00 00 00 00 00 00 00 00 00 00 
       000078FC 00 00 00 00 00 00 00 00 00 00 
       00007906 00 00 00 00 00 00 00 00 00 00 
       00007910 00 00 00 00 00 00 00 00 00 00 
       0000791A 00 00 00 00 00 00 00 00 00 00 
       00007924 00 00 00 00 00 00 00 00 00 00 
       0000792E 00 00 00 00 00 00 00 00 00 00 
       00007938 00 00 00 00 00 00 00 00 00 00 
       00007942 00 00 00 00 00 00 00 00 00 00 
       0000794C 00 00 00 00 00 00 00 00 00 00 
       00007956 00 00 00 00 00 00 00 00 00 00 
       00007960 00 00 00 00 00 00 00 00 00 00 
       0000796A 00 00 00 00 00 00 00 00 00 00 
       00007974 00 00 00 00 00 00 00 00 00 00 
       0000797E 00 00 00 00 00 00 00 00 00 00 
       00007988 00 00 00 00 00 00 00 00 00 00 
       00007992 00 00 00 00 00 00 00 00 00 00 
       0000799C 00 00 00 00 00 00 00 00 00 00 
       000079A6 00 00 00 00 00 00 00 00 00 00 
       000079B0 00 00 00 00 00 00 00 00 00 00 
       000079BA 00 00 00 00 00 00 00 00 00 00 
       000079C4 00 00 00 00 00 00 00 00 00 00 
       000079CE 00 00 00 00 00 00 00 00 00 00 
       000079D8 00 00 00 00 00 00 00 00 00 00 
       000079E2 00 00 00 00 00 00 00 00 00 00 
       000079EC 00 00 00 00 00 00 00 00 00 00 
       000079F6 00 00 00 00 00 00 00 00 00 00 
       00007A00 00 00 00 00 00 00 00 00 00 00 
       00007A0A 00 00 00 00 00 00 00 00 00 00 
       00007A14 00 00 00 00 00 00 00 00 00 00 
       00007A1E 00 00 00 00 00 00 00 00 00 00 
       00007A28 00 00 00 00 00 00 00 00 00 00 
       00007A32 00 00 00 00 00 00 00 00 00 00 
       00007A3C 00 00 00 00 00 00 00 00 00 00 
       00007A46 00 00 00 00 00 00 00 00 00 00 
       00007A50 00 00 00 00 00 00 00 00 00 00 
       00007A5A 00 00 00 00 00 00 00 00 00 00 
       00007A64 00 00 00 00 00 00 00 00 00 00 
       00007A6E 00 00 00 00 00 00 00 00 00 00 
       00007A78 00 00 00 00 00 00 00 00 00 00 
       00007A82 00 00 00 00 00 00 00 00 00 00 
       00007A8C 00 00 00 00 00 00 00 00 00 00 
       00007A96 00 00 00 00 00 00 00 00 00 00 
       00007AA0 00 00 00 00 00 00 00 00 00 00 
       00007AAA 00 00 00 00 00 00 00 00 00 00 
       00007AB4 00 00 00 00 00 00 00 00 00 00 
       00007ABE 00 00 00 00 00 00 00 00 00 00 
       00007AC8 00 00 00 00 00 00 00 00 00 00 
       00007AD2 00 00 00 00 00 00 00 00 00 00 
       00007ADC 00 00 00 00 00 00 00 00 00 00 
       00007AE6 00 00 00 00 00 00 00 00 00 00 
       00007AF0 00 00 00 00 00 00 00 00 00 00 
       00007AFA 00 00 00 00 00 00 00 00 00 00 
       00007B04 00 00 00 00 00 00 00 00 00 00 
       00007B0E 00 00 00 00 00 00 00 00 00 00 
       00007B18 00 00 00 00 00 00 00 00 00 00 
       00007B22 00 00 00 00 00 00 00 00 00 00 
       00007B2C 00 00 00 00 00 00 00 00 00 00 
       00007B36 00 00 00 00 00 00 00 00 00 00 
       00007B40 00 00 00 00 00 00 00 00 00 00 
       00007B4A 00 00 00 00 00 00 00 00 00 00 
       00007B54 00 00 00 00 00 00 00 00 00 00 
       00007B5E 00 00 00 00 00 00 00 00 00 00 
       00007B68 00 00 00 00 00 00 00 00 00 00 
       00007B72 00 00 00 00 00 00 00 00 00 00 
       00007B7C 00 00 00 00 00 00 00 00 00 00 
       00007B86 00 00 00 00 00 00 00 00 00 00 
       00007B90 00 00 00 00 00 00 00 00 00 00 
       00007B9A 00 00 00 00 00 00 00 00 00 00 
       00007BA4 00 00 00 00 00 00 00 00 00 00 
       00007BAE 00 00 00 00 00 00 00 00 00 00 
       00007BB8 00 00 00 00 00 00 00 00 00 00 
       00007BC2 00 00 00 00 00 00 00 00 00 00 
       00007BCC 00 00 00 00 00 00 00 00 00 00 
       00007BD6 00 00 00 00 00 00 00 00 00 00 
       00007BE0 00 00 00 00 00 00 00 00 00 00 
       00007BEA 00 00 00 00 00 00 00 00 00 00 
       00007BF4 00 00 00 00 00 00 00 00 00 00 
       00007BFE 00 00 00 00 00 00 00 00 00 00 
       00007C08 00 00 00 00 00 00 00 00 00 00 
       00007C12 00 00 00 00 00 00 00 00 00 00 
       00007C1C 00 00 00 00 00 00 00 00 00 00 
       00007C26 00 00 00 00 00 00 00 00 00 00 
       00007C30 00 00 00 00 00 00 00 00 00 00 
       00007C3A 00 00 00 00 00 00 00 00 00 00 
       00007C44 00 00 00 00 00 00 00 00 00 00 
       00007C4E 00 00 00 00 00 00 00 00 00 00 
       00007C58 00 00 00 00 00 00 00 00 00 00 
       00007C62 00 00 00 00 00 00 00 00 00 00 
       00007C6C 00 00 00 00 00 00 00 00 00 00 
       00007C76 00 00 00 00 00 00 00 00 00 00 
       00007C80 00 00 00 00 00 00 00 00 00 00 
       00007C8A 00 00 00 00 00 00 00 00 00 00 
       00007C94 00 00 00 00 00 00 00 00 00 00 
       00007C9E 00 00 00 00 00 00 00 00 00 00 
       00007CA8 00 00 00 00 00 00 00 00 00 00 
       00007CB2 00 00 00 00 00 00 00 00 00 00 
       00007CBC 00 00 00 00 00 00 00 00 00 00 
       00007CC6 00 00 00 00 00 00 00 00 00 00 
       00007CD0 00 00 00 00 00 00 00 00 00 00 
       00007CDA 00 00 00 00 00 00 00 00 00 00 
       00007CE4 00 00 00 00 00 00 00 00 00 00 
       00007CEE 00 00 00 00 00 00 00 00 00 00 
       00007CF8 00 00 00 00 00 00 00 00 00 00 
       00007D02 00 00 00 00 00 00 00 00 00 00 
       00007D0C 00 00 00 00 00 00 00 00 00 00 
       00007D16 00 00 00 00 00 00 00 00 00 00 
       00007D20 00 00 00 00 00 00 00 00 00 00 
       00007D2A 00 00 00 00 00 00 00 00 00 00 
       00007D34 00 00 00 00 00 00 00 00 00 00 
       00007D3E 00 00 00 00 00 00 00 00 00 00 
       00007D48 00 00 00 00 00 00 00 00 00 00 
       00007D52 00 00 00 00 00 00 00 00 00 00 
       00007D5C 00 00 00 00 00 00 00 00 00 00 
       00007D66 00 00 00 00 00 00 00 00 00 00 
       00007D70 00 00 00 00 00 00 00 00 00 00 
       00007D7A 00 00 00 00 00 00 00 00 00 00 
       00007D84 00 00 00 00 00 00 00 00 00 00 
       00007D8E 00 00 00 00 00 00 00 00 00 00 
       00007D98 00 00 00 00 00 00 00 00 00 00 
       00007DA2 00 00 00 00 00 00 00 00 00 00 
       00007DAC 00 00 00 00 00 00 00 00 00 00 
       00007DB6 00 00 00 00 00 00 00 00 00 00 
       00007DC0 00 00 00 00 00 00 00 00 00 00 
       00007DCA 00 00 00 00 00 00 00 00 00 00 
       00007DD4 00 00 00 00 00 00 00 00 00 00 
       00007DDE 00 00 00 00 00 00 00 00 00 00 
       00007DE8 00 00 00 00 00 00 00 00 00 00 
       00007DF2 00 00 00 00 00 00 00 00 00 00 
       00007DFC 00 00 00 00 00 00 00 00 00 00 
       00007E06 00 00 00 00 00 00 00 00 00 00 
       00007E10 00 00 00 00 00 00 00 00 00 00 
       00007E1A 00 00 00 00 00 00 00 00 00 00 
       00007E24 00 00 00 00 00 00 00 00 00 00 
       00007E2E 00 00 00 00 00 00 00 00 00 00 
       00007E38 00 00 00 00 00 00 00 00 00 00 
       00007E42 00 00 00 00 00 00 00 00 00 00 
       00007E4C 00 00 00 00 00 00 00 00 00 00 
       00007E56 00 00 00 00 00 00 00 00 00 00 
       00007E60 00 00 00 00 00 00 00 00 00 00 
       00007E6A 00 00 00 00 00 00 00 00 00 00 
       00007E74 00 00 00 00 00 00 00 00 00 00 
       00007E7E 00 00 00 00 00 00 00 00 00 00 
       00007E88 00 00 00 00 00 00 00 00 00 00 
       00007E92 00 00 00 00 00 00 00 00 00 00 
       00007E9C 00 00 00 00 00 00 00 00 00 00 
       00007EA6 00 00 00 00 00 00 00 00 00 00 
       00007EB0 00 00 00 00 00 00 00 00 00 00 
       00007EBA 00 00 00 00 00 00 00 00 00 00 
       00007EC4 00 00 00 00 00 00 00 00 00 00 
       00007ECE 00 00 00 00 00 00 00 00 00 00 
       00007ED8 00 00 00 00 00 00 00 00 00 00 
       00007EE2 00 00 00 00 00 00 00 00 00 00 
       00007EEC 00 00 00 00 00 00 00 00 00 00 
       00007EF6 00 00 00 00 00 00 00 00 00 00 
       00007F00 00 00 00 00 00 00 00 00 00 00 
       00007F0A 00 00 00 00 00 00 00 00 00 00 
       00007F14 00 00 00 00 00 00 00 00 00 00 
       00007F1E 00 00 00 00 00 00 00 00 00 00 
       00007F28 00 00 00 00 00 00 00 00 00 00 
       00007F32 00 00 00 00 00 00 00 00 00 00 
       00007F3C 00 00 00 00 00 00 00 00 00 00 
       00007F46 00 00 00 00 00 00 00 00 00 00 
       00007F50 00 00 00 00 00 00 00 00 00 00 
       00007F5A 00 00 00 00 00 00 00 00 00 00 
       00007F64 00 00 00 00 00 00 00 00 00 00 
       00007F6E 00 00 00 00 00 00 00 00 00 00 
       00007F78 00 00 00 00 00 00 00 00 00 00 
       00007F82 00 00 00 00 00 00 00 00 00 00 
       00007F8C 00 00 00 00 00 00 00 00 00 00 
       00007F96 00 00 00 00 00 00 00 00 00 00 
       00007FA0 00 00 00 00 00 00 00 00 00 00 
       00007FAA 00 00 00 00 00 00 00 00 00 00 
       00007FB4 00 00 00 00 00 00 00 00 00 00 
       00007FBE 00 00 00 00 00 00 00 00 00 00 
       00007FC8 00 00 00 00 00 00 00 00 00 00 
       00007FD2 00 00 00 00 00 00 00 00 00 00 
       00007FDC 00 00 00 00 00 00 00 00 00 00 
       00007FE6 00 00 00 00 00 00 00 00 00 00 
       00007FF0 00 00 00 00 00 00 00 00 00 00 
       00007FFA 00 00 00 00 00 00 00 00 00 00 
       00008004 00 00 00 00 00 00 00 00 00 00 
       0000800E 00 00 00 00 00 00 00 00 00 00 
       00008018 00 00 00 00 00 00 00 00 00 00 
       00008022 00 00 00 00 00 00 00 00 00 00 
       0000802C 00 00 00 00 00 00 00 00 00 00 
       00008036 00 00 00 00 00 00 00 00 00 00 
       00008040 00 00 00 00 00 00 00 00 00 00 
       0000804A 00 00 00 00 00 00 00 00 00 00 
       00008054 00 00 00 00 00 00 00 00 00 00 
       0000805E 00 00 00 00 00 00 00 00 00 00 
       00008068 00 00 00 00 00 00 00 00 00 00 
       00008072 00 00 00 00 00 00 00 00 00 00 
       0000807C 00 00 00 00 00 00 00 00 00 00 
       00008086 00 00 00 00 00 00 00 00 00 00 
       00008090 00 00 00 00 00 00 00 00 00 00 
       0000809A 00 00 00 00 00 00 00 00 00 00 
       000080A4 00 00 00 00 00 00 00 00 00 00 
       000080AE 00 00 00 00 00 00 00 00 00 00 
       000080B8 00 00 00 00 00 00 00 00 00 00 
       000080C2 00 00 00 00 00 00 00 00 00 00 
       000080CC 00 00 00 00 00 00 00 00 00 00 
       000080D6 00 00 00 00 00 00 00 00 00 00 
       000080E0 00 00 00 00 00 00 00 00 00 00 
       000080EA 00 00 00 00 00 00 00 00 00 00 
       000080F4 00 00 00 00 00 00 00 00 00 00 
       000080FE 00 00 00 00 00 00 00 00 00 00 
       00008108 00 00 00 00 00 00 00 00 00 00 
       00008112 00 00 00 00 00 00 00 00 00 00 
       0000811C 00 00 00 00 00 00 00 00 00 00 
       00008126 00 00 00 00 00 00 00 00 00 00 
       00008130 00 00 00 00 00 00 00 00 00 00 
       0000813A 00 00 00 00 00 00 00 00 00 00 
       00008144 00 00 00 00 00 00 00 00 00 00 
       0000814E 00 00 00 00 00 00 00 00 00 00 
       00008158 00 00 00 00 00 00 00 00 00 00 
       00008162 00 00 00 00 00 00 00 00 00 00 
       0000816C 00 00 00 00 00 00 00 00 00 00 
       00008176 00 00 00 00 00 00 00 00 00 00 
       00008180 00 00 00 00 00 00 00 00 00 00 
       0000818A 00 00 00 00 00 00 00 00 00 00 
       00008194 00 00 00 00 00 00 00 00 00 00 
       0000819E 00 00 00 00 00 00 00 00 00 00 
       000081A8 00 00 00 00 00 00 00 00 00 00 
       000081B2 00 00 00 00 00 00 00 00 00 00 
       000081BC 00 00 00 00 00 00 00 00 00 00 
       000081C6 00 00 00 00 00 00 00 00 00 00 
       000081D0 00 00 00 00 00 00 00 00 00 00 
       000081DA 00 00 00 00 00 00 00 00 00 00 
       000081E4 00 00 00 00 00 00 00 00 00 00 
       000081EE 00 00 00 00 00 00 00 00 00 00 
       000081F8 00 00 00 00 00 00 00 00 00 00 
       00008202 00 00 00 00 00 00 00 00 00 00 
       0000820C 00 00 00 00 00 00 00 00 00 00 
       00008216 00 00 00 00 00 00 00 00 00 00 
       00008220 00 00 00 00 00 00 00 00 00 00 
       0000822A 00 00 00 00 00 00 00 00 00 00 
       00008234 00 00 00 00 00 00 00 00 00 00 
       0000823E 00 00 00 00 00 00 00 00 00 00 
       00008248 00 00 00 00 00 00 00 00 00 00 
       00008252 00 00 00 00 00 00 00 00 00 00 
       0000825C 00 00 00 00 00 00 00 00 00 00 
       00008266 00 00 00 00 00 00 00 00 00 00 
       00008270 00 00 00 00 00 00 00 00 00 00 
       0000827A 00 00 00 00 00 00 00 00 00 00 
       00008284 00 00 00 00 00 00 00 00 00 00 
       0000828E 00 00 00 00 00 00 00 00 00 00 
       00008298 00 00 00 00 00 00 00 00 00 00 
       000082A2 00 00 00 00 00 00 00 00 00 00 
       000082AC 00 00 00 00 00 00 00 00 00 00 
       000082B6 00 00 00 00 00 00 00 00 00 00 
       000082C0 00 00 00 00 00 00 00 00 00 00 
       000082CA 00 00 00 00 00 00 00 00 00 00 
       000082D4 00 00 00 00 00 00 00 00 00 00 
       000082DE 00 00 00 00 00 00 00 00 00 00 
       000082E8 00 00 00 00 00 00 00 00 00 00 
       000082F2 00 00 00 00 00 00 00 00 00 00 
       000082FC 00 00 00 00 00 00 00 00 00 00 
       00008306 00 00 00 00 00 00 00 00 00 00 
       00008310 00 00 00 00 00 00 00 00 00 00 
       0000831A 00 00 00 00 00 00 00 00 00 00 
       00008324 00 00 00 00 00 00 00 00 00 00 
       0000832E 00 00 00 00 00 00 00 00 00 00 
       00008338 00 00 00 00 00 00 00 00 00 00 
       00008342 00 00 00 00 00 00 00 00 00 00 
       0000834C 00 00 00 00 00 00 00 00 00 00 
       00008356 00 00 00 00 00 00 00 00 00 00 
       00008360 00 00 00 00 00 00 00 00 00 00 
       0000836A 00 00 00 00 00 00 00 00 00 00 
       00008374 00 00 00 00 00 00 00 00 00 00 
       0000837E 00 00 00 00 00 00 00 00 00 00 
       00008388 00 00 00 00 00 00 00 00 00 00 
       00008392 00 00 00 00 00 00 00 00 00 00 
       0000839C 00 00 00 00 00 00 00 00 00 00 
       000083A6 00 00 00 00 00 00 00 00 00 00 
       000083B0 00 00 00 00 00 00 00 00 00 00 
       000083BA 00 00 00 00 00 00 00 00 00 00 
       000083C4 00 00 00 00 00 00 00 00 00 00 
       000083CE 00 00 00 00 00 00 00 00 00 00 
       000083D8 00 00 00 00 00 00 00 00 00 00 
       000083E2 00 00 00 00 00 00 00 00 00 00 
       000083EC 00 00 00 00 00 00 00 00 00 00 
       000083F6 00 00 00 00 00 00 00 00 00 00 
       00008400 00 00 00 00 00 00 00 00 00 00 
       0000840A 00 00 00 00 00 00 00 00 00 00 
       00008414 00 00 00 00 00 00 00 00 00 00 
       0000841E 00 00 00 00 00 00 00 00 00 00 
       00008428 00 00 00 00 00 00 00 00 00 00 
       00008432 00 00 00 00 00 00 00 00 00 00 
       0000843C 00 00 00 00 00 00 00 00 00 00 
       00008446 00 00 00 00 00 00 00 00 00 00 
       00008450 00 00 00 00 00 00 00 00 00 00 
       0000845A 00 00 00 00 00 00 00 00 00 00 
       00008464 00 00 00 00 00 00 00 00 00 00 
       0000846E 00 00 00 00 00 00 00 00 00 00 
       00008478 00 00 00 00 00 00 00 00 00 00 
       00008482 00 00 00 00 00 00 00 00 00 00 
       0000848C 00 00 00 00 00 00 00 00 00 00 
       00008496 00 00 00 00 00 00 00 00 00 00 
       000084A0 00 00 00 00 00 00 00 00 00 00 
       000084AA 00 00 00 00 00 00 00 00 00 00 
       000084B4 00 00 00 00 00 00 00 00 00 00 
       000084BE 00 00 00 00 00 00 00 00 00 00 
       000084C8 00 00 00 00 00 00 00 00 00 00 
       000084D2 00 00 00 00 00 00 00 00 00 00 
       000084DC 00 00 00 00 00 00 00 00 00 00 
       000084E6 00 00 00 00 00 00 00 00 00 00 
       000084F0 00 00 00 00 00 00 00 00 00 00 
       000084FA 00 00 00 00 00 00 00 00 00 00 
       00008504 00 00 00 00 00 00 00 00 00 00 
       0000850E 00 00 00 00 00 00 00 00 00 00 
       00008518 00 00 00 00 00 00 00 00 00 00 
       00008522 00 00 00 00 00 00 00 00 00 00 
       0000852C 00 00 00 00 00 00 00 00 00 00 
       00008536 00 00 00 00 00 00 00 00 00 00 
       00008540 00 00 00 00 00 00 00 00 00 00 
       0000854A 00 00 00 00 00 00 00 00 00 00 
       00008554 00 00 00 00 00 00 00 00 00 00 
       0000855E 00 00 00 00 00 00 00 00 00 00 
       00008568 00 00 00 00 00 00 00 00 00 00 
       00008572 00 00 00 00 00 00 00 00 00 00 
       0000857C 00 00 00 00 00 00 00 00 00 00 
       00008586 00 00 00 00 00 00 00 00 00 00 
       00008590 00 00 00 00 00 00 00 00 00 00 
       0000859A 00 00 00 00 00 00 00 00 00 00 
       000085A4 00 00 00 00 00 00 00 00 00 00 
       000085AE 00 00 00 00 00 00 00 00 00 00 
       000085B8 00 00 00 00 00 00 00 00 00 00 
       000085C2 00 00 00 00 00 00 00 00 00 00 
       000085CC 00 00 00 00 00 00 00 00 00 00 
       000085D6 00 00 00 00 00 00 00 00 00 00 
       000085E0 00 00 00 00 00 00 00 00 00 00 
       000085EA 00 00 00 00 00 00 00 00 00 00 
       000085F4 00 00 00 00 00 00 00 00 00 00 
       000085FE 00 00 00 00 00 00 00 00 00 00 
       00008608 00 00 00 00 00 00 00 00 00 00 
       00008612 00 00 00 00 00 00 00 00 00 00 
       0000861C 00 00 00 00 00 00 00 00 00 00 
       00008626 00 00 00 00 00 00 00 00 00 00 
       00008630 00 00 00 00 00 00 00 00 00 00 
       0000863A 00 00 00 00 00 00 00 00 00 00 
       00008644 00 00 00 00 00 00 00 00 00 00 
       0000864E 00 00 00 00 00 00 00 00 00 00 
       00008658 00 00 00 00 00 00 00 00 00 00 
       00008662 00 00 00 00 00 00 00 00 00 00 
       0000866C 00 00 00 00 00 00 00 00 00 00 
       00008676 00 00 00 00 00 00 00 00 00 00 
       00008680 00 00 00 00 00 00 00 00 00 00 
       0000868A 00 00 00 00 00 00 00 00 00 00 
       00008694 00 00 00 00 00 00 00 00 00 00 
       0000869E 00 00 00 00 00 00 00 00 00 00 
       000086A8 00 00 00 00 00 00 00 00 00 00 
       000086B2 00 00 00 00 00 00 00 00 00 00 
       000086BC 00 00 00 00 00 00 00 00 00 00 
       000086C6 00 00 00 00 00 00 00 00 00 00 
       000086D0 00 00 00 00 00 00 00 00 00 00 
       000086DA 00 00 00 00 00 00 00 00 00 00 
       000086E4 00 00 00 00 00 00 00 00 00 00 
       000086EE 00 00 00 00 00 00 00 00 00 00 
       000086F8 00 00 00 00 00 00 00 00 00 00 
       00008702 00 00 00 00 00 00 00 00 00 00 
       0000870C 00 00 00 00 00 00 00 00 00 00 
       00008716 00 00 00 00 00 00 00 00 00 00 
       00008720 00 00 00 00 00 00 00 00 00 00 
       0000872A 00 00 00 00 00 00 00 00 00 00 
       00008734 00 00 00 00 00 00 00 00 00 00 
       0000873E 00 00 00 00 00 00 00 00 00 00 
       00008748 00 00 00 00 00 00 00 00 00 00 
       00008752 00 00 00 00 00 00 00 00 00 00 
       0000875C 00 00 00 00 00 00 00 00 00 00 
       00008766 00 00 00 00 00 00 00 00 00 00 
       00008770 00 00 00 00 00 00 00 00 00 00 
       0000877A 00 00 00 00 00 00 00 00 00 00 
       00008784 00 00 00 00 00 00 00 00 00 00 
       0000878E 00 00 00 00 00 00 00 00 00 00 
       00008798 00 00 00 00 00 00 00 00 00 00 
       000087A2 00 00 00 00 00 00 00 00 00 00 
       000087AC 00 00 00 00 00 00 00 00 00 00 
       000087B6 00 00 00 00 00 00 00 00 00 00 
       000087C0 00 00 00 00 00 00 00 00 00 00 
       000087CA 00 00 00 00 00 00 00 00 00 00 
       000087D4 00 00 00 00 00 00 00 00 00 00 
       000087DE 00 00 00 00 00 00 00 00 00 00 
       000087E8 00 00 00 00 00 00 00 00 00 00 
       000087F2 00 00 00 00 00 00 00 00 00 00 
       000087FC 00 00 00 00 00 00 00 00 00 00 
       00008806 00 00 00 00 00 00 00 00 00 00 
       00008810 00 00 00 00 00 00 00 00 00 00 
       0000881A 00 00 00 00 00 00 00 00 00 00 
       00008824 00 00 00 00 00 00 00 00 00 00 
       0000882E 00 00 00 00 00 00 00 00 00 00 
       00008838 00 00 00 00 00 00 00 00 00 00 
       00008842 00 00 00 00 00 00 00 00 00 00 
       0000884C 00 00 00 00 00 00 00 00 00 00 
       00008856 00 00 00 00 00 00 00 00 00 00 
       00008860 00 00 00 00 00 00 00 00 00 00 
       0000886A 00 00 00 00 00 00 00 00 00 00 
       00008874 00 00 00 00 00 00 00 00 00 00 
       0000887E 00 00 00 00 00 00 00 00 00 00 
       00008888 00 00 00 00 00 00 00 00 00 00 
       00008892 00 00 00 00 00 00 00 00 00 00 
       0000889C 00 00 00 00 00 00 00 00 00 00 
       000088A6 00 00 00 00 00 00 00 00 00 00 
       000088B0 00 00 00 00 00 00 00 00 00 00 
       000088BA 00 00 00 00 00 00 00 00 00 00 
       000088C4 00 00 00 00 00 00 00 00 00 00 
       000088CE 00 00 00 00 00 00 00 00 00 00 
       000088D8 00 00 00 00 00 00 00 00 00 00 
       000088E2 00 00 00 00 00 00 00 00 00 00 
       000088EC 00 00 00 00 00 00 00 00 00 00 
       000088F6 00 00 00 00 00 00 00 00 00 00 
       00008900 00 00 00 00 00 00 00 00 00 00 
       0000890A 00 00 00 00 00 00 00 00 00 00 
       00008914 00 00 00 00 00 00 00 00 00 00 
       0000891E 00 00 00 00 00 00 00 00 00 00 
       00008928 00 00 00 00 00 00 00 00 00 00 
       00008932 00 00 00 00 00 00 00 00 00 00 
       0000893C 00 00 00 00 00 00 00 00 00 00 
       00008946 00 00 00 00 00 00 00 00 00 00 
       00008950 00 00 00 00 00 00 00 00 00 00 
       0000895A 00 00 00 00 00 00 00 00 00 00 
       00008964 00 00 00 00 00 00 00 00 00 00 
       0000896E 00 00 00 00 00 00 00 00 00 00 
       00008978 00 00 00 00 00 00 00 00 00 00 
       00008982 00 00 00 00 00 00 00 00 00 00 
       0000898C 00 00 00 00 00 00 00 00 00 00 
       00008996 00 00 00 00 00 00 00 00 00 00 
       000089A0 00 00 00 00 00 00 00 00 00 00 
       000089AA 00 00 00 00 00 00 00 00 00 00 
       000089B4 00 00 00 00 00 00 00 00 00 00 
       000089BE 00 00 00 00 00 00 00 00 00 00 
       000089C8 00 00 00 00 00 00 00 00 00 00 
       000089D2 00 00 00 00 00 00 00 00 00 00 
       000089DC 00 00 00 00 00 00 00 00 00 00 
       000089E6 00 00 00 00 00 00 00 00 00 00 
       000089F0 00 00 00 00 00 00 00 00 00 00 
       000089FA 00 00 00 00 00 00 00 00 00 00 
       00008A04 00 00 00 00 00 00 00 00 00 00 
       00008A0E 00 00 00 00 00 00 00 00 00 00 
       00008A18 00 00 00 00 00 00 00 00 00 00 
       00008A22 00 00 00 00 00 00 00 00 00 00 
       00008A2C 00 00 00 00 00 00 00 00 00 00 
       00008A36 00 00 00 00 00 00 00 00 00 00 
       00008A40 00 00 00 00 00 00 00 00 00 00 
       00008A4A 00 00 00 00 00 00 00 00 00 00 
       00008A54 00 00 00 00 00 00 00 00 00 00 
       00008A5E 00 00 00 00 00 00 00 00 00 00 
       00008A68 00 00 00 00 00 00 00 00 00 00 
       00008A72 00 00 00 00 00 00 00 00 00 00 
       00008A7C 00 00 00 00 00 00 00 00 00 00 
       00008A86 00 00 00 00 00 00 00 00 00 00 
       00008A90 00 00 00 00 00 00 00 00 00 00 
       00008A9A 00 00 00 00 00 00 00 00 00 00 
       00008AA4 00 00 00 00 00 00 00 00 00 00 
       00008AAE 00 00 00 00 00 00 00 00 00 00 
       00008AB8 00 00 00 00 00 00 00 00 00 00 
       00008AC2 00 00 00 00 00 00 00 00 00 00 
       00008ACC 00 00 00 00 00 00 00 00 00 00 
       00008AD6 00 00 00 00 00 00 00 00 00 00 
       00008AE0 00 00 00 00 00 00 00 00 00 00 
       00008AEA 00 00 00 00 00 00 00 00 00 00 
       00008AF4 00 00 00 00 00 00 00 00 00 00 
       00008AFE 00 00 00 00 00 00 00 00 00 00 
       00008B08 00 00 00 00 00 00 00 00 00 00 
       00008B12 00 00 00 00 00 00 00 00 00 00 
       00008B1C 00 00 00 00 00 00 00 00 00 00 
       00008B26 00 00 00 00 00 00 00 00 00 00 
       00008B30 00 00 00 00 00 00 00 00 00 00 
       00008B3A 00 00 00 00 00 00 00 00 00 00 
       00008B44 00 00 00 00 00 00 00 00 00 00 
       00008B4E 00 00 00 00 00 00 00 00 00 00 
       00008B58 00 00 00 00 00 00 00 00 00 00 
       00008B62 00 00 00 00 00 00 00 00 00 00 
       00008B6C 00 00 00 00 00 00 00 00 00 00 
       00008B76 00 00 00 00 00 00 00 00 00 00 
       00008B80 00 00 00 00 00 00 00 00 00 00 
       00008B8A 00 00 00 00 00 00 00 00 00 00 
       00008B94 00 00 00 00 00 00 00 00 00 00 
       00008B9E 00 00 00 00 00 00 00 00 00 00 
       00008BA8 00 00 00 00 00 00 00 00 00 00 
       00008BB2 00 00 00 00 00 00 00 00 00 00 
       00008BBC 00 00 00 00 00 00 00 00 00 00 
       00008BC6 00 00 00 00 00 00 00 00 00 00 
       00008BD0 00 00 00 00 00 00 00 00 00 00 
       00008BDA 00 00 00 00 00 00 00 00 00 00 
       00008BE4 00 00 00 00 00 00 00 00 00 00 
       00008BEE 00 00 00 00 00 00 00 00 00 00 
       00008BF8 00 00 00 00 00 00 00 00 00 00 
       00008C02 00 00 00 00 00 00 00 00 00 00 
       00008C0C 00 00 00 00 00 00 00 00 00 00 
       00008C16 00 00 00 00 00 00 00 00 00 00 
       00008C20 00 00 00 00 00 00 00 00 00 00 
       00008C2A 00 00 00 00 00 00 00 00 00 00 
       00008C34 00 00 00 00 00 00 00 00 00 00 
       00008C3E 00 00 00 00 00 00 00 00 00 00 
       00008C48 00 00 00 00 00 00 00 00 00 00 
       00008C52 00 00 00 00 00 00 00 00 00 00 
       00008C5C 00 00 00 00 00 00 00 00 00 00 
       00008C66 00 00 00 00 00 00 00 00 00 00 
       00008C70 00 00 00 00 00 00 00 00 00 00 
       00008C7A 00 00 00 00 00 00 00 00 00 00 
       00008C84 00 00 00 00 00 00 00 00 00 00 
       00008C8E 00 00 00 00 00 00 00 00 00 00 
       00008C98 00 00 00 00 00 00 00 00 00 00 
       00008CA2 00 00 00 00 00 00 00 00 00 00 
       00008CAC 00 00 00 00 00 00 00 00 00 00 
       00008CB6 00 00 00 00 00 00 00 00 00 00 
       00008CC0 00 00 00 00 00 00 00 00 00 00 
       00008CCA 00 00 00 00 00 00 00 00 00 00 
       00008CD4 00 00 00 00 00 00 00 00 00 00 
       00008CDE 00 00 00 00 00 00 00 00 00 00 
       00008CE8 00 00 00 00 00 00 00 00 00 00 
       00008CF2 00 00 00 00 00 00 00 00 00 00 
       00008CFC 00 00 00 00 00 00 00 00 00 00 
       00008D06 00 00 00 00 00 00 00 00 00 00 
       00008D10 00 00 00 00 00 00 00 00 00 00 
       00008D1A 00 00 00 00 00 00 00 00 00 00 
       00008D24 00 00 00 00 00 00 00 00 00 00 
       00008D2E 00 00 00 00 00 00 00 00 00 00 
       00008D38 00 00 00 00 00 00 00 00 00 00 
       00008D42 00 00 00 00 00 00 00 00 00 00 
       00008D4C 00 00 00 00 00 00 00 00 00 00 
       00008D56 00 00 00 00 00 00 00 00 00 00 
       00008D60 00 00 00 00 00 00 00 00 00 00 
       00008D6A 00 00 00 00 00 00 00 00 00 00 
       00008D74 00 00 00 00 00 00 00 00 00 00 
       00008D7E 00 00 00 00 00 00 00 00 00 00 
       00008D88 00 00 00 00 00 00 00 00 00 00 
       00008D92 00 00 00 00 00 00 00 00 00 00 
       00008D9C 00 00 00 00 00 00 00 00 00 00 
       00008DA6 00 00 00 00 00 00 00 00 00 00 
       00008DB0 00 00 00 00 00 00 00 00 00 00 
       00008DBA 00 00 00 00 00 00 00 00 00 00 
       00008DC4 00 00 00 00 00 00 00 00 00 00 
       00008DCE 00 00 00 00 00 00 00 00 00 00 
       00008DD8 00 00 00 00 00 00 00 00 00 00 
       00008DE2 00 00 00 00 00 00 00 00 00 00 
       00008DEC 00 00 00 00 00 00 00 00 00 00 
       00008DF6 00 00 00 00 00 00 00 00 00 00 
       00008E00 00 00 00 00 00 00 00 00 00 00 
       00008E0A 00 00 00 00 00 00 00 00 00 00 
       00008E14 00 00 00 00 00 00 00 00 00 00 
       00008E1E 00 00 00 00 00 00 00 00 00 00 
       00008E28 00 00 00 00 00 00 00 00 00 00 
       00008E32 00 00 00 00 00 00 00 00 00 00 
       00008E3C 00 00 00 00 00 00 00 00 00 00 
       00008E46 00 00 00 00 00 00 00 00 00 00 
       00008E50 00 00 00 00 00 00 00 00 00 00 
       00008E5A 00 00 00 00 00 00 00 00 00 00 
       00008E64 00 00 00 00 00 00 00 00 00 00 
       00008E6E 00 00 00 00 00 00 00 00 00 00 
       00008E78 00 00 00 00 00 00 00 00 00 00 
       00008E82 00 00 00 00 00 00 00 00 00 00 
       00008E8C 00 00 00 00 00 00 00 00 00 00 
       00008E96 00 00 00 00 00 00 00 00 00 00 
       00008EA0 00 00 00 00 00 00 00 00 00 00 
       00008EAA 00 00 00 00 00 00 00 00 00 00 
       00008EB4 00 00 00 00 00 00 00 00 00 00 
       00008EBE 00 00 00 00 00 00 00 00 00 00 
       00008EC8 00 00 00 00 00 00 00 00 00 00 
       00008ED2 00 00 00 00 00 00 00 00 00 00 
       00008EDC 00 00 00 00 00 00 00 00 00 00 
       00008EE6 00 00 00 00 00 00 00 00 00 00 
       00008EF0 00 00 00 00 00 00 00 00 00 00 
       00008EFA 00 00 00 00 00 00 00 00 00 00 
       00008F04 00 00 00 00 00 00 00 00 00 00 
       00008F0E 00 00 00 00 00 00 00 00 00 00 
       00008F18 00 00 00 00 00 00 00 00 00 00 
       00008F22 00 00 00 00 00 00 00 00 00 00 
       00008F2C 00 00 00 00 00 00 00 00 00 00 
       00008F36 00 00 00 00 00 00 00 00 00 00 
       00008F40 00 00 00 00 00 00 00 00 00 00 
       00008F4A 00 00 00 00 00 00 00 00 00 00 
       00008F54 00 00 00 00 00 00 00 00 00 00 
       00008F5E 00 00 00 00 00 00 00 00 00 00 
       00008F68 00 00 00 00 00 00 00 00 00 00 
       00008F72 00 00 00 00 00 00 00 00 00 00 
       00008F7C 00 00 00 00 00 00 00 00 00 00 
       00008F86 00 00 00 00 00 00 00 00 00 00 
       00008F90 00 00 00 00 00 00 00 00 00 00 
       00008F9A 00 00 00 00 00 00 00 00 00 00 
       00008FA4 00 00 00 00 00 00 00 00 00 00 
       00008FAE 00 00 00 00 00 00 00 00 00 00 
       00008FB8 00 00 00 00 00 00 00 00 00 00 
       00008FC2 00 00 00 00 00 00 00 00 00 00 
       00008FCC 00 00 00 00 00 00 00 00 00 00 
       00008FD6 00 00 00 00 00 00 00 00 00 00 
       00008FE0 00 00 00 00 00 00 00 00 00 00 
       00008FEA 00 00 00 00 00 00 00 00 00 00 
       00008FF4 00 00 00 00 00 00 00 00 00 00 
       00008FFE 00 00 00 00 00 00 00 00 00 00 
       00009008 00 00 00 00 00 00 00 00 00 00 
       00009012 00 00 00 00 00 00 00 00 00 00 
       0000901C 00 00 00 00 00 00 00 00 00 00 
       00009026 00 00 00 00 00 00 00 00 00 00 
       00009030 00 00 00 00 00 00 00 00 00 00 
       0000903A 00 00 00 00 00 00 00 00 00 00 
       00009044 00 00 00 00 00 00 00 00 00 00 
       0000904E 00 00 00 00 00 00 00 00 00 00 
       00009058 00 00 00 00 00 00 00 00 00 00 
       00009062 00 00 00 00 00 00 00 00 00 00 
       0000906C 00 00 00 00 00 00 00 00 00 00 
       00009076 00 00 00 00 00 00 00 00 00 00 
       00009080 00 00 00 00 00 00 00 00 00 00 
       0000908A 00 00 00 00 00 00 00 00 00 00 
       00009094 00 00 00 00 00 00 00 00 00 00 
       0000909E 00 00 00 00 00 00 00 00 00 00 
       000090A8 00 00 00 00 00 00 00 00 00 00 
       000090B2 00 00 00 00 00 00 00 00 00 00 
       000090BC 00 00 00 00 00 00 00 00 00 00 
       000090C6 00 00 00 00 00 00 00 00 00 00 
       000090D0 00 00 00 00 00 00 00 00 00 00 
       000090DA 00 00 00 00 00 00 00 00 00 00 
       000090E4 00 00 00 00 00 00 00 00 00 00 
       000090EE 00 00 00 00 00 00 00 00 00 00 
       000090F8 00 00 00 00 00 00 00 00 00 00 
       00009102 00 00 00 00 00 00 00 00 00 00 
       0000910C 00 00 00 00 00 00 00 00 00 00 
       00009116 00 00 00 00 00 00 00 00 00 00 
       00009120 00 00 00 00 00 00 00 00 00 00 
       0000912A 00 00 00 00 00 00 00 00 00 00 
       00009134 00 00 00 00 00 00 00 00 00 00 
       0000913E 00 00 00 00 00 00 00 00 00 00 
       00009148 00 00 00 00 00 00 00 00 00 00 
       00009152 00 00 00 00 00 00 00 00 00 00 
       0000915C 00 00 00 00 00 00 00 00 00 00 
       00009166 00 00 00 00 00 00 00 00 00 00 
       00009170 00 00 00 00 00 00 00 00 00 00 
       0000917A 00 00 00 00 00 00 00 00 00 00 
       00009184 00 00 00 00 00 00 00 00 00 00 
       0000918E 00 00 00 00 00 00 00 00 00 00 
       00009198 00 00 00 00 00 00 00 00 00 00 
       000091A2 00 00 00 00 00 00 00 00 00 00 
       000091AC 00 00 00 00 00 00 00 00 00 00 
       000091B6 00 00 00 00 00 00 00 00 00 00 
       000091C0 00 00 00 00 00 00 00 00 00 00 
       000091CA 00 00 00 00 00 00 00 00 00 00 
       000091D4 00 00 00 00 00 00 00 00 00 00 
       000091DE 00 00 00 00 00 00 00 00 00 00 
       000091E8 00 00 00 00 00 00 00 00 00 00 
       000091F2 00 00 00 00 00 00 00 00 00 00 
       000091FC 00 00 00 00 00 00 00 00 00 00 
       00009206 00 00 00 00 00 00 00 00 00 00 
       00009210 00 00 00 00 00 00 00 00 00 00 
       0000921A 00 00 00 00 00 00 00 00 00 00 
       00009224 00 00 00 00 00 00 00 00 00 00 
       0000922E 00 00 00 00 00 00 00 00 00 00 
       00009238 00 00 00 00 00 00 00 00 00 00 
       00009242 00 00 00 00 00 00 00 00 00 00 
       0000924C 00 00 00 00 00 00 00 00 00 00 
       00009256 00 00 00 00 00 00 00 00 00 00 
       00009260 00 00 00 00 00 00 00 00 00 00 
       0000926A 00 00 00 00 00 00 00 00 00 00 
       00009274 00 00 00 00 00 00 00 00 00 00 
       0000927E 00 00 00 00 00 00 00 00 00 00 
       00009288 00 00 00 00 00 00 00 00 00 00 
       00009292 00 00 00 00 00 00 00 00 00 00 
       0000929C 00 00 00 00 00 00 00 00 00 00 
       000092A6 00 00 00 00 00 00 00 00 00 00 
       000092B0 00 00 00 00 00 00 00 00 00 00 
       000092BA 00 00 00 00 00 00 00 00 00 00 
       000092C4 00 00 00 00 00 00 00 00 00 00 
       000092CE 00 00 00 00 00 00 00 00 00 00 
       000092D8 00 00 00 00 00 00 00 00 00 00 
       000092E2 00 00 00 00 00 00 00 00 00 00 
       000092EC 00 00 00 00 00 00 00 00 00 00 
       000092F6 00 00 00 00 00 00 00 00 00 00 
       00009300 00 00 00 00 00 00 00 00 00 00 
       0000930A 00 00 00 00 00 00 00 00 00 00 
       00009314 00 00 00 00 00 00 00 00 00 00 
       0000931E 00 00 00 00 00 00 00 00 00 00 
       00009328 00 00 00 00 00 00 00 00 00 00 
       00009332 00 00 00 00 00 00 00 00 00 00 
       0000933C 00 00 00 00 00 00 00 00 00 00 
       00009346 00 00 00 00 00 00 00 00 00 00 
       00009350 00 00 00 00 00 00 00 00 00 00 
       0000935A 00 00 00 00 00 00 00 00 00 00 
       00009364 00 00 00 00 00 00 00 00 00 00 
       0000936E 00 00 00 00 00 00 00 00 00 00 
       00009378 00 00 00 00 00 00 00 00 00 00 
       00009382 00 00 00 00 00 00 00 00 00 00 
       0000938C 00 00 00 00 00 00 00 00 00 00 
       00009396 00 00 00 00 00 00 00 00 00 00 
       000093A0 00 00 00 00 00 00 00 00 00 00 
       000093AA 00 00 00 00 00 00 00 00 00 00 
       000093B4 00 00 00 00 00 00 00 00 00 00 
       000093BE 00 00 00 00 00 00 00 00 00 00 
       000093C8 00 00 00 00 00 00 00 00 00 00 
       000093D2 00 00 00 00 00 00 00 00 00 00 
       000093DC 00 00 00 00 00 00 00 00 00 00 
       000093E6 00 00 00 00 00 00 00 00 00 00 
       000093F0 00 00 00 00 00 00 00 00 00 00 
       000093FA 00 00 00 00 00 00 00 00 00 00 
       00009404 00 00 00 00 00 00 00 00 00 00 
       0000940E 00 00 00 00 00 00 00 00 00 00 
       00009418 00 00 00 00 00 00 00 00 00 00 
       00009422 00 00 00 00 00 00 00 00 00 00 
       0000942C 00 00 00 00 00 00 00 00 00 00 
       00009436 00 00 00 00 00 00 00 00 00 00 
       00009440 00 00 00 00 00 00 00 00 00 00 
       0000944A 00 00 00 00 00 00 00 00 00 00 
       00009454 00 00 00 00 00 00 00 00 00 00 
       0000945E 00 00 00 00 00 00 00 00 00 00 
       00009468 00 00 00 00 00 00 00 00 00 00 
       00009472 00 00 00 00 00 00 00 00 00 00 
       0000947C 00 00 00 00 00 00 00 00 00 00 
       00009486 00 00 00 00 00 00 00 00 00 00 
       00009490 00 00 00 00 00 00 00 00 00 00 
       0000949A 00 00 00 00 00 00 00 00 00 00 
       000094A4 00 00 00 00 00 00 00 00 00 00 
       000094AE 00 00 00 00 00 00 00 00 00 00 
       000094B8 00 00 00 00 00 00 00 00 00 00 
       000094C2 00 00 00 00 00 00 00 00 00 00 
       000094CC 00 00 00 00 00 00 00 00 00 00 
       000094D6 00 00 00 00 00 00 00 00 00 00 
       000094E0 00 00 00 00 00 00 00 00 00 00 
       000094EA 00 00 00 00 00 00 00 00 00 00 
       000094F4 00 00 00 00 00 00 00 00 00 00 
       000094FE 00 00 00 00 00 00 00 00 00 00 
       00009508 00 00 00 00 00 00 00 00 00 00 
       00009512 00 00 00 00 00 00 00 00 00 00 
       0000951C 00 00 00 00 00 00 00 00 00 00 
       00009526 00 00 00 00 00 00 00 00 00 00 
       00009530 00 00 00 00 00 00 00 00 00 00 
       0000953A 00 00 00 00 00 00 00 00 00 00 
       00009544 00 00 00 00 00 00 00 00 00 00 
       0000954E 00 00 00 00 00 00 00 00 00 00 
       00009558 00 00 00 00 00 00 00 00 00 00 
       00009562 00 00 00 00 00 00 00 00 00 00 
       0000956C 00 00 00 00 00 00 00 00 00 00 
       00009576 00 00 00 00 00 00 00 00 00 00 
       00009580 00 00 00 00 00 00 00 00 00 00 
       0000958A 00 00 00 00 00 00 00 00 00 00 
       00009594 00 00 00 00 00 00 00 00 00 00 
       0000959E 00 00 00 00 00 00 00 00 00 00 
       000095A8 00 00 00 00 00 00 00 00 00 00 
       000095B2 00 00 00 00 00 00 00 00 00 00 
       000095BC 00 00 00 00 00 00 00 00 00 00 
       000095C6 00 00 00 00 00 00 00 00 00 00 
       000095D0 00 00 00 00 00 00 00 00 00 00 
       000095DA 00 00 00 00 00 00 00 00 00 00 
       000095E4 00 00 00 00 00 00 00 00 00 00 
       000095EE 00 00 00 00 00 00 00 00 00 00 
       000095F8 00 00 00 00 00 00 00 00 00 00 
       00009602 00 00 00 00 00 00 00 00 00 00 
       0000960C 00 00 00 00 00 00 00 00 00 00 
       00009616 00 00 00 00 00 00 00 00 00 00 
       00009620 00 00 00 00 00 00 00 00 00 00 
       0000962A 00 00 00 00 00 00 00 00 00 00 
       00009634 00 00 00 00 00 00 00 00 00 00 
       0000963E 00 00 00 00 00 00 00 00 00 00 
       00009648 00 00 00 00 00 00 00 00 00 00 
       00009652 00 00 00 00 00 00 00 00 00 00 
       0000965C 00 00 00 00 00 00 00 00 00 00 
       00009666 00 00 00 00 00 00 00 00 00 00 
       00009670 00 00 00 00 00 00 00 00 00 00 
       0000967A 00 00 00 00 00 00 00 00 00 00 
       00009684 00 00 00 00 00 00 00 00 00 00 
       0000968E 00 00 00 00 00 00 00 00 00 00 
       00009698 00 00 00 00 00 00 00 00 00 00 
       000096A2 00 00 00 00 00 00 00 00 00 00 
       000096AC 00 00 00 00 00 00 00 00 00 00 
       000096B6 00 00 00 00 00 00 00 00 00 00 
       000096C0 00 00 00 00 00 00 00 00 00 00 
       000096CA 00 00 00 00 00 00 00 00 00 00 
       000096D4 00 00 00 00 00 00 00 00 00 00 
       000096DE 00 00 00 00 00 00 00 00 00 00 
       000096E8 00 00 00 00 00 00 00 00 00 00 
       000096F2 00 00 00 00 00 00 00 00 00 00 
       000096FC 00 00 00 00 00 00 00 00 00 00 
       00009706 00 00 00 00 00 00 00 00 00 00 
       00009710 00 00 00 00 00 00 00 00 00 00 
       0000971A 00 00 00 00 00 00 00 00 00 00 
       00009724 00 00 00 00 00 00 00 00 00 00 
       0000972E 00 00 00 00 00 00 00 00 00 00 
       00009738 00 00 00 00 00 00 00 00 00 00 
       00009742 00 00 00 00 00 00 00 00 00 00 
       0000974C 00 00 00 00 00 00 00 00 00 00 
       00009756 00 00 00 00 00 00 00 00 00 00 
       00009760 00 00 00 00 00 00 00 00 00 00 
       0000976A 00 00 00 00 00 00 00 00 00 00 
       00009774 00 00 00 00 00 00 00 00 00 00 
       0000977E 00 00 00 00 00 00 00 00 00 00 
       00009788 00 00 00 00 00 00 00 00 00 00 
       00009792 00 00 00 00 00 00 00 00 00 00 
       0000979C 00 00 00 00 00 00 00 00 00 00 
       000097A6 00 00 00 00 00 00 00 00 00 00 
       000097B0 00 00 00 00 00 00 00 00 00 00 
       000097BA 00 00 00 00 00 00 00 00 00 00 
       000097C4 00 00 00 00 00 00 00 00 00 00 
       000097CE 00 00 00 00 00 00 00 00 00 00 
       000097D8 00 00 00 00 00 00 00 00 00 00 
       000097E2 00 00 00 00 00 00 00 00 00 00 
       000097EC 00 00 00 00 00 00 00 00 00 00 
       000097F6 00 00 00 00 00 00 00 00 00 00 
       00009800 00 00 00 00 00 00 00 00 00 00 
       0000980A 00 00 00 00 00 00 00 00 00 00 
       00009814 00 00 00 00 00 00 00 00 00 00 
       0000981E 00 00 00 00 00 00 00 00 00 00 
       00009828 00 00 00 00 00 00 00 00 00 00 
       00009832 00 00 00 00 00 00 00 00 00 00 
       0000983C 00 00 00 00 00 00 00 00 00 00 
       00009846 00 00 00 00 00 00 00 00 00 00 
       00009850 00 00 00 00 00 00 00 00 00 00 
       0000985A 00 00 00 00 00 00 00 00 00 00 
       00009864 00 00 00 00 00 00 00 00 00 00 
       0000986E 00 00 00 00 00 00 00 00 00 00 
       00009878 00 00 00 00 00 00 00 00 00 00 
       00009882 00 00 00 00 00 00 00 00 00 00 
       0000988C 00 00 00 00 00 00 00 00 00 00 
       00009896 00 00 00 00 00 00 00 00 00 00 
       000098A0 00 00 00 00 00 00 00 00 00 00 
       000098AA 00 00 00 00 00 00 00 00 00 00 
       000098B4 00 00 00 00 00 00 00 00 00 00 
       000098BE 00 00 00 00 00 00 00 00 00 00 
       000098C8 00 00 00 00 00 00 00 00 00 00 
       000098D2 00 00 00 00 00 00 00 00 00 00 
       000098DC 00 00 00 00 00 00 00 00 00 00 
       000098E6 00 00 00 00 00 00 00 00 00 00 
       000098F0 00 00 00 00 00 00 00 00 00 00 
       000098FA 00 00 00 00 00 00 00 00 00 00 
       00009904 00 00 00 00 00 00 00 00 00 00 
       0000990E 00 00 00 00 00 00 00 00 00 00 
       00009918 00 00 00 00 00 00 00 00 00 00 
       00009922 00 00 00 00 00 00 00 00 00 00 
       0000992C 00 00 00 00 00 00 00 00 00 00 
       00009936 00 00 00 00 00 00 00 00 00 00 
       00009940 00 00 00 00 00 00 00 00 00 00 
       0000994A 00 00 00 00 00 00 00 00 00 00 
       00009954 00 00 00 00 00 00 00 00 00 00 
       0000995E 00 00 00 00 00 00 00 00 00 00 
       00009968 00 00 00 00 00 00 00 00 00 00 
       00009972 00 00 00 00 00 00 00 00 00 00 
       0000997C 00 00 00 00 00 00 00 00 00 00 
       00009986 00 00 00 00 00 00 00 00 00 00 
       00009990 00 00 00 00 00 00 00 00 00 00 
       0000999A 00 00 00 00 00 00 00 00 00 00 
       000099A4 00 00 00 00 00 00 00 00 00 00 
       000099AE 00 00 00 00 00 00 00 00 00 00 
       000099B8 00 00 00 00 00 00 00 00 00 00 
       000099C2 00 00 00 00 00 00 00 00 00 00 
       000099CC 00 00 00 00 00 00 00 00 00 00 
       000099D6 00 00 00 00 00 00 00 00 00 00 
       000099E0 00 00 00 00 00 00 00 00 00 00 
       000099EA 00 00 00 00 00 00 00 00 00 00 
       000099F4 00 00 00 00 00 00 00 00 00 00 
       000099FE 00 00 00 00 00 00 00 00 00 00 
       00009A08 00 00 00 00 00 00 00 00 00 00 
       00009A12 00 00 00 00 00 00 00 00 00 00 
       00009A1C 00 00 00 00 00 00 00 00 00 00 
       00009A26 00 00 00 00 00 00 00 00 00 00 
       00009A30 00 00 00 00 00 00 00 00 00 00 
       00009A3A 00 00 00 00 00 00 00 00 00 00 
       00009A44 00 00 00 00 00 00 00 00 00 00 
       00009A4E 00 00 00 00 00 00 00 00 00 00 
       00009A58 00 00 00 00 00 00 00 00 00 00 
       00009A62 00 00 00 00 00 00 00 00 00 00 
       00009A6C 00 00 00 00 00 00 00 00 00 00 
       00009A76 00 00 00 00 00 00 00 00 00 00 
       00009A80 00 00 00 00 00 00 00 00 00 00 
       00009A8A 00 00 00 00 00 00 00 00 00 00 
       00009A94 00 00 00 00 00 00 00 00 00 00 
       00009A9E 00 00 00 00 00 00 00 00 00 00 
       00009AA8 00 00 00 00 00 00 00 00 00 00 
       00009AB2 00 00 00 00 00 00 00 00 00 00 
       00009ABC 00 00 00 00 00 00 00 00 00 00 
       00009AC6 00 00 00 00 00 00 00 00 00 00 
       00009AD0 00 00 00 00 00 00 00 00 00 00 
       00009ADA 00 00 00 00 00 00 00 00 00 00 
       00009AE4 00 00 00 00 00 00 00 00 00 00 
       00009AEE 00 00 00 00 00 00 00 00 00 00 
       00009AF8 00 00 00 00 00 00 00 00 00 00 
       00009B02 00 00 00 00 00 00 00 00 00 00 
       00009B0C 00 00 00 00 00 00 00 00 00 00 
       00009B16 00 00 00 00 00 00 00 00 00 00 
       00009B20 00 00 00 00 00 00 00 00 00 00 
       00009B2A 00 00 00 00 00 00 00 00 00 00 
       00009B34 00 00 00 00 00 00 00 00 00 00 
       00009B3E 00 00 00 00 00 00 00 00 00 00 
       00009B48 00 00 00 00 00 00 00 00 00 00 
       00009B52 00 00 00 00 00 00 00 00 00 00 
       00009B5C 00 00 00 00 00 00 00 00 00 00 
       00009B66 00 00 00 00 00 00 00 00 00 00 
       00009B70 00 00 00 00 00 00 00 00 00 00 
       00009B7A 00 00 00 00 00 00 00 00 00 00 
       00009B84 00 00 00 00 00 00 00 00 00 00 
       00009B8E 00 00 00 00 00 00 00 00 00 00 
       00009B98 00 00 00 00 00 00 00 00 00 00 
       00009BA2 00 00 00 00 00 00 00 00 00 00 
       00009BAC 00 00 00 00 00 00 00 00 00 00 
       00009BB6 00 00 00 00 00 00 00 00 00 00 
       00009BC0 00 00 00 00 00 00 00 00 00 00 
       00009BCA 00 00 00 00 00 00 00 00 00 00 
       00009BD4 00 00 00 00 00 00 00 00 00 00 
       00009BDE 00 00 00 00 00 00 00 00 00 00 
       00009BE8 00 00 00 00 00 00 00 00 00 00 
       00009BF2 00 00 00 00 00 00 00 00 00 00 
       00009BFC 00 00 00 00 00 00 00 00 00 00 
       00009C06 00 00 00 00 00 00 00 00 00 00 
       00009C10 00 00 00 00 00 00 00 00 00 00 
       00009C1A 00 00 00 00 00 00 00 00 00 00 
       00009C24 00 00 00 00 00 00 00 00 00 00 
       00009C2E 00 00 00 00 00 00 00 00 00 00 
       00009C38 00 00 00 00 00 00 00 00 00 00 
       00009C42 00 00 00 00 00 00 00 00 00 00 
       00009C4C 00 00 00 00 00 00 00 00 00 00 
       00009C56 00 00 00 00 00 00 00 00 00 00 
       00009C60 00 00 00 00 00 00 00 00 00 00 
       00009C6A 00 00 00 00 00 00 00 00 00 00 
       00009C74 00 00 00 00 00 00 00 00 00 00 
       00009C7E 00 00 00 00 00 00 00 00 00 00 
       00009C88 00 00 00 00 00 00 00 00 00 00 
       00009C92 00 00 00 00 00 00 00 00 00 00 
       00009C9C 00 00 00 00 00 00 00 00 00 00 
       00009CA6 00 00 00 00 00 00 00 00 00 00 
       00009CB0 00 00 00 00 00 00 00 00 00 00 
       00009CBA 00 00 00 00 00 00 00 00 00 00 
       00009CC4 00 00 00 00 00 00 00 00 00 00 
       00009CCE 00 00 00 00 00 00 00 00 00 00 
       00009CD8 00 00 00 00 00 00 00 00 00 00 
       00009CE2 00 00 00 00 00 00 00 00 00 00 
       00009CEC 00 00 00 00 00 00 00 00 00 00 
       00009CF6 00 00 00 00 00 00 00 00 00 00 
       00009D00 00 00 00 00 00 00 00 00 00 00 
       00009D0A 00 00 00 00 00 00 00 00 00 00 
       00009D14 00 00 00 00 00 00 00 00 00 00 
       00009D1E 00 00 00 00 00 00 00 00 00 00 
       00009D28 00 00 00 00 00 00 00 00 00 00 
       00009D32 00 00 00 00 00 00 00 00 00 00 
       00009D3C 00 00 00 00 00 00 00 00 00 00 
       00009D46 00 00 00 00 00 00 00 00 00 00 
       00009D50 00 00 00 00 00 00 00 00 00 00 
       00009D5A 00 00 00 00 00 00 00 00 00 00 
       00009D64 00 00 00 00 00 00 00 00 00 00 
       00009D6E 00 00 00 00 00 00 00 00 00 00 
       00009D78 00 00 00 00 00 00 00 00 00 00 
       00009D82 00 00 00 00 00 00 00 00 00 00 
       00009D8C 00 00 00 00 00 00 00 00 00 00 
       00009D96 00 00 00 00 00 00 00 00 00 00 
       00009DA0 00 00 00 00 00 00 00 00 00 00 
       00009DAA 00 00 00 00 00 00 00 00 00 00 
       00009DB4 00 00 00 00 00 00 00 00 00 00 
       00009DBE 00 00 00 00 00 00 00 00 00 00 
       00009DC8 00 00 00 00 00 00 00 00 00 00 
       00009DD2 00 00 00 00 00 00 00 00 00 00 
       00009DDC 00 00 00 00 00 00 00 00 00 00 
       00009DE6 00 00 00 00 00 00 00 00 00 00 
       00009DF0 00 00 00 00 00 00 00 00 00 00 
       00009DFA 00 00 00 00 00 00 00 00 00 00 
       00009E04 00 00 00 00 00 00 00 00 00 00 
       00009E0E 00 00 00 00 00 00 00 00 00 00 
       00009E18 00 00 00 00 00 00 00 00 00 00 
       00009E22 00 00 00 00 00 00 00 00 00 00 
       00009E2C 00 00 00 00 00 00 00 00 00 00 
       00009E36 00 00 00 00 00 00 00 00 00 00 
       00009E40 00 00 00 00 00 00 00 00 00 00 
       00009E4A 00 00 00 00 00 00 00 00 00 00 
       00009E54 00 00 00 00 00 00 00 00 00 00 
       00009E5E 00 00 00 00 00 00 00 00 00 00 
       00009E68 00 00 00 00 00 00 00 00 00 00 
       00009E72 00 00 00 00 00 00 00 00 00 00 
       00009E7C 00 00 00 00 00 00 00 00 00 00 
       00009E86 00 00 00 00 00 00 00 00 00 00 
       00009E90 00 00 00 00 00 00 00 00 00 00 
       00009E9A 00 00 00 00 00 00 00 00 00 00 
       00009EA4 00 00 00 00 00 00 00 00 00 00 
       00009EAE 00 00 00 00 00 00 00 00 00 00 
       00009EB8 00 00 00 00 00 00 00 00 00 00 
       00009EC2 00 00 00 00 00 00 00 00 00 00 
       00009ECC 00 00 00 00 00 00 00 00 00 00 
       00009ED6 00 00 00 00 00 00 00 00 00 00 
       00009EE0 00 00 00 00 00 00 00 00 00 00 
       00009EEA 00 00 00 00 00 00 00 00 00 00 
       00009EF4 00 00 00 00 00 00 00 00 00 00 
       00009EFE 00 00 00 00 00 00 00 00 00 00 
       00009F08 00 00 00 00 00 00 00 00 00 00 
       00009F12 00 00 00 00 00 00 00 00 00 00 
       00009F1C 00 00 00 00 00 00 00 00 00 00 
       00009F26 00 00 00 00 00 00 00 00 00 00 
       00009F30 00 00 00 00 00 00 00 00 00 00 
       00009F3A 00 00 00 00 00 00 00 00 00 00 
       00009F44 00 00 00 00 00 00 00 00 00 00 
       00009F4E 00 00 00 00 00 00 00 00 00 00 
       00009F58 00 00 00 00 00 00 00 00 00 00 
       00009F62 00 00 00 00 00 00 00 00 00 00 
       00009F6C 00 00 00 00 00 00 00 00 00 00 
       00009F76 00 00 00 00 00 00 00 00 00 00 
       00009F80 00 00 00 00 00 00 00 00 00 00 
       00009F8A 00 00 00 00 00 00 00 00 00 00 
       00009F94 00 00 00 00 00 00 00 00 00 00 
       00009F9E 00 00 00 00 00 00 00 00 00 00 
       00009FA8 00 00 00 00 00 00 00 00 00 00 
       00009FB2 00 00 00 00 00 00 00 00 00 00 
       00009FBC 00 00 00 00 00 00 00 00 00 00 
       00009FC6 00 00 00 00 00 00 00 00 00 00 
       00009FD0 00 00 00 00 00 00 00 00 00 00 
       00009FDA 00 00 00 00 00 00 00 00 00 00 
       00009FE4 00 00 00 00 00 00 00 00 00 00 
       00009FEE 00 00 00 00 00 00 00 00 00 00 
       00009FF8 00 00 00 00 00 00 00 00 00 00 
       0000A002 00 00 00 00 00 00 00 00 00 00 
       0000A00C 00 00 00 00 00 00 00 00 00 00 
       0000A016 00 00 00 00 00 00 00 00 00 00 
       0000A020 00 00 00 00 00 00 00 00 00 00 
       0000A02A 00 00 00 00 00 00 00 00 00 00 
       0000A034 00 00 00 00 00 00 00 00 00 00 
       0000A03E 00 00 00 00 00 00 00 00 00 00 
       0000A048 00 00 00 00 00 00 00 00 00 00 
       0000A052 00 00 00 00 00 00 00 00 00 00 
       0000A05C 00 00 00 00 00 00 00 00 00 00 
       0000A066 00 00 00 00 00 00 00 00 00 00 
       0000A070 00 00 00 00 00 00 00 00 00 00 
       0000A07A 00 00 00 00 00 00 00 00 00 00 
       0000A084 00 00 00 00 00 00 00 00 00 00 
       0000A08E 00 00 00 00 00 00 00 00 00 00 
       0000A098 00 00 00 00 00 00 00 00 00 00 
       0000A0A2 00 00 00 00 00 00 00 00 00 00 
       0000A0AC 00 00 00 00 00 00 00 00 00 00 
       0000A0B6 00 00 00 00 00 00 00 00 00 00 
       0000A0C0 00 00 00 00 00 00 00 00 00 00 
       0000A0CA 00 00 00 00 00 00 00 00 00 00 
       0000A0D4 00 00 00 00 00 00 00 00 00 00 
       0000A0DE 00 00 00 00 00 00 00 00 00 00 
       0000A0E8 00 00 00 00 00 00 00 00 00 00 
       0000A0F2 00 00 00 00 00 00 00 00 00 00 
       0000A0FC 00 00 00 00 00 00 00 00 00 00 
       0000A106 00 00 00 00 00 00 00 00 00 00 
       0000A110 00 00 00 00 00 00 00 00 00 00 
       0000A11A 00 00 00 00 00 00 00 00 00 00 
       0000A124 00 00 00 00 00 00 00 00 00 00 
       0000A12E 00 00 00 00 00 00 00 00 00 00 
       0000A138 00 00 00 00 00 00 00 00 00 00 
       0000A142 00 00 00 00 00 00 00 00 00 00 
       0000A14C 00 00 00 00 00 00 00 00 00 00 
       0000A156 00 00 00 00 00 00 00 00 00 00 
       0000A160 00 00 00 00 00 00 00 00 00 00 
       0000A16A 00 00 00 00 00 00 00 00 00 00 
       0000A174 00 00 00 00 00 00 00 00 00 00 
       0000A17E 00 00 00 00 00 00 00 00 00 00 
       0000A188 00 00 00 00 00 00 00 00 00 00 
       0000A192 00 00 00 00 00 00 00 00 00 00 
       0000A19C 00 00 00 00 00 00 00 00 00 00 
       0000A1A6 00 00 00 00 00 00 00 00 00 00 
       0000A1B0 00 00 00 00 00 00 00 00 00 00 
       0000A1BA 00 00 00 00 00 00 00 00 00 00 
       0000A1C4 00 00 00 00 00 00 00 00 00 00 
       0000A1CE 00 00 00 00 00 00 00 00 00 00 
       0000A1D8 00 00 00 00 00 00 00 00 00 00 
       0000A1E2 00 00 00 00 00 00 00 00 00 00 
       0000A1EC 00 00 00 00 00 00 00 00 00 00 
       0000A1F6 00 00 00 00 00 00 00 00 00 00 
       0000A200 00 00 00 00 00 00 00 00 00 00 
       0000A20A 00 00 00 00 00 00 00 00 00 00 
       0000A214 00 00 00 00 00 00 00 00 00 00 
       0000A21E 00 00 00 00 00 00 00 00 00 00 
       0000A228 00 00 00 00 00 00 00 00 00 00 
       0000A232 00 00 00 00 00 00 00 00 00 00 
       0000A23C 00 00 00 00 00 00 00 00 00 00 
       0000A246 00 00 00 00 00 00 00 00 00 00 
       0000A250 00 00 00 00 00 00 00 00 00 00 
       0000A25A 00 00 00 00 00 00 00 00 00 00 
       0000A264 00 00 00 00 00 00 00 00 00 00 
       0000A26E 00 00 00 00 00 00 00 00 00 00 
       0000A278 00 00 00 00 00 00 00 00 00 00 
       0000A282 00 00 00 00 00 00 00 00 00 00 
       0000A28C 00 00 00 00 00 00 00 00 00 00 
       0000A296 00 00 00 00 00 00 00 00 00 00 
       0000A2A0 00 00 00 00 00 00 00 00 00 00 
       0000A2AA 00 00 00 00 00 00 00 00 00 00 
       0000A2B4 00 00 00 00 00 00 00 00 00 00 
       0000A2BE 00 00 00 00 00 00 00 00 00 00 
       0000A2C8 00 00 00 00 00 00 00 00 00 00 
       0000A2D2 00 00 00 00 00 00 00 00 00 00 
       0000A2DC 00 00 00 00 00 00 00 00 00 00 
       0000A2E6 00 00 00 00 00 00 00 00 00 00 
       0000A2F0 00 00 00 00 00 00 00 00 00 00 
       0000A2FA 00 00 00 00 00 00 00 00 00 00 
       0000A304 00 00 00 00 00 00 00 00 00 00 
       0000A30E 00 00 00 00 00 00 00 00 00 00 
       0000A318 00 00 00 00 00 00 00 00 00 00 
       0000A322 00 00 00 00 00 00 00 00 00 00 
       0000A32C 00 00 00 00 00 00 00 00 00 00 
       0000A336 00 00 00 00 00 00 00 00 00 00 
       0000A340 00 00 00 00 00 00 00 00 00 00 
       0000A34A 00 00 00 00 00 00 00 00 00 00 
       0000A354 00 00 00 00 00 00 00 00 00 00 
       0000A35E 00 00 00 00 00 00 00 00 00 00 
       0000A368 00 00 00 00 00 00 00 00 00 00 
       0000A372 00 00 00 00 00 00 00 00 00 00 
       0000A37C 00 00 00 00 00 00 00 00 00 00 
       0000A386 00 00 00 00 00 00 00 00 00 00 
       0000A390 00 00 00 00 00 00 00 00 00 00 
       0000A39A 00 00 00 00 00 00 00 00 00 00 
       0000A3A4 00 00 00 00 00 00 00 00 00 00 
       0000A3AE 00 00 00 00 00 00 00 00 00 00 
       0000A3B8 00 00 00 00 00 00 00 00 00 00 
       0000A3C2 00 00 00 00 00 00 00 00 00 00 
       0000A3CC 00 00 00 00 00 00 00 00 00 00 
       0000A3D6 00 00 00 00 00 00 00 00 00 00 
       0000A3E0 00 00 00 00 00 00 00 00 00 00 
       0000A3EA 00 00 00 00 00 00 00 00 00 00 
       0000A3F4 00 00 00 00 00 00 00 00 00 00 
       0000A3FE 00 00 00 00 00 00 00 00 00 00 
       0000A408 00 00 00 00 00 00 00 00 00 00 
       0000A412 00 00 00 00 00 00 00 00 00 00 
       0000A41C 00 00 00 00 00 00 00 00 00 00 
       0000A426 00 00 00 00 00 00 00 00 00 00 
       0000A430 00 00 00 00 00 00 00 00 00 00 
       0000A43A 00 00 00 00 00 00 00 00 00 00 
       0000A444 00 00 00 00 00 00 00 00 00 00 
       0000A44E 00 00 00 00 00 00 00 00 00 00 
       0000A458 00 00 00 00 00 00 00 00 00 00 
       0000A462 00 00 00 00 00 00 00 00 00 00 
       0000A46C 00 00 00 00 00 00 00 00 00 00 
       0000A476 00 00 00 00 00 00 00 00 00 00 
       0000A480 00 00 00 00 00 00 00 00 00 00 
       0000A48A 00 00 00 00 00 00 00 00 00 00 
       0000A494 00 00 00 00 00 00 00 00 00 00 
       0000A49E 00 00 00 00 00 00 00 00 00 00 
       0000A4A8 00 00 00 00 00 00 00 00 00 00 
       0000A4B2 00 00 00 00 00 00 00 00 00 00 
       0000A4BC 00 00 00 00 00 00 00 00 00 00 
       0000A4C6 00 00 00 00 00 00 00 00 00 00 
       0000A4D0 00 00 00 00 00 00 00 00 00 00 
       0000A4DA 00 00 00 00 00 00 00 00 00 00 
       0000A4E4 00 00 00 00 00 00 00 00 00 00 
       0000A4EE 00 00 00 00 00 00 00 00 00 00 
       0000A4F8 00 00 00 00 00 00 00 00 00 00 
       0000A502 00 00 00 00 00 00 00 00 00 00 
       0000A50C 00 00 00 00 00 00 00 00 00 00 
       0000A516 00 00 00 00 00 00 00 00 00 00 
       0000A520 00 00 00 00 00 00 00 00 00 00 
       0000A52A 00 00 00 00 00 00 00 00 00 00 
       0000A534 00 00 00 00 00 00 00 00 00 00 
       0000A53E 00 00 00 00 00 00 00 00 00 00 
       0000A548 00 00 00 00 00 00 00 00 00 00 
       0000A552 00 00 00 00 00 00 00 00 00 00 
       0000A55C 00 00 00 00 00 00 00 00 00 00 
       0000A566 00 00 00 00 00 00 00 00 00 00 
       0000A570 00 00 00 00 00 00 00 00 00 00 
       0000A57A 00 00 00 00 00 00 00 00 00 00 
       0000A584 00 00 00 00 00 00 00 00 00 00 
       0000A58E 00 00 00 00 00 00 00 00 00 00 
       0000A598 00 00 00 00 00 00 00 00 00 00 
       0000A5A2 00 00 00 00 00 00 00 00 00 00 
       0000A5AC 00 00 00 00 00 00 00 00 00 00 
       0000A5B6 00 00 00 00 00 00 00 00 00 00 
       0000A5C0 00 00 00 00 00 00 00 00 00 00 
       0000A5CA 00 00 00 00 00 00 00 00 00 00 
       0000A5D4 00 00 00 00 00 00 00 00 00 00 
       0000A5DE 00 00 00 00 00 00 00 00 00 00 
       0000A5E8 00 00 00 00 00 00 00 00 00 00 
       0000A5F2 00 00 00 00 00 00 00 00 00 00 
       0000A5FC 00 00 00 00 00 00 00 00 00 00 
       0000A606 00 00 00 00 00 00 00 00 00 00 
       0000A610 00 00 00 00 00 00 00 00 00 00 
       0000A61A 00 00 00 00 00 00 00 00 00 00 
       0000A624 00 00 00 00 00 00 00 00 00 00 
       0000A62E 00 00 00 00 00 00 00 00 00 00 
       0000A638 00 00 00 00 00 00 00 00 00 00 
       0000A642 00 00 00 00 00 00 00 00 00 00 
       0000A64C 00 00 00 00 00 00 00 00 00 00 
       0000A656 00 00 00 00 00 00 00 00 00 00 
       0000A660 00 00 00 00 00 00 00 00 00 00 
       0000A66A 00 00 00 00 00 00 00 00 00 00 
       0000A674 00 00 00 00 00 00 00 00 00 00 
       0000A67E 00 00 00 00 00 00 00 00 00 00 
       0000A688 00 00 00 00 00 00 00 00 00 00 
       0000A692 00 00 00 00 00 00 00 00 00 00 
       0000A69C 00 00 00 00 00 00 00 00 00 00 
       0000A6A6 00 00 00 00 00 00 00 00 00 00 
       0000A6B0 00 00 00 00 00 00 00 00 00 00 
       0000A6BA 00 00 00 00 00 00 00 00 00 00 
       0000A6C4 00 00 00 00 00 00 00 00 00 00 
       0000A6CE 00 00 00 00 00 00 00 00 00 00 
       0000A6D8 00 00 00 00 00 00 00 00 00 00 
       0000A6E2 00 00 00 00 00 00 00 00 00 00 
       0000A6EC 00 00 00 00 00 00 00 00 00 00 
       0000A6F6 00 00 00 00 00 00 00 00 00 00 
       0000A700 00 00 00 00 00 00 00 00 00 00 
       0000A70A 00 00 00 00 00 00 00 00 00 00 
       0000A714 00 00 00 00 00 00 00 00 00 00 
       0000A71E 00 00 00 00 00 00 00 00 00 00 
       0000A728 00 00 00 00 00 00 00 00 00 00 
       0000A732 00 00 00 00 00 00 00 00 00 00 
       0000A73C 00 00 00 00 00 00 00 00 00 00 
       0000A746 00 00 00 00 00 00 00 00 00 00 
       0000A750 00 00 00 00 00 00 00 00 00 00 
       0000A75A 00 00 00 00 00 00 00 00 00 00 
       0000A764 00 00 00 00 00 00 00 00 00 00 
       0000A76E 00 00 00 00 00 00 00 00 00 00 
       0000A778 00 00 00 00 00 00 00 00 00 00 
       0000A782 00 00 00 00 00 00 00 00 00 00 
       0000A78C 00 00 00 00 00 00 00 00 00 00 
       0000A796 00 00 00 00 00 00 00 00 00 00 
       0000A7A0 00 00 00 00 00 00 00 00 00 00 
       0000A7AA 00 00 00 00 00 00 00 00 00 00 
       0000A7B4 00 00 00 00 00 00 00 00 00 00 
       0000A7BE 00 00 00 00 00 00 00 00 00 00 
       0000A7C8 00 00 00 00 00 00 00 00 00 00 
       0000A7D2 00 00 00 00 00 00 00 00 00 00 
       0000A7DC 00 00 00 00 00 00 00 00 00 00 
       0000A7E6 00 00 00 00 00 00 00 00 00 00 
       0000A7F0 00 00 00 00 00 00 00 00 00 00 
       0000A7FA 00 00 00 00 00 00 00 00 00 00 
       0000A804 00 00 00 00 00 00 00 00 00 00 
       0000A80E 00 00 00 00 00 00 00 00 00 00 
       0000A818 00 00 00 00 00 00 00 00 00 00 
       0000A822 00 00 00 00 00 00 00 00 00 00 
       0000A82C 00 00 00 00 00 00 00 00 00 00 
       0000A836 00 00 00 00 00 00 00 00 00 00 
       0000A840 00 00 00 00 00 00 00 00 00 00 
       0000A84A 00 00 00 00 00 00 00 00 00 00 
       0000A854 00 00 00 00 00 00 00 00 00 00 
       0000A85E 00 00 00 00 00 00 00 00 00 00 
       0000A868 00 00 00 00 00 00 00 00 00 00 
       0000A872 00 00 00 00 00 00 00 00 00 00 
       0000A87C 00 00 00 00 00 00 00 00 00 00 
       0000A886 00 00 00 00 00 00 00 00 00 00 
       0000A890 00 00 00 00 00 00 00 00 00 00 
       0000A89A 00 00 00 00 00 00 00 00 00 00 
       0000A8A4 00 00 00 00 00 00 00 00 00 00 
       0000A8AE 00 00 00 00 00 00 00 00 00 00 
       0000A8B8 00 00 00 00 00 00 00 00 00 00 
       0000A8C2 00 00 00 00 00 00 00 00 00 00 
       0000A8CC 00 00 00 00 00 00 00 00 00 00 
       0000A8D6 00 00 00 00 00 00 00 00 00 00 
       0000A8E0 00 00 00 00 00 00 00 00 00 00 
       0000A8EA 00 00 00 00 00 00 00 00 00 00 
       0000A8F4 00 00 00 00 00 00 00 00 00 00 
       0000A8FE 00 00 00 00 00 00 00 00 00 00 
       0000A908 00 00 00 00 00 00 00 00 00 00 
       0000A912 00 00 00 00 00 00 00 00 00 00 
       0000A91C 00 00 00 00 00 00 00 00 00 00 
       0000A926 00 00 00 00 00 00 00 00 00 00 
       0000A930 00 00 00 00 00 00 00 00 00 00 
       0000A93A 00 00 00 00 00 00 00 00 00 00 
       0000A944 00 00 00 00 00 00 00 00 00 00 
       0000A94E 00 00 00 00 00 00 00 00 00 00 
       0000A958 00 00 00 00 00 00 00 00 00 00 
       0000A962 00 00 00 00 00 00 00 00 00 00 
       0000A96C 00 00 00 00 00 00 00 00 00 00 
       0000A976 00 00 00 00 00 00 00 00 00 00 
       0000A980 00 00 00 00 00 00 00 00 00 00 
       0000A98A 00 00 00 00 00 00 00 00 00 00 
       0000A994 00 00 00 00 00 00 00 00 00 00 
       0000A99E 00 00 00 00 00 00 00 00 00 00 
       0000A9A8 00 00 00 00 00 00 00 00 00 00 
       0000A9B2 00 00 00 00 00 00 00 00 00 00 
       0000A9BC 00 00 00 00 00 00 00 00 00 00 
       0000A9C6 00 00 00 00 00 00 00 00 00 00 
       0000A9D0 00 00 00 00 00 00 00 00 00 00 
       0000A9DA 00 00 00 00 00 00 00 00 00 00 
       0000A9E4 00 00 00 00 00 00 00 00 00 00 
       0000A9EE 00 00 00 00 00 00 00 00 00 00 
       0000A9F8 00 00 00 00 00 00 00 00 00 00 
       0000AA02 00 00 00 00 00 00 00 00 00 00 
       0000AA0C 00 00 00 00 00 00 00 00 00 00 
       0000AA16 00 00 00 00 00 00 00 00 00 00 
       0000AA20 00 00 00 00 00 00 00 00 00 00 
       0000AA2A 00 00 00 00 00 00 00 00 00 00 
       0000AA34 00 00 00 00 00 00 00 00 00 00 
       0000AA3E 00 00 00 00 00 00 00 00 00 00 
       0000AA48 00 00 00 00 00 00 00 00 00 00 
       0000AA52 00 00 00 00 00 00 00 00 00 00 
       0000AA5C 00 00 00 00 00 00 00 00 00 00 
       0000AA66 00 00 00 00 00 00 00 00 00 00 
       0000AA70 00 00 00 00 00 00 00 00 00 00 
       0000AA7A 00 00 00 00 00 00 00 00 00 00 
       0000AA84 00 00 00 00 00 00 00 00 00 00 
       0000AA8E 00 00 00 00 00 00 00 00 00 00 
       0000AA98 00 00 00 00 00 00 00 00 00 00 
       0000AAA2 00 00 00 00 00 00 00 00 00 00 
       0000AAAC 00 00 00 00 00 00 00 00 00 00 
       0000AAB6 00 00 00 00 00 00 00 00 00 00 
       0000AAC0 00 00 00 00 00 00 00 00 00 00 
       0000AACA 00 00 00 00 00 00 00 00 00 00 
       0000AAD4 00 00 00 00 00 00 00 00 00 00 
       0000AADE 00 00 00 00 00 00 00 00 00 00 
       0000AAE8 00 00 00 00 00 00 00 00 00 00 
       0000AAF2 00 00 00 00 00 00 00 00 00 00 
       0000AAFC 00 00 00 00 00 00 00 00 00 00 
       0000AB06 00 00 00 00 00 00 00 00 00 00 
       0000AB10 00 00 00 00 00 00 00 00 00 00 
       0000AB1A 00 00 00 00 00 00 00 00 00 00 
       0000AB24 00 00 00 00 00 00 00 00 00 00 
       0000AB2E 00 00 00 00 00 00 00 00 00 00 
       0000AB38 00 00 00 00 00 00 00 00 00 00 
       0000AB42 00 00 00 00 00 00 00 00 00 00 
       0000AB4C 00 00 00 00 00 00 00 00 00 00 
       0000AB56 00 00 00 00 00 00 00 00 00 00 
       0000AB60 00 00 00 00 00 00 00 00 00 00 
       0000AB6A 00 00 00 00 00 00 00 00 00 00 
       0000AB74 00 00 00 00 00 00 00 00 00 00 
       0000AB7E 00 00 00 00 00 00 00 00 00 00 
       0000AB88 00 00 00 00 00 00 00 00 00 00 
       0000AB92 00 00 00 00 00 00 00 00 00 00 
       0000AB9C 00 00 00 00 00 00 00 00 00 00 
       0000ABA6 00 00 00 00 00 00 00 00 00 00 
       0000ABB0 00 00 00 00 00 00 00 00 00 00 
       0000ABBA 00 00 00 00 00 00 00 00 00 00 
       0000ABC4 00 00 00 00 00 00 00 00 00 00 
       0000ABCE 00 00 00 00 00 00 00 00 00 00 
       0000ABD8 00 00 00 00 00 00 00 00 00 00 
       0000ABE2 00 00 00 00 00 00 00 00 00 00 
       0000ABEC 00 00 00 00 00 00 00 00 00 00 
       0000ABF6 00 00 00 00 00 00 00 00 00 00 
       0000AC00 00 00 00 00 00 00 00 00 00 00 
       0000AC0A 00 00 00 00 00 00 00 00 00 00 
       0000AC14 00 00 00 00 00 00 00 00 00 00 
       0000AC1E 00 00 00 00 00 00 00 00 00 00 
       0000AC28 00 00 00 00 00 00 00 00 00 00 
       0000AC32 00 00 00 00 00 00 00 00 00 00 
       0000AC3C 00 00 00 00 00 00 00 00 00 00 
       0000AC46 00 00 00 00 00 00 00 00 00 00 
       0000AC50 00 00 00 00 00 00 00 00 00 00 
       0000AC5A 00 00 00 00 00 00 00 00 00 00 
       0000AC64 00 00 00 00 00 00 00 00 00 00 
       0000AC6E 00 00 00 00 00 00 00 00 00 00 
       0000AC78 00 00 00 00 00 00 00 00 00 00 
       0000AC82 00 00 00 00 00 00 00 00 00 00 
       0000AC8C 00 00 00 00 00 00 00 00 00 00 
       0000AC96 00 00 00 00 00 00 00 00 00 00 
       0000ACA0 00 00 00 00 00 00 00 00 00 00 
       0000ACAA 00 00 00 00 00 00 00 00 00 00 
       0000ACB4 00 00 00 00 00 00 00 00 00 00 
       0000ACBE 00 00 00 00 00 00 00 00 00 00 
       0000ACC8 00 00 00 00 00 00 00 00 00 00 
       0000ACD2 00 00 00 00 00 00 00 00 00 00 
       0000ACDC 00 00 00 00 00 00 00 00 00 00 
       0000ACE6 00 00 00 00 00 00 00 00 00 00 
       0000ACF0 00 00 00 00 00 00 00 00 00 00 
       0000ACFA 00 00 00 00 00 00 00 00 00 00 
       0000AD04 00 00 00 00 00 00 00 00 00 00 
       0000AD0E 00 00 00 00 00 00 00 00 00 00 
       0000AD18 00 00 00 00 00 00 00 00 00 00 
       0000AD22 00 00 00 00 00 00 00 00 00 00 
       0000AD2C 00 00 00 00 00 00 00 00 00 00 
       0000AD36 00 00 00 00 00 00 00 00 00 00 
       0000AD40 00 00 00 00 00 00 00 00 00 00 
       0000AD4A 00 00 00 00 00 00 00 00 00 00 
       0000AD54 00 00 00 00 00 00 00 00 00 00 
       0000AD5E 00 00 00 00 00 00 00 00 00 00 
       0000AD68 00 00 00 00 00 00 00 00 00 00 
       0000AD72 00 00 00 00 00 00 00 00 00 00 
       0000AD7C 00 00 00 00 00 00 00 00 00 00 
       0000AD86 00 00 00 00 00 00 00 00 00 00 
       0000AD90 00 00 00 00 00 00 00 00 00 00 
       0000AD9A 00 00 00 00 00 00 00 00 00 00 
       0000ADA4 00 00 00 00 00 00 00 00 00 00 
       0000ADAE 00 00 00 00 00 00 00 00 00 00 
       0000ADB8 00 00 00 00 00 00 00 00 00 00 
       0000ADC2 00 00 00 00 00 00 00 00 00 00 
       0000ADCC 00 00 00 00 00 00 00 00 00 00 
       0000ADD6 00 00 00 00 00 00 00 00 00 00 
       0000ADE0 00 00 00 00 00 00 00 00 00 00 
       0000ADEA 00 00 00 00 00 00 00 00 00 00 
       0000ADF4 00 00 00 00 00 00 00 00 00 00 
       0000ADFE 00 00 00 00 00 00 00 00 00 00 
       0000AE08 00 00 00 00 00 00 00 00 00 00 
       0000AE12 00 00 00 00 00 00 00 00 00 00 
       0000AE1C 00 00 00 00 00 00 00 00 00 00 
       0000AE26 00 00 00 00 00 00 00 00 00 00 
       0000AE30 00 00 00 00 00 00 00 00 00 00 
       0000AE3A 00 00 00 00 00 00 00 00 00 00 
       0000AE44 00 00 00 00 00 00 00 00 00 00 
       0000AE4E 00 00 00 00 00 00 00 00 00 00 
       0000AE58 00 00 00 00 00 00 00 00 00 00 
       0000AE62 00 00 00 00 00 00 00 00 00 00 
       0000AE6C 00 00 00 00 00 00 00 00 00 00 
       0000AE76 00 00 00 00 00 00 00 00 00 00 
       0000AE80 00 00 00 00 00 00 00 00 00 00 
       0000AE8A 00 00 00 00 00 00 00 00 00 00 
       0000AE94 00 00 00 00 00 00 00 00 00 00 
       0000AE9E 00 00 00 00 00 00 00 00 00 00 
       0000AEA8 00 00 00 00 00 00 00 00 00 00 
       0000AEB2 00 00 00 00 00 00 00 00 00 00 
       0000AEBC 00 00 00 00 00 00 00 00 00 00 
       0000AEC6 00 00 00 00 00 00 00 00 00 00 
       0000AED0 00 00 00 00 00 00 00 00 00 00 
       0000AEDA 00 00 00 00 00 00 00 00 00 00 
       0000AEE4 00 00 00 00 00 00 00 00 00 00 
       0000AEEE 00 00 00 00 00 00 00 00 00 00 
       0000AEF8 00 00 00 00 00 00 00 00 00 00 
       0000AF02 00 00 00 00 00 00 00 00 00 00 
       0000AF0C 00 00 00 00 00 00 00 00 00 00 
       0000AF16 00 00 00 00 00 00 00 00 00 00 
       0000AF20 00 00 00 00 00 00 00 00 00 00 
       0000AF2A 00 00 00 00 00 00 00 00 00 00 
       0000AF34 00 00 00 00 00 00 00 00 00 00 
       0000AF3E 00 00 00 00 00 00 00 00 00 00 
       0000AF48 00 00 00 00 00 00 00 00 00 00 
       0000AF52 00 00 00 00 00 00 00 00 00 00 
       0000AF5C 00 00 00 00 00 00 00 00 00 00 
       0000AF66 00 00 00 00 00 00 00 00 00 00 
       0000AF70 00 00 00 00 00 00 00 00 00 00 
       0000AF7A 00 00 00 00 00 00 00 00 00 00 
       0000AF84 00 00 00 00 00 00 00 00 00 00 
       0000AF8E 00 00 00 00 00 00 00 00 00 00 
       0000AF98 00 00 00 00 00 00 00 00 00 00 
       0000AFA2 00 00 00 00 00 00 00 00 00 00 
       0000AFAC 00 00 00 00 00 00 00 00 00 00 
       0000AFB6 00 00 00 00 00 00 00 00 00 00 
       0000AFC0 00 00 00 00 00 00 00 00 00 00 
       0000AFCA 00 00 00 00 00 00 00 00 00 00 
       0000AFD4 00 00 00 00 00 00 00 00 00 00 
       0000AFDE 00 00 00 00 00 00 00 00 00 00 
       0000AFE8 00 00 00 00 00 00 00 00 00 00 
       0000AFF2 00 00 00 00 00 00 00 00 00 00 
       0000AFFC 00 00 00 00 00 00 00 00 00 00 
       0000B006 00 00 00 00 00 00 00 00 00 00 
       0000B010 00 00 00 00 00 00 00 00 00 00 
       0000B01A 00 00 00 00 00 00 00 00 00 00 
       0000B024 00 00 00 00 00 00 00 00 00 00 
       0000B02E 00 00 00 00 00 00 00 00 00 00 
       0000B038 00 00 00 00 00 00 00 00 00 00 
       0000B042 00 00 00 00 00 00 00 00 00 00 
       0000B04C 00 00 00 00 00 00 00 00 00 00 
       0000B056 00 00 00 00 00 00 00 00 00 00 
       0000B060 00 00 00 00 00 00 00 00 00 00 
       0000B06A 00 00 00 00 00 00 00 00 00 00 
       0000B074 00 00 00 00 00 00 00 00 00 00 
       0000B07E 00 00 00 00 00 00 00 00 00 00 
       0000B088 00 00 00 00 00 00 00 00 00 00 
       0000B092 00 00 00 00 00 00 00 00 00 00 
       0000B09C 00 00 00 00 00 00 00 00 00 00 
       0000B0A6 00 00 00 00 00 00 00 00 00 00 
       0000B0B0 00 00 00 00 00 00 00 00 00 00 
       0000B0BA 00 00 00 00 00 00 00 00 00 00 
       0000B0C4 00 00 00 00 00 00 00 00 00 00 
       0000B0CE 00 00 00 00 00 00 00 00 00 00 
       0000B0D8 00 00 00 00 00 00 00 00 00 00 
       0000B0E2 00 00 00 00 00 00 00 00 00 00 
       0000B0EC 00 00 00 00 00 00 00 00 00 00 
       0000B0F6 00 00 00 00 00 00 00 00 00 00 
       0000B100 00 00 00 00 00 00 00 00 00 00 
       0000B10A 00 00 00 00 00 00 00 00 00 00 
       0000B114 00 00 00 00 00 00 00 00 00 00 
       0000B11E 00 00 00 00 00 00 00 00 00 00 
       0000B128 00 00 00 00 00 00 00 00 00 00 
       0000B132 00 00 00 00 00 00 00 00 00 00 
       0000B13C 00 00 00 00 00 00 00 00 00 00 
       0000B146 00 00 00 00 00 00 00 00 00 00 
       0000B150 00 00 00 00 00 00 00 00 00 00 
       0000B15A 00 00 00 00 00 00 00 00 00 00 
       0000B164 00 00 00 00 00 00 00 00 00 00 
       0000B16E 00 00 00 00 00 00 00 00 00 00 
       0000B178 00 00 00 00 00 00 00 00 00 00 
       0000B182 00 00 00 00 00 00 00 00 00 00 
       0000B18C 00 00 00 00 00 00 00 00 00 00 
       0000B196 00 00 00 00 00 00 00 00 00 00 
       0000B1A0 00 00 00 00 00 00 00 00 00 00 
       0000B1AA 00 00 00 00 00 00 00 00 00 00 
       0000B1B4 00 00 00 00 00 00 00 00 00 00 
       0000B1BE 00 00 00 00 00 00 00 00 00 00 
       0000B1C8 00 00 00 00 00 00 00 00 00 00 
       0000B1D2 00 00 00 00 00 00 00 00 00 00 
       0000B1DC 00 00 00 00 00 00 00 00 00 00 
       0000B1E6 00 00 00 00 00 00 00 00 00 00 
       0000B1F0 00 00 00 00 00 00 00 00 00 00 
       0000B1FA 00 00 00 00 00 00 00 00 00 00 
       0000B204 00 00 00 00 00 00 00 00 00 00 
       0000B20E 00 00 00 00 00 00 00 00 00 00 
       0000B218 00 00 00 00 00 00 00 00 00 00 
       0000B222 00 00 00 00 00 00 00 00 00 00 
       0000B22C 00 00 00 00 00 00 00 00 00 00 
       0000B236 00 00 00 00 00 00 00 00 00 00 
       0000B240 00 00 00 00 00 00 00 00 00 00 
       0000B24A 00 00 00 00 00 00 00 00 00 00 
       0000B254 00 00 00 00 00 00 00 00 00 00 
       0000B25E 00 00 00 00 00 00 00 00 00 00 
       0000B268 00 00 00 00 00 00 00 00 00 00 
       0000B272 00 00 00 00 00 00 00 00 00 00 
       0000B27C 00 00 00 00 00 00 00 00 00 00 
       0000B286 00 00 00 00 00 00 00 00 00 00 
       0000B290 00 00 00 00 00 00 00 00 00 00 
       0000B29A 00 00 00 00 00 00 00 00 00 00 
       0000B2A4 00 00 00 00 00 00 00 00 00 00 
       0000B2AE 00 00 00 00 00 00 00 00 00 00 
       0000B2B8 00 00 00 00 00 00 00 00 00 00 
       0000B2C2 00 00 00 00 00 00 00 00 00 00 
       0000B2CC 00 00 00 00 00 00 00 00 00 00 
       0000B2D6 00 00 00 00 00 00 00 00 00 00 
       0000B2E0 00 00 00 00 00 00 00 00 00 00 
       0000B2EA 00 00 00 00 00 00 00 00 00 00 
       0000B2F4 00 00 00 00 00 00 00 00 00 00 
       0000B2FE 00 00 00 00 00 00 00 00 00 00 
       0000B308 00 00 00 00 00 00 00 00 00 00 
       0000B312 00 00 00 00 00 00 00 00 00 00 
       0000B31C 00 00 00 00 00 00 00 00 00 00 
       0000B326 00 00 00 00 00 00 00 00 00 00 
       0000B330 00 00 00 00 00 00 00 00 00 00 
       0000B33A 00 00 00 00 00 00 00 00 00 00 
       0000B344 00 00 00 00 00 00 00 00 00 00 
       0000B34E 00 00 00 00 00 00 00 00 00 00 
       0000B358 00 00 00 00 00 00 00 00 00 00 
       0000B362 00 00 00 00 00 00 00 00 00 00 
       0000B36C 00 00 00 00 00 00 00 00 00 00 
       0000B376 00 00 00 00 00 00 00 00 00 00 
       0000B380 00 00 00 00 00 00 00 00 00 00 
       0000B38A 00 00 00 00 00 00 00 00 00 00 
       0000B394 00 00 00 00 00 00 00 00 00 00 
       0000B39E 00 00 00 00 00 00 00 00 00 00 
       0000B3A8 00 00 00 00 00 00 00 00 00 00 
       0000B3B2 00 00 00 00 00 00 00 00 00 00 
       0000B3BC 00 00 00 00 00 00 00 00 00 00 
       0000B3C6 00 00 00 00 00 00 00 00 00 00 
       0000B3D0 00 00 00 00 00 00 00 00 00 00 
       0000B3DA 00 00 00 00 00 00 00 00 00 00 
       0000B3E4 00 00 00 00 00 00 00 00 00 00 
       0000B3EE 00 00 00 00 00 00 00 00 00 00 
       0000B3F8 00 00 00 00 00 00 00 00 00 00 
       0000B402 00 00 00 00 00 00 00 00 00 00 
       0000B40C 00 00 00 00 00 00 00 00 00 00 
       0000B416 00 00 00 00 00 00 00 00 00 00 
       0000B420 00 00 00 00 00 00 00 00 00 00 
       0000B42A 00 00 00 00 00 00 00 00 00 00 
       0000B434 00 00 00 00 00 00 00 00 00 00 
       0000B43E 00 00 00 00 00 00 00 00 00 00 
       0000B448 00 00 00 00 00 00 00 00 00 00 
       0000B452 00 00 00 00 00 00 00 00 00 00 
       0000B45C 00 00 00 00 00 00 00 00 00 00 
       0000B466 00 00 00 00 00 00 00 00 00 00 
       0000B470 00 00 00 00 00 00 00 00 00 00 
       0000B47A 00 00 00 00 00 00 00 00 00 00 
       0000B484 00 00 00 00 00 00 00 00 00 00 
       0000B48E 00 00 00 00 00 00 00 00 00 00 
       0000B498 00 00 00 00 00 00 00 00 00 00 
       0000B4A2 00 00 00 00 00 00 00 00 00 00 
       0000B4AC 00 00 00 00 00 00 00 00 00 00 
       0000B4B6 00 00 00 00 00 00 00 00 00 00 
       0000B4C0 00 00 00 00 00 00 00 00 00 00 
       0000B4CA 00 00 00 00 00 00 00 00 00 00 
       0000B4D4 00 00 00 00 00 00 00 00 00 00 
       0000B4DE 00 00 00 00 00 00 00 00 00 00 
       0000B4E8 00 00 00 00 00 00 00 00 00 00 
       0000B4F2 00 00 00 00 00 00 00 00 00 00 
       0000B4FC 00 00 00 00 00 00 00 00 00 00 
       0000B506 00 00 00 00 00 00 00 00 00 00 
       0000B510 00 00 00 00 00 00 00 00 00 00 
       0000B51A 00 00 00 00 00 00 00 00 00 00 
       0000B524 00 00 00 00 00 00 00 00 00 00 
       0000B52E 00 00 00 00 00 00 00 00 00 00 
       0000B538 00 00 00 00 00 00 00 00 00 00 
       0000B542 00 00 00 00 00 00 00 00 00 00 
       0000B54C 00 00 00 00 00 00 00 00 00 00 
       0000B556 00 00 00 00 00 00 00 00 00 00 
       0000B560 00 00 00 00 00 00 00 00 00 00 
       0000B56A 00 00 00 00 00 00 00 00 00 00 
       0000B574 00 00 00 00 00 00 00 00 00 00 
       0000B57E 00 00 00 00 00 00 00 00 00 00 
       0000B588 00 00 00 00 00 00 00 00 00 00 
       0000B592 00 00 00 00 00 00 00 00 00 00 
       0000B59C 00 00 00 00 00 00 00 00 00 00 
       0000B5A6 00 00 00 00 00 00 00 00 00 00 
       0000B5B0 00 00 00 00 00 00 00 00 00 00 
       0000B5BA 00 00 00 00 00 00 00 00 00 00 
       0000B5C4 00 00 00 00 00 00 00 00 00 00 
       0000B5CE 00 00 00 00 00 00 00 00 00 00 
       0000B5D8 00 00 00 00 00 00 00 00 00 00 
       0000B5E2 00 00 00 00 00 00 00 00 00 00 
       0000B5EC 00 00 00 00 00 00 00 00 00 00 
       0000B5F6 00 00 00 00 00 00 00 00 00 00 
       0000B600 00 00 00 00 00 00 00 00 00 00 
       0000B60A 00 00 00 00 00 00 00 00 00 00 
       0000B614 00 00 00 00 00 00 00 00 00 00 
       0000B61E 00 00 00 00 00 00 00 00 00 00 
       0000B628 00 00 00 00 00 00 00 00 00 00 
       0000B632 00 00 00 00 00 00 00 00 00 00 
       0000B63C 00 00 00 00 00 00 00 00 00 00 
       0000B646 00 00 00 00 00 00 00 00 00 00 
       0000B650 00 00 00 00 00 00 00 00 00 00 
       0000B65A 00 00 00 00 00 00 00 00 00 00 
       0000B664 00 00 00 00 00 00 00 00 00 00 
       0000B66E 00 00 00 00 00 00 00 00 00 00 
       0000B678 00 00 00 00 00 00 00 00 00 00 
       0000B682 00 00 00 00 00 00 00 00 00 00 
       0000B68C 00 00 00 00 00 00 00 00 00 00 
       0000B696 00 00 00 00 00 00 00 00 00 00 
       0000B6A0 00 00 00 00 00 00 00 00 00 00 
       0000B6AA 00 00 00 00 00 00 00 00 00 00 
       0000B6B4 00 00 00 00 00 00 00 00 00 00 
       0000B6BE 00 00 00 00 00 00 00 00 00 00 
       0000B6C8 00 00 00 00 00 00 00 00 00 00 
       0000B6D2 00 00 00 00 00 00 00 00 00 00 
       0000B6DC 00 00 00 00 00 00 00 00 00 00 
       0000B6E6 00 00 00 00 00 00 00 00 00 00 
       0000B6F0 00 00 00 00 00 00 00 00 00 00 
       0000B6FA 00 00 00 00 00 00 00 00 00 00 
       0000B704 00 00 00 00 00 00 00 00 00 00 
       0000B70E 00 00 00 00 00 00 00 00 00 00 
       0000B718 00 00 00 00 00 00 00 00 00 00 
       0000B722 00 00 00 00 00 00 00 00 00 00 
       0000B72C 00 00 00 00 00 00 00 00 00 00 
       0000B736 00 00 00 00 00 00 00 00 00 00 
       0000B740 00 00 00 00 00 00 00 00 00 00 
       0000B74A 00 00 00 00 00 00 00 00 00 00 
       0000B754 00 00 00 00 00 00 00 00 00 00 
       0000B75E 00 00 00 00 00 00 00 00 00 00 
       0000B768 00 00 00 00 00 00 00 00 00 00 
       0000B772 00 00 00 00 00 00 00 00 00 00 
       0000B77C 00 00 00 00 00 00 00 00 00 00 
       0000B786 00 00 00 00 00 00 00 00 00 00 
       0000B790 00 00 00 00 00 00 00 00 00 00 
       0000B79A 00 00 00 00 00 00 00 00 00 00 
       0000B7A4 00 00 00 00 00 00 00 00 00 00 
       0000B7AE 00 00 00 00 00 00 00 00 00 00 
       0000B7B8 00 00 00 00 00 00 00 00 00 00 
       0000B7C2 00 00 00 00 00 00 00 00 00 00 
       0000B7CC 00 00 00 00 00 00 00 00 00 00 
       0000B7D6 00 00 00 00 00 00 00 00 00 00 
       0000B7E0 00 00 00 00 00 00 00 00 00 00 
       0000B7EA 00 00 00 00 00 00 00 00 00 00 
       0000B7F4 00 00 00 00 00 00 00 00 00 00 
       0000B7FE 00 00 00 00 00 00 00 00 00 00 
       0000B808 00 00 00 00 00 00 00 00 00 00 
       0000B812 00 00 00 00 00 00 00 00 00 00 
       0000B81C 00 00 00 00 00 00 00 00 00 00 
       0000B826 00 00 00 00 00 00 00 00 00 00 
       0000B830 00 00 00 00 00 00 00 00 00 00 
       0000B83A 00 00 00 00 00 00 00 00 00 00 
       0000B844 00 00 00 00 00 00 00 00 00 00 
       0000B84E 00 00 00 00 00 00 00 00 00 00 
       0000B858 00 00 00 00 00 00 00 00 00 00 
       0000B862 00 00 00 00 00 00 00 00 00 00 
       0000B86C 00 00 00 00 00 00 00 00 00 00 
       0000B876 00 00 00 00 00 00 00 00 00 00 
       0000B880 00 00 00 00 00 00 00 00 00 00 
       0000B88A 00 00 00 00 00 00 00 00 00 00 
       0000B894 00 00 00 00 00 00 00 00 00 00 
       0000B89E 00 00 00 00 00 00 00 00 00 00 
       0000B8A8 00 00 00 00 00 00 00 00 00 00 
       0000B8B2 00 00 00 00 00 00 00 00 00 00 
       0000B8BC 00 00 00 00 00 00 00 00 00 00 
       0000B8C6 00 00 00 00 00 00 00 00 00 00 
       0000B8D0 00 00 00 00 00 00 00 00 00 00 
       0000B8DA 00 00 00 00 00 00 00 00 00 00 
       0000B8E4 00 00 00 00 00 00 00 00 00 00 
       0000B8EE 00 00 00 00 00 00 00 00 00 00 
       0000B8F8 00 00 00 00 00 00 00 00 00 00 
       0000B902 00 00 00 00 00 00 00 00 00 00 
       0000B90C 00 00 00 00 00 00 00 00 00 00 
       0000B916 00 00 00 00 00 00 00 00 00 00 
       0000B920 00 00 00 00 00 00 00 00 00 00 
       0000B92A 00 00 00 00 00 00 00 00 00 00 
       0000B934 00 00 00 00 00 00 00 00 00 00 
       0000B93E 00 00 00 00 00 00 00 00 00 00 
       0000B948 00 00 00 00 00 00 00 00 00 00 
       0000B952 00 00 00 00 00 00 00 00 00 00 
       0000B95C 00 00 00 00 00 00 00 00 00 00 
       0000B966 00 00 00 00 00 00 00 00 00 00 
       0000B970 00 00 00 00 00 00 00 00 00 00 
       0000B97A 00 00 00 00 00 00 00 00 00 00 
       0000B984 00 00 00 00 00 00 00 00 00 00 
       0000B98E 00 00 00 00 00 00 00 00 00 00 
       0000B998 00 00 00 00 00 00 00 00 00 00 
       0000B9A2 00 00 00 00 00 00 00 00 00 00 
       0000B9AC 00 00 00 00 00 00 00 00 00 00 
       0000B9B6 00 00 00 00 00 00 00 00 00 00 
       0000B9C0 00 00 00 00 00 00 00 00 00 00 
       0000B9CA 00 00 00 00 00 00 00 00 00 00 
       0000B9D4 00 00 00 00 00 00 00 00 00 00 
       0000B9DE 00 00 00 00 00 00 00 00 00 00 
       0000B9E8 00 00 00 00 00 00 00 00 00 00 
       0000B9F2 00 00 00 00 00 00 00 00 00 00 
       0000B9FC 00 00 00 00 00 00 00 00 00 00 
       0000BA06 00 00 00 00 00 00 00 00 00 00 
       0000BA10 00 00 00 00 00 00 00 00 00 00 
       0000BA1A 00 00 00 00 00 00 00 00 00 00 
       0000BA24 00 00 00 00 00 00 00 00 00 00 
       0000BA2E 00 00 00 00 00 00 00 00 00 00 
       0000BA38 00 00 00 00 00 00 00 00 00 00 
       0000BA42 00 00 00 00 00 00 00 00 00 00 
       0000BA4C 00 00 00 00 00 00 00 00 00 00 
       0000BA56 00 00 00 00 00 00 00 00 00 00 
       0000BA60 00 00 00 00 00 00 00 00 00 00 
       0000BA6A 00 00 00 00 00 00 00 00 00 00 
       0000BA74 00 00 00 00 00 00 00 00 00 00 
       0000BA7E 00 00 00 00 00 00 00 00 00 00 
       0000BA88 00 00 00 00 00 00 00 00 00 00 
       0000BA92 00 00 00 00 00 00 00 00 00 00 
       0000BA9C 00 00 00 00 00 00 00 00 00 00 
       0000BAA6 00 00 00 00 00 00 00 00 00 00 
       0000BAB0 00 00 00 00 00 00 00 00 00 00 
       0000BABA 00 00 00 00 00 00 00 00 00 00 
       0000BAC4 00 00 00 00 00 00 00 00 00 00 
       0000BACE 00 00 00 00 00 00 00 00 00 00 
       0000BAD8 00 00 00 00 00 00 00 00 00 00 
       0000BAE2 00 00 00 00 00 00 00 00 00 00 
       0000BAEC 00 00 00 00 00 00 00 00 00 00 
       0000BAF6 00 00 00 00 00 00 00 00 00 00 
       0000BB00 00 00 00 00 00 00 00 00 00 00 
       0000BB0A 00 00 00 00 00 00 00 00 00 00 
       0000BB14 00 00 00 00 00 00 00 00 00 00 
       0000BB1E 00 00 00 00 00 00 00 00 00 00 
       0000BB28 00 00 00 00 00 00 00 00 00 00 
       0000BB32 00 00 00 00 00 00 00 00 00 00 
       0000BB3C 00 00 00 00 00 00 00 00 00 00 
       0000BB46 00 00 00 00 00 00 00 00 00 00 
       0000BB50 00 00 00 00 00 00 00 00 00 00 
       0000BB5A 00 00 00 00 00 00 00 00 00 00 
       0000BB64 00 00 00 00 00 00 00 00 00 00 
       0000BB6E 00 00 00 00 00 00 00 00 00 00 
       0000BB78 00 00 00 00 00 00 00 00 00 00 
       0000BB82 00 00 00 00 00 00 00 00 00 00 
       0000BB8C 00 00 00 00 00 00 00 00 00 00 
       0000BB96 00 00 00 00 00 00 00 00 00 00 
       0000BBA0 00 00 00 00 00 00 00 00 00 00 
       0000BBAA 00 00 00 00 00 00 00 00 00 00 
       0000BBB4 00 00 00 00 00 00 00 00 00 00 
       0000BBBE 00 00 00 00 00 00 00 00 00 00 
       0000BBC8 00 00 00 00 00 00 00 00 00 00 
       0000BBD2 00 00 00 00 00 00 00 00 00 00 
       0000BBDC 00 00 00 00 00 00 00 00 00 00 
       0000BBE6 00 00 00 00 00 00 00 00 00 00 
       0000BBF0 00 00 00 00 00 00 00 00 00 00 
       0000BBFA 00 00 00 00 00 00 00 00 00 00 
       0000BC04 00 00 00 00 00 00 00 00 00 00 
       0000BC0E 00 00 00 00 00 00 00 00 00 00 
       0000BC18 00 00 00 00 00 00 00 00 00 00 
       0000BC22 00 00 00 00 00 00 00 00 00 00 
       0000BC2C 00 00 00 00 00 00 00 00 00 00 
       0000BC36 00 00 00 00 00 00 00 00 00 00 
       0000BC40 00 00 00 00 00 00 00 00 00 00 
       0000BC4A 00 00 00 00 00 00 00 00 00 00 
       0000BC54 00 00 00 00 00 00 00 00 00 00 
       0000BC5E 00 00 00 00 00 00 00 00 00 00 
       0000BC68 00 00 00 00 00 00 00 00 00 00 
       0000BC72 00 00 00 00 00 00 00 00 00 00 
       0000BC7C 00 00 00 00 00 00 00 00 00 00 
       0000BC86 00 00 00 00 00 00 00 00 00 00 
       0000BC90 00 00 00 00 00 00 00 00 00 00 
       0000BC9A 00 00 00 00 00 00 00 00 00 00 
       0000BCA4 00 00 00 00 00 00 00 00 00 00 
       0000BCAE 00 00 00 00 00 00 00 00 00 00 
       0000BCB8 00 00 00 00 00 00 00 00 00 00 
       0000BCC2 00 00 00 00 00 00 00 00 00 00 
       0000BCCC 00 00 00 00 00 00 00 00 00 00 
       0000BCD6 00 00 00 00 00 00 00 00 00 00 
       0000BCE0 00 00 00 00 00 00 00 00 00 00 
       0000BCEA 00 00 00 00 00 00 00 00 00 00 
       0000BCF4 00 00 00 00 00 00 00 00 00 00 
       0000BCFE 00 00 00 00 00 00 00 00 00 00 
       0000BD08 00 00 00 00 00 00 00 00 00 00 
       0000BD12 00 00 00 00 00 00 00 00 00 00 
       0000BD1C 00 00 00 00 00 00 00 00 00 00 
       0000BD26 00 00 00 00 00 00 00 00 00 00 
       0000BD30 00 00 00 00 00 00 00 00 00 00 
       0000BD3A 00 00 00 00 00 00 00 00 00 00 
       0000BD44 00 00 00 00 00 00 00 00 00 00 
       0000BD4E 00 00 00 00 00 00 00 00 00 00 
       0000BD58 00 00 00 00 00 00 00 00 00 00 
       0000BD62 00 00 00 00 00 00 00 00 00 00 
       0000BD6C 00 00 00 00 00 00 00 00 00 00 
       0000BD76 00 00 00 00 00 00 00 00 00 00 
       0000BD80 00 00 00 00 00 00 00 00 00 00 
       0000BD8A 00 00 00 00 00 00 00 00 00 00 
       0000BD94 00 00 00 00 00 00 00 00 00 00 
       0000BD9E 00 00 00 00 00 00 00 00 00 00 
       0000BDA8 00 00 00 00 00 00 00 00 00 00 
       0000BDB2 00 00 00 00 00 00 00 00 00 00 
       0000BDBC 00 00 00 00 00 00 00 00 00 00 
       0000BDC6 00 00 00 00 00 00 00 00 00 00 
       0000BDD0 00 00 00 00 00 00 00 00 00 00 
       0000BDDA 00 00 00 00 00 00 00 00 00 00 
       0000BDE4 00 00 00 00 00 00 00 00 00 00 
       0000BDEE 00 00 00 00 00 00 00 00 00 00 
       0000BDF8 00 00 00 00 00 00 00 00 00 00 
       0000BE02 00 00 00 00 00 00 00 00 00 00 
       0000BE0C 00 00 00 00 00 00 00 00 00 00 
       0000BE16 00 00 00 00 00 00 00 00 00 00 
       0000BE20 00 00 00 00 00 00 00 00 00 00 
       0000BE2A 00 00 00 00 00 00 00 00 00 00 
       0000BE34 00 00 00 00 00 00 00 00 00 00 
       0000BE3E 00 00 00 00 00 00 00 00 00 00 
       0000BE48 00 00 00 00 00 00 00 00 00 00 
       0000BE52 00 00 00 00 00 00 00 00 00 00 
       0000BE5C 00 00 00 00 00 00 00 00 00 00 
       0000BE66 00 00 00 00 00 00 00 00 00 00 
       0000BE70 00 00 00 00 00 00 00 00 00 00 
       0000BE7A 00 00 00 00 00 00 00 00 00 00 
       0000BE84 00 00 00 00 00 00 00 00 00 00 
       0000BE8E 00 00 00 00 00 00 00 00 00 00 
       0000BE98 00 00 00 00 00 00 00 00 00 00 
       0000BEA2 00 00 00 00 00 00 00 00 00 00 
       0000BEAC 00 00 00 00 00 00 00 00 00 00 
       0000BEB6 00 00 00 00 00 00 00 00 00 00 
       0000BEC0 00 00 00 00 00 00 00 00 00 00 
       0000BECA 00 00 00 00 00 00 00 00 00 00 
       0000BED4 00 00 00 00 00 00 00 00 00 00 
       0000BEDE 00 00 00 00 00 00 00 00 00 00 
       0000BEE8 00 00 00 00 00 00 00 00 00 00 
       0000BEF2 00 00 00 00 00 00 00 00 00 00 
       0000BEFC 00 00 00 00 00 00 00 00 00 00 
       0000BF06 00 00 00 00 00 00 00 00 00 00 
       0000BF10 00 00 00 00 00 00 00 00 00 00 
       0000BF1A 00 00 00 00 00 00 00 00 00 00 
       0000BF24 00 00 00 00 00 00 00 00 00 00 
       0000BF2E 00 00 00 00 00 00 00 00 00 00 
       0000BF38 00 00 00 00 00 00 00 00 00 00 
       0000BF42 00 00 00 00 00 00 00 00 00 00 
       0000BF4C 00 00 00 00 00 00 00 00 00 00 
       0000BF56 00 00 00 00 00 00 00 00 00 00 
       0000BF60 00 00 00 00 00 00 00 00 00 00 
       0000BF6A 00 00 00 00 00 00 00 00 00 00 
       0000BF74 00 00 00 00 00 00 00 00 00 00 
       0000BF7E 00 00 00 00 00 00 00 00 00 00 
       0000BF88 00 00 00 00 00 00 00 00 00 00 
       0000BF92 00 00 00 00 00 00 00 00 00 00 
       0000BF9C 00 00 00 00 00 00 00 00 00 00 
       0000BFA6 00 00 00 00 00 00 00 00 00 00 
       0000BFB0 00 00 00 00 00 00 00 00 00 00 
       0000BFBA 00 00 00 00 00 00 00 00 00 00 
       0000BFC4 00 00 00 00 00 00 00 00 00 00 
       0000BFCE 00 00 00 00 00 00 00 00 00 00 
       0000BFD8 00 00 00 00 00 00 00 00 00 00 
       0000BFE2 00 00 00 00 00 00 00 00 00 00 
       0000BFEC 00 00 00 00 00 00 00 00 00 00 
       0000BFF6 00 00 00 00 00 00 00 00 00 00 
       0000C000 00 00 00 00 00 00 00 00 00 00 
       0000C00A 00 00 00 00 00 00 00 00 00 00 
       0000C014 00 00 00 00 00 00 00 00 00 00 
       0000C01E 00 00 00 00 00 00 00 00 00 00 
       0000C028 00 00 00 00 00 00 00 00 00 00 
       0000C032 00 00 00 00 00 00 00 00 00 00 
       0000C03C 00 00 00 00 00 00 00 00 00 00 
       0000C046 00 00 00 00 00 00 00 00 00 00 
       0000C050 00 00 00 00 00 00 00 00 00 00 
       0000C05A 00 00 00 00 00 00 00 00 00 00 
       0000C064 00 00 00 00 00 00 00 00 00 00 
       0000C06E 00 00 00 00 00 00 00 00 00 00 
       0000C078 00 00 00 00 00 00 00 00 00 00 
       0000C082 00 00 00 00 00 00 00 00 00 00 
       0000C08C 00 00 00 00 00 00 00 00 00 00 
       0000C096 00 00 00 00 00 00 00 00 00 00 
       0000C0A0 00 00 00 00 00 00 00 00 00 00 
       0000C0AA 00 00 00 00 00 00 00 00 00 00 
       0000C0B4 00 00 00 00 00 00 00 00 00 00 
       0000C0BE 00 00 00 00 00 00 00 00 00 00 
       0000C0C8 00 00 00 00 00 00 00 00 00 00 
       0000C0D2 00 00 00 00 00 00 00 00 00 00 
       0000C0DC 00 00 00 00 00 00 00 00 00 00 
       0000C0E6 00 00 00 00 00 00 00 00 00 00 
       0000C0F0 00 00 00 00 00 00 00 00 00 00 
       0000C0FA 00 00 00 00 00 00 00 00 00 00 
       0000C104 00 00 00 00 00 00 00 00 00 00 
       0000C10E 00 00 00 00 00 00 00 00 00 00 
       0000C118 00 00 00 00 00 00 00 00 00 00 
       0000C122 00 00 00 00 00 00 00 00 00 00 
       0000C12C 00 00 00 00 00 00 00 00 00 00 
       0000C136 00 00 00 00 00 00 00 00 00 00 
       0000C140 00 00 00 00 00 00 00 00 00 00 
       0000C14A 00 00 00 00 00 00 00 00 00 00 
       0000C154 00 00 00 00 00 00 00 00 00 00 
       0000C15E 00 00 00 00 00 00 00 00 00 00 
       0000C168 00 00 00 00 00 00 00 00 00 00 
       0000C172 00 00 00 00 00 00 00 00 00 00 
       0000C17C 00 00 00 00 00 00 00 00 00 00 
       0000C186 00 00 00 00 00 00 00 00 00 00 
       0000C190 00 00 00 00 00 00 00 00 00 00 
       0000C19A 00 00 00 00 00 00 00 00 00 00 
       0000C1A4 00 00 00 00 00 00 00 00 00 00 
       0000C1AE 00 00 00 00 00 00 00 00 00 00 
       0000C1B8 00 00 00 00 00 00 00 00 00 00 
       0000C1C2 00 00 00 00 00 00 00 00 00 00 
       0000C1CC 00 00 00 00 00 00 00 00 00 00 
       0000C1D6 00 00 00 00 00 00 00 00 00 00 
       0000C1E0 00 00 00 00 00 00 00 00 00 00 
       0000C1EA 00 00 00 00 00 00 00 00 00 00 
       0000C1F4 00 00 00 00 00 00 00 00 00 00 
       0000C1FE 00 00 00 00 00 00 00 00 00 00 
       0000C208 00 00 00 00 00 00 00 00 00 00 
       0000C212 00 00 00 00 00 00 00 00 00 00 
       0000C21C 00 00 00 00 00 00 00 00 00 00 
       0000C226 00 00 00 00 00 00 00 00 00 00 
       0000C230 00 00 00 00 00 00 00 00 00 00 
       0000C23A 00 00 00 00 00 00 00 00 00 00 
       0000C244 00 00 00 00 00 00 00 00 00 00 
       0000C24E 00 00 00 00 00 00 00 00 00 00 
       0000C258 00 00 00 00 00 00 00 00 00 00 
       0000C262 00 00 00 00 00 00 00 00 00 00 
       0000C26C 00 00 00 00 00 00 00 00 00 00 
       0000C276 00 00 00 00 00 00 00 00 00 00 
       0000C280 00 00 00 00 00 00 00 00 00 00 
       0000C28A 00 00 00 00 00 00 00 00 00 00 
       0000C294 00 00 00 00 00 00 00 00 00 00 
       0000C29E 00 00 00 00 00 00 00 00 00 00 
       0000C2A8 00 00 00 00 00 00 00 00 00 00 
       0000C2B2 00 00 00 00 00 00 00 00 00 00 
       0000C2BC 00 00 00 00 00 00 00 00 00 00 
       0000C2C6 00 00 00 00 00 00 00 00 00 00 
       0000C2D0 00 00 00 00 00 00 00 00 00 00 
       0000C2DA 00 00 00 00 00 00 00 00 00 00 
       0000C2E4 00 00 00 00 00 00 00 00 00 00 
       0000C2EE 00 00 00 00 00 00 00 00 00 00 
       0000C2F8 00 00 00 00 00 00 00 00 00 00 
       0000C302 00 00 00 00 00 00 00 00 00 00 
       0000C30C 00 00 00 00 00 00 00 00 00 00 
       0000C316 00 00 00 00 00 00 00 00 00 00 
       0000C320 00 00 00 00 00 00 00 00 00 00 
       0000C32A 00 00 00 00 00 00 00 00 00 00 
       0000C334 00 00 00 00 00 00 00 00 00 00 
       0000C33E 00 00 00 00 00 00 00 00 00 00 
       0000C348 00 00 00 00 00 00 00 00 00 00 
       0000C352 00 00 00 00 00 00 00 00 00 00 
       0000C35C 00 00 00 00 00 00 00 00 00 00 
       0000C366 00 00 00 00 00 00 00 00 00 00 
       0000C370 00 00 00 00 00 00 00 00 00 00 
       0000C37A 00 00 00 00 00 00 00 00 00 00 
       0000C384 00 00 00 00 00 00 00 00 00 00 
       0000C38E 00 00 00 00 00 00 00 00 00 00 
       0000C398 00 00 00 00 00 00 00 00 00 00 
       0000C3A2 00 00 00 00 00 00 00 00 00 00 
       0000C3AC 00 00 00 00 00 00 00 00 00 00 
       0000C3B6 00 00 00 00 00 00 00 00 00 00 
       0000C3C0 00 00 00 00 00 00 00 00 00 00 
       0000C3CA 00 00 00 00 00 00 00 00 00 00 
       0000C3D4 00 00 00 00 00 00 00 00 00 00 
       0000C3DE 00 00 00 00 00 00 00 00 00 00 
       0000C3E8 00 00 00 00 00 00 00 00 00 00 
       0000C3F2 00 00 00 00 00 00 00 00 00 00 
       0000C3FC 00 00 00 00 00 00 00 00 00 00 
       0000C406 00 00 00 00 00 00 00 00 00 00 
       0000C410 00 00 00 00 00 00 00 00 00 00 
       0000C41A 00 00 00 00 00 00 00 00 00 00 
       0000C424 00 00 00 00 00 00 00 00 00 00 
       0000C42E 00 00 00 00 00 00 00 00 00 00 
       0000C438 00 00 00 00 00 00 00 00 00 00 
       0000C442 00 00 00 00 00 00 00 00 00 00 
       0000C44C 00 00 00 00 00 00 00 00 00 00 
       0000C456 00 00 00 00 00 00 00 00 00 00 
       0000C460 00 00 00 00 00 00 00 00 00 00 
       0000C46A 00 00 00 00 00 00 00 00 00 00 
       0000C474 00 00 00 00 00 00 00 00 00 00 
       0000C47E 00 00 00 00 00 00 00 00 00 00 
       0000C488 00 00 00 00 00 00 00 00 00 00 
       0000C492 00 00 00 00 00 00 00 00 00 00 
       0000C49C 00 00 00 00 00 00 00 00 00 00 
       0000C4A6 00 00 00 00 00 00 00 00 00 00 
       0000C4B0 00 00 00 00 00 00 00 00 00 00 
       0000C4BA 00 00 00 00 00 00 00 00 00 00 
       0000C4C4 00 00 00 00 00 00 00 00 00 00 
       0000C4CE 00 00 00 00 00 00 00 00 00 00 
       0000C4D8 00 00 00 00 00 00 00 00 00 00 
       0000C4E2 00 00 00 00 00 00 00 00 00 00 
       0000C4EC 00 00 00 00 00 00 00 00 00 00 
       0000C4F6 00 00 00 00 00 00 00 00 00 00 
       0000C500 00 00 00 00 00 00 00 00 00 00 
       0000C50A 00 00 00 00 00 00 00 00 00 00 
       0000C514 00 00 00 00 00 00 00 00 00 00 
       0000C51E 00 00 00 00 00 00 00 00 00 00 
       0000C528 00 00 00 00 00 00 00 00 00 00 
       0000C532 00 00 00 00 00 00 00 00 00 00 
       0000C53C 00 00 00 00 00 00 00 00 00 00 
       0000C546 00 00 00 00 00 00 00 00 00 00 
       0000C550 00 00 00 00 00 00 00 00 00 00 
       0000C55A 00 00 00 00 00 00 00 00 00 00 
       0000C564 00 00 00 00 00 00 00 00 00 00 
       0000C56E 00 00 00 00 00 00 00 00 00 00 
       0000C578 00 00 00 00 00 00 00 00 00 00 
       0000C582 00 00 00 00 00 00 00 00 00 00 
       0000C58C 00 00 00 00 00 00 00 00 00 00 
       0000C596 00 00 00 00 00 00 00 00 00 00 
       0000C5A0 00 00 00 00 00 00 00 00 00 00 
       0000C5AA 00 00 00 00 00 00 00 00 00 00 
       0000C5B4 00 00 00 00 00 00 00 00 00 00 
       0000C5BE 00 00 00 00 00 00 00 00 00 00 
       0000C5C8 00 00 00 00 00 00 00 00 00 00 
       0000C5D2 00 00 00 00 00 00 00 00 00 00 
       0000C5DC 00 00 00 00 00 00 00 00 00 00 
       0000C5E6 00 00 00 00 00 00 00 00 00 00 
       0000C5F0 00 00 00 00 00 00 00 00 00 00 
       0000C5FA 00 00 00 00 00 00 00 00 00 00 
       0000C604 00 00 00 00 00 00 00 00 00 00 
       0000C60E 00 00 00 00 00 00 00 00 00 00 
       0000C618 00 00 00 00 00 00 00 00 00 00 
       0000C622 00 00 00 00 00 00 00 00 00 00 
       0000C62C 00 00 00 00 00 00 00 00 00 00 
       0000C636 00 00 00 00 00 00 00 00 00 00 
       0000C640 00 00 00 00 00 00 00 00 00 00 
       0000C64A 00 00 00 00 00 00 00 00 00 00 
       0000C654 00 00 00 00 00 00 00 00 00 00 
       0000C65E 00 00 00 00 00 00 00 00 00 00 
       0000C668 00 00 00 00 00 00 00 00 00 00 
       0000C672 00 00 00 00 00 00 00 00 00 00 
       0000C67C 00 00 00 00 00 00 00 00 00 00 
       0000C686 00 00 00 00 00 00 00 00 00 00 
       0000C690 00 00 00 00 00 00 00 00 00 00 
       0000C69A 00 00 00 00 00 00 00 00 00 00 
       0000C6A4 00 00 00 00 00 00 00 00 00 00 
       0000C6AE 00 00 00 00 00 00 00 00 00 00 
       0000C6B8 00 00 00 00 00 00 00 00 00 00 
       0000C6C2 00 00 00 00 00 00 00 00 00 00 
       0000C6CC 00 00 00 00 00 00 00 00 00 00 
       0000C6D6 00 00 00 00 00 00 00 00 00 00 
       0000C6E0 00 00 00 00 00 00 00 00 00 00 
       0000C6EA 00 00 00 00 00 00 00 00 00 00 
       0000C6F4 00 00 00 00 00 00 00 00 00 00 
       0000C6FE 00 00 00 00 00 00 00 00 00 00 
       0000C708 00 00 00 00 00 00 00 00 00 00 
       0000C712 00 00 00 00 00 00 00 00 00 00 
       0000C71C 00 00 00 00 00 00 00 00 00 00 
       0000C726 00 00 00 00 00 00 00 00 00 00 
       0000C730 00 00 00 00 00 00 00 00 00 00 
       0000C73A 00 00 00 00 00 00 00 00 00 00 
       0000C744 00 00 00 00 00 00 00 00 00 00 
       0000C74E 00 00 00 00 00 00 00 00 00 00 
       0000C758 00 00 00 00 00 00 00 00 00 00 
       0000C762 00 00 00 00 00 00 00 00 00 00 
       0000C76C 00 00 00 00 00 00 00 00 00 00 
       0000C776 00 00 00 00 00 00 00 00 00 00 
       0000C780 00 00 00 00 00 00 00 00 00 00 
       0000C78A 00 00 00 00 00 00 00 00 00 00 
       0000C794 00 00 00 00 00 00 00 00 00 00 
       0000C79E 00 00 00 00 00 00 00 00 00 00 
       0000C7A8 00 00 00 00 00 00 00 00 00 00 
       0000C7B2 00 00 00 00 00 00 00 00 00 00 
       0000C7BC 00 00 00 00 00 00 00 00 00 00 
       0000C7C6 00 00 00 00 00 00 00 00 00 00 
       0000C7D0 00 00 00 00 00 00 00 00 00 00 
       0000C7DA 00 00 00 00 00 00 00 00 00 00 
       0000C7E4 00 00 00 00 00 00 00 00 00 00 
       0000C7EE 00 00 00 00 00 00 00 00 00 00 
       0000C7F8 00 00 00 00 00 00 00 00 00 00 
       0000C802 00 00 00 00 00 00 00 00 00 00 
       0000C80C 00 00 00 00 00 00 00 00 00 00 
       0000C816 00 00 00 00 00 00 00 00 00 00 
       0000C820 00 00 00 00 00 00 00 00 00 00 
       0000C82A 00 00 00 00 00 00 00 00 00 00 
       0000C834 00 00 00 00 00 00 00 00 00 00 
       0000C83E 00 00 00 00 00 00 00 00 00 00 
       0000C848 00 00 00 00 00 00 00 00 00 00 
       0000C852 00 00 00 00 00 00 00 00 00 00 
       0000C85C 00 00 00 00 00 00 00 00 00 00 
       0000C866 00 00 00 00 00 00 00 00 00 00 
       0000C870 00 00 00 00 00 00 00 00 00 00 
       0000C87A 00 00 00 00 00 00 00 00 00 00 
       0000C884 00 00 00 00 00 00 00 00 00 00 
       0000C88E 00 00 00 00 00 00 00 00 00 00 
       0000C898 00 00 00 00 00 00 00 00 00 00 
       0000C8A2 00 00 00 00 00 00 00 00 00 00 
       0000C8AC 00 00 00 00 00 00 00 00 00 00 
       0000C8B6 00 00 00 00 00 00 00 00 00 00 
       0000C8C0 00 00 00 00 00 00 00 00 00 00 
       0000C8CA 00 00 00 00 00 00 00 00 00 00 
       0000C8D4 00 00 00 00 00 00 00 00 00 00 
       0000C8DE 00 00 00 00 00 00 00 00 00 00 
       0000C8E8 00 00 00 00 00 00 00 00 00 00 
       0000C8F2 00 00 00 00 00 00 00 00 00 00 
       0000C8FC 00 00 00 00 00 00 00 00 00 00 
       0000C906 00 00 00 00 00 00 00 00 00 00 
       0000C910 00 00 00 00 00 00 00 00 00 00 
       0000C91A 00 00 00 00 00 00 00 00 00 00 
       0000C924 00 00 00 00 00 00 00 00 00 00 
       0000C92E 00 00 00 00 00 00 00 00 00 00 
       0000C938 00 00 00 00 00 00 00 00 00 00 
       0000C942 00 00 00 00 00 00 00 00 00 00 
       0000C94C 00 00 00 00 00 00 00 00 00 00 
       0000C956 00 00 00 00 00 00 00 00 00 00 
       0000C960 00 00 00 00 00 00 00 00 00 00 
       0000C96A 00 00 00 00 00 00 00 00 00 00 
       0000C974 00 00 00 00 00 00 00 00 00 00 
       0000C97E 00 00 00 00 00 00 00 00 00 00 
       0000C988 00 00 00 00 00 00 00 00 00 00 
       0000C992 00 00 00 00 00 00 00 00 00 00 
       0000C99C 00 00 00 00 00 00 00 00 00 00 
       0000C9A6 00 00 00 00 00 00 00 00 00 00 
       0000C9B0 00 00 00 00 00 00 00 00 00 00 
       0000C9BA 00 00 00 00 00 00 00 00 00 00 
       0000C9C4 00 00 00 00 00 00 00 00 00 00 
       0000C9CE 00 00 00 00 00 00 00 00 00 00 
       0000C9D8 00 00 00 00 00 00 00 00 00 00 
       0000C9E2 00 00 00 00 00 00 00 00 00 00 
       0000C9EC 00 00 00 00 00 00 00 00 00 00 
       0000C9F6 00 00 00 00 00 00 00 00 00 00 
       0000CA00 00 00 00 00 00 00 00 00 00 00 
       0000CA0A 00 00 00 00 00 00 00 00 00 00 
       0000CA14 00 00 00 00 00 00 00 00 00 00 
       0000CA1E 00 00 00 00 00 00 00 00 00 00 
       0000CA28 00 00 00 00 00 00 00 00 00 00 
       0000CA32 00 00 00 00 00 00 00 00 00 00 
       0000CA3C 00 00 00 00 00 00 00 00 00 00 
       0000CA46 00 00 00 00 00 00 00 00 00 00 
       0000CA50 00 00 00 00 00 00 00 00 00 00 
       0000CA5A 00 00 00 00 00 00 00 00 00 00 
       0000CA64 00 00 00 00 00 00 00 00 00 00 
       0000CA6E 00 00 00 00 00 00 00 00 00 00 
       0000CA78 00 00 00 00 00 00 00 00 00 00 
       0000CA82 00 00 00 00 00 00 00 00 00 00 
       0000CA8C 00 00 00 00 00 00 00 00 00 00 
       0000CA96 00 00 00 00 00 00 00 00 00 00 
       0000CAA0 00 00 00 00 00 00 00 00 00 00 
       0000CAAA 00 00 00 00 00 00 00 00 00 00 
       0000CAB4 00 00 00 00 00 00 00 00 00 00 
       0000CABE 00 00 00 00 00 00 00 00 00 00 
       0000CAC8 00 00 00 00 00 00 00 00 00 00 
       0000CAD2 00 00 00 00 00 00 00 00 00 00 
       0000CADC 00 00 00 00 00 00 00 00 00 00 
       0000CAE6 00 00 00 00 00 00 00 00 00 00 
       0000CAF0 00 00 00 00 00 00 00 00 00 00 
       0000CAFA 00 00 00 00 00 00 00 00 00 00 
       0000CB04 00 00 00 00 00 00 00 00 00 00 
       0000CB0E 00 00 00 00 00 00 00 00 00 00 
       0000CB18 00 00 00 00 00 00 00 00 00 00 
       0000CB22 00 00 00 00 00 00 00 00 00 00 
       0000CB2C 00 00 00 00 00 00 00 00 00 00 
       0000CB36 00 00 00 00 00 00 00 00 00 00 
       0000CB40 00 00 00 00 00 00 00 00 00 00 
       0000CB4A 00 00 00 00 00 00 00 00 00 00 
       0000CB54 00 00 00 00 00 00 00 00 00 00 
       0000CB5E 00 00 00 00 00 00 00 00 00 00 
       0000CB68 00 00 00 00 00 00 00 00 00 00 
       0000CB72 00 00 00 00 00 00 00 00 00 00 
       0000CB7C 00 00 00 00 00 00 00 00 00 00 
       0000CB86 00 00 00 00 00 00 00 00 00 00 
       0000CB90 00 00 00 00 00 00 00 00 00 00 
       0000CB9A 00 00 00 00 00 00 00 00 00 00 
       0000CBA4 00 00 00 00 00 00 00 00 00 00 
       0000CBAE 00 00 00 00 00 00 00 00 00 00 
       0000CBB8 00 00 00 00 00 00 00 00 00 00 
       0000CBC2 00 00 00 00 00 00 00 00 00 00 
       0000CBCC 00 00 00 00 00 00 00 00 00 00 
       0000CBD6 00 00 00 00 00 00 00 00 00 00 
       0000CBE0 00 00 00 00 00 00 00 00 00 00 
       0000CBEA 00 00 00 00 00 00 00 00 00 00 
       0000CBF4 00 00 00 00 00 00 00 00 00 00 
       0000CBFE 00 00 00 00 00 00 00 00 00 00 
       0000CC08 00 00 00 00 00 00 00 00 00 00 
       0000CC12 00 00 00 00 00 00 00 00 00 00 
       0000CC1C 00 00 00 00 00 00 00 00 00 00 
       0000CC26 00 00 00 00 00 00 00 00 00 00 
       0000CC30 00 00 00 00 00 00 00 00 00 00 
       0000CC3A 00 00 00 00 00 00 00 00 00 00 
       0000CC44 00 00 00 00 00 00 00 00 00 00 
       0000CC4E 00 00 00 00 00 00 00 00 00 00 
       0000CC58 00 00 00 00 00 00 00 00 00 00 
       0000CC62 00 00 00 00 00 00 00 00 00 00 
       0000CC6C 00 00 00 00 00 00 00 00 00 00 
       0000CC76 00 00 00 00 00 00 00 00 00 00 
       0000CC80 00 00 00 00 00 00 00 00 00 00 
       0000CC8A 00 00 00 00 00 00 00 00 00 00 
       0000CC94 00 00 00 00 00 00 00 00 00 00 
       0000CC9E 00 00 00 00 00 00 00 00 00 00 
       0000CCA8 00 00 00 00 00 00 00 00 00 00 
       0000CCB2 00 00 00 00 00 00 00 00 00 00 
       0000CCBC 00 00 00 00 00 00 00 00 00 00 
       0000CCC6 00 00 00 00 00 00 00 00 00 00 
       0000CCD0 00 00 00 00 00 00 00 00 00 00 
       0000CCDA 00 00 00 00 00 00 00 00 00 00 
       0000CCE4 00 00 00 00 00 00 00 00 00 00 
       0000CCEE 00 00 00 00 00 00 00 00 00 00 
       0000CCF8 00 00 00 00 00 00 00 00 00 00 
       0000CD02 00 00 00 00 00 00 00 00 00 00 
       0000CD0C 00 00 00 00 00 00 00 00 00 00 
       0000CD16 00 00 00 00 00 00 00 00 00 00 
       0000CD20 00 00 00 00 00 00 00 00 00 00 
       0000CD2A 00 00 00 00 00 00 00 00 00 00 
       0000CD34 00 00 00 00 00 00 00 00 00 00 
       0000CD3E 00 00 00 00 00 00 00 00 00 00 
       0000CD48 00 00 00 00 00 00 00 00 00 00 
       0000CD52 00 00 00 00 00 00 00 00 00 00 
       0000CD5C 00 00 00 00 00 00 00 00 00 00 
       0000CD66 00 00 00 00 00 00 00 00 00 00 
       0000CD70 00 00 00 00 00 00 00 00 00 00 
       0000CD7A 00 00 00 00 00 00 00 00 00 00 
       0000CD84 00 00 00 00 00 00 00 00 00 00 
       0000CD8E 00 00 00 00 00 00 00 00 00 00 
       0000CD98 00 00 00 00 00 00 00 00 00 00 
       0000CDA2 00 00 00 00 00 00 00 00 00 00 
       0000CDAC 00 00 00 00 00 00 00 00 00 00 
       0000CDB6 00 00 00 00 00 00 00 00 00 00 
       0000CDC0 00 00 00 00 00 00 00 00 00 00 
       0000CDCA 00 00 00 00 00 00 00 00 00 00 
       0000CDD4 00 00 00 00 00 00 00 00 00 00 
       0000CDDE 00 00 00 00 00 00 00 00 00 00 
       0000CDE8 00 00 00 00 00 00 00 00 00 00 
       0000CDF2 00 00 00 00 00 00 00 00 00 00 
       0000CDFC 00 00 00 00 00 00 00 00 00 00 
       0000CE06 00 00 00 00 00 00 00 00 00 00 
       0000CE10 00 00 00 00 00 00 00 00 00 00 
       0000CE1A 00 00 00 00 00 00 00 00 00 00 
       0000CE24 00 00 00 00 00 00 00 00 00 00 
       0000CE2E 00 00 00 00 00 00 00 00 00 00 
       0000CE38 00 00 00 00 00 00 00 00 00 00 
       0000CE42 00 00 00 00 00 00 00 00 00 00 
       0000CE4C 00 00 00 00 00 00 00 00 00 00 
       0000CE56 00 00 00 00 00 00 00 00 00 00 
       0000CE60 00 00 00 00 00 00 00 00 00 00 
       0000CE6A 00 00 00 00 00 00 00 00 00 00 
       0000CE74 00 00 00 00 00 00 00 00 00 00 
       0000CE7E 00 00 00 00 00 00 00 00 00 00 
       0000CE88 00 00 00 00 00 00 00 00 00 00 
       0000CE92 00 00 00 00 00 00 00 00 00 00 
       0000CE9C 00 00 00 00 00 00 00 00 00 00 
       0000CEA6 00 00 00 00 00 00 00 00 00 00 
       0000CEB0 00 00 00 00 00 00 00 00 00 00 
       0000CEBA 00 00 00 00 00 00 00 00 00 00 
       0000CEC4 00 00 00 00 00 00 00 00 00 00 
       0000CECE 00 00 00 00 00 00 00 00 00 00 
       0000CED8 00 00 00 00 00 00 00 00 00 00 
       0000CEE2 00 00 00 00 00 00 00 00 00 00 
       0000CEEC 00 00 00 00 00 00 00 00 00 00 
       0000CEF6 00 00 00 00 00 00 00 00 00 00 
       0000CF00 00 00 00 00 00 00 00 00 00 00 
       0000CF0A 00 00 00 00 00 00 00 00 00 00 
       0000CF14 00 00 00 00 00 00 00 00 00 00 
       0000CF1E 00 00 00 00 00 00 00 00 00 00 
       0000CF28 00 00 00 00 00 00 00 00 00 00 
       0000CF32 00 00 00 00 00 00 00 00 00 00 
       0000CF3C 00 00 00 00 00 00 00 00 00 00 
       0000CF46 00 00 00 00 00 00 00 00 00 00 
       0000CF50 00 00 00 00 00 00 00 00 00 00 
       0000CF5A 00 00 00 00 00 00 00 00 00 00 
       0000CF64 00 00 00 00 00 00 00 00 00 00 
       0000CF6E 00 00 00 00 00 00 00 00 00 00 
       0000CF78 00 00 00 00 00 00 00 00 00 00 
       0000CF82 00 00 00 00 00 00 00 00 00 00 
       0000CF8C 00 00 00 00 00 00 00 00 00 00 
       0000CF96 00 00 00 00 00 00 00 00 00 00 
       0000CFA0 00 00 00 00 00 00 00 00 00 00 
       0000CFAA 00 00 00 00 00 00 00 00 00 00 
       0000CFB4 00 00 00 00 00 00 00 00 00 00 
       0000CFBE 00 00 00 00 00 00 00 00 00 00 
       0000CFC8 00 00 00 00 00 00 00 00 00 00 
       0000CFD2 00 00 00 00 00 00 00 00 00 00 
       0000CFDC 00 00 00 00 00 00 00 00 00 00 
       0000CFE6 00 00 00 00 00 00 00 00 00 00 
       0000CFF0 00 00 00 00 00 00 00 00 00 00 
       0000CFFA 00 00 00 00 00 00 00 00 00 00 
       0000D004 00 00 00 00 00 00 00 00 00 00 
       0000D00E 00 00 00 00 00 00 00 00 00 00 
       0000D018 00 00 00 00 00 00 00 00 00 00 
       0000D022 00 00 00 00 00 00 00 00 00 00 
       0000D02C 00 00 00 00 00 00 00 00 00 00 
       0000D036 00 00 00 00 00 00 00 00 00 00 
       0000D040 00 00 00 00 00 00 00 00 00 00 
       0000D04A 00 00 00 00 00 00 00 00 00 00 
       0000D054 00 00 00 00 00 00 00 00 00 00 
       0000D05E 00 00 00 00 00 00 00 00 00 00 
       0000D068 00 00 00 00 00 00 00 00 00 00 
       0000D072 00 00 00 00 00 00 00 00 00 00 
       0000D07C 00 00 00 00 00 00 00 00 00 00 
       0000D086 00 00 00 00 00 00 00 00 00 00 
       0000D090 00 00 00 00 00 00 00 00 00 00 
       0000D09A 00 00 00 00 00 00 00 00 00 00 
       0000D0A4 00 00 00 00 00 00 00 00 00 00 
       0000D0AE 00 00 00 00 00 00 00 00 00 00 
       0000D0B8 00 00 00 00 00 00 00 00 00 00 
       0000D0C2 00 00 00 00 00 00 00 00 00 00 
       0000D0CC 00 00 00 00 00 00 00 00 00 00 
       0000D0D6 00 00 00 00 00 00 00 00 00 00 
       0000D0E0 00 00 00 00 00 00 00 00 00 00 
       0000D0EA 00 00 00 00 00 00 00 00 00 00 
       0000D0F4 00 00 00 00 00 00 00 00 00 00 
       0000D0FE 00 00 00 00 00 00 00 00 00 00 
       0000D108 00 00 00 00 00 00 00 00 00 00 
       0000D112 00 00 00 00 00 00 00 00 00 00 
       0000D11C 00 00 00 00 00 00 00 00 00 00 
       0000D126 00 00 00 00 00 00 00 00 00 00 
       0000D130 00 00 00 00 00 00 00 00 00 00 
       0000D13A 00 00 00 00 00 00 00 00 00 00 
       0000D144 00 00 00 00 00 00 00 00 00 00 
       0000D14E 00 00 00 00 00 00 00 00 00 00 
       0000D158 00 00 00 00 00 00 00 00 00 00 
       0000D162 00 00 00 00 00 00 00 00 00 00 
       0000D16C 00 00 00 00 00 00 00 00 00 00 
       0000D176 00 00 00 00 00 00 00 00 00 00 
       0000D180 00 00 00 00 00 00 00 00 00 00 
       0000D18A 00 00 00 00 00 00 00 00 00 00 
       0000D194 00 00 00 00 00 00 00 00 00 00 
       0000D19E 00 00 00 00 00 00 00 00 00 00 
       0000D1A8 00 00 00 00 00 00 00 00 00 00 
       0000D1B2 00 00 00 00 00 00 00 00 00 00 
       0000D1BC 00 00 00 00 00 00 00 00 00 00 
       0000D1C6 00 00 00 00 00 00 00 00 00 00 
       0000D1D0 00 00 00 00 00 00 00 00 00 00 
       0000D1DA 00 00 00 00 00 00 00 00 00 00 
       0000D1E4 00 00 00 00 00 00 00 00 00 00 
       0000D1EE 00 00 00 00 00 00 00 00 00 00 
       0000D1F8 00 00 00 00 00 00 00 00 00 00 
       0000D202 00 00 00 00 00 00 00 00 00 00 
       0000D20C 00 00 00 00 00 00 00 00 00 00 
       0000D216 00 00 00 00 00 00 00 00 00 00 
       0000D220 00 00 00 00 00 00 00 00 00 00 
       0000D22A 00 00 00 00 00 00 00 00 00 00 
       0000D234 00 00 00 00 00 00 00 00 00 00 
       0000D23E 00 00 00 00 00 00 00 00 00 00 
       0000D248 00 00 00 00 00 00 00 00 00 00 
       0000D252 00 00 00 00 00 00 00 00 00 00 
       0000D25C 00 00 00 00 00 00 00 00 00 00 
       0000D266 00 00 00 00 00 00 00 00 00 00 
       0000D270 00 00 00 00 00 00 00 00 00 00 
       0000D27A 00 00 00 00 00 00 00 00 00 00 
       0000D284 00 00 00 00 00 00 00 00 00 00 
       0000D28E 00 00 00 00 00 00 00 00 00 00 
       0000D298 00 00 00 00 00 00 00 00 00 00 
       0000D2A2 00 00 00 00 00 00 00 00 00 00 
       0000D2AC 00 00 00 00 00 00 00 00 00 00 
       0000D2B6 00 00 00 00 00 00 00 00 00 00 
       0000D2C0 00 00 00 00 00 00 00 00 00 00 
       0000D2CA 00 00 00 00 00 00 00 00 00 00 
       0000D2D4 00 00 00 00 00 00 00 00 00 00 
       0000D2DE 00 00 00 00 00 00 00 00 00 00 
       0000D2E8 00 00 00 00 00 00 00 00 00 00 
       0000D2F2 00 00 00 00 00 00 00 00 00 00 
       0000D2FC 00 00 00 00 00 00 00 00 00 00 
       0000D306 00 00 00 00 00 00 00 00 00 00 
       0000D310 00 00 00 00 00 00 00 00 00 00 
       0000D31A 00 00 00 00 00 00 00 00 00 00 
       0000D324 00 00 00 00 00 00 00 00 00 00 
       0000D32E 00 00 00 00 00 00 00 00 00 00 
       0000D338 00 00 00 00 00 00 00 00 00 00 
       0000D342 00 00 00 00 00 00 00 00 00 00 
       0000D34C 00 00 00 00 00 00 00 00 00 00 
       0000D356 00 00 00 00 00 00 00 00 00 00 
       0000D360 00 00 00 00 00 00 00 00 00 00 
       0000D36A 00 00 00 00 00 00 00 00 00 00 
       0000D374 00 00 00 00 00 00 00 00 00 00 
       0000D37E 00 00 00 00 00 00 00 00 00 00 
       0000D388 00 00 00 00 00 00 00 00 00 00 
       0000D392 00 00 00 00 00 00 00 00 00 00 
       0000D39C 00 00 00 00 00 00 00 00 00 00 
       0000D3A6 00 00 00 00 00 00 00 00 00 00 
       0000D3B0 00 00 00 00 00 00 00 00 00 00 
       0000D3BA 00 00 00 00 00 00 00 00 00 00 
       0000D3C4 00 00 00 00 00 00 00 00 00 00 
       0000D3CE 00 00 00 00 00 00 00 00 00 00 
       0000D3D8 00 00 00 00 00 00 00 00 00 00 
       0000D3E2 00 00 00 00 00 00 00 00 00 00 
       0000D3EC 00 00 00 00 00 00 00 00 00 00 
       0000D3F6 00 00 00 00 00 00 00 00 00 00 
       0000D400 00 00 00 00 00 00 00 00 00 00 
       0000D40A 00 00 00 00 00 00 00 00 00 00 
       0000D414 00 00 00 00 00 00 00 00 00 00 
       0000D41E 00 00 00 00 00 00 00 00 00 00 
       0000D428 00 00 00 00 00 00 00 00 00 00 
       0000D432 00 00 00 00 00 00 00 00 00 00 
       0000D43C 00 00 00 00 00 00 00 00 00 00 
       0000D446 00 00 00 00 00 00 00 00 00 00 
       0000D450 00 00 00 00 00 00 00 00 00 00 
       0000D45A 00 00 00 00 00 00 00 00 00 00 
       0000D464 00 00 00 00 00 00 00 00 00 00 
       0000D46E 00 00 00 00 00 00 00 00 00 00 
       0000D478 00 00 00 00 00 00 00 00 00 00 
       0000D482 00 00 00 00 00 00 00 00 00 00 
       0000D48C 00 00 00 00 00 00 00 00 00 00 
       0000D496 00 00 00 00 00 00 00 00 00 00 
       0000D4A0 00 00 00 00 00 00 00 00 00 00 
       0000D4AA 00 00 00 00 00 00 00 00 00 00 
       0000D4B4 00 00 00 00 00 00 00 00 00 00 
       0000D4BE 00 00 00 00 00 00 00 00 00 00 
       0000D4C8 00 00 00 00 00 00 00 00 00 00 
       0000D4D2 00 00 00 00 00 00 00 00 00 00 
       0000D4DC 00 00 00 00 00 00 00 00 00 00 
       0000D4E6 00 00 00 00 00 00 00 00 00 00 
       0000D4F0 00 00 00 00 00 00 00 00 00 00 
       0000D4FA 00 00 00 00 00 00 00 00 00 00 
       0000D504 00 00 00 00 00 00 00 00 00 00 
       0000D50E 00 00 00 00 00 00 00 00 00 00 
       0000D518 00 00 00 00 00 00 00 00 00 00 
       0000D522 00 00 00 00 00 00 00 00 00 00 
       0000D52C 00 00 00 00 00 00 00 00 00 00 
       0000D536 00 00 00 00 00 00 00 00 00 00 
       0000D540 00 00 00 00 00 00 00 00 00 00 
       0000D54A 00 00 00 00 00 00 00 00 00 00 
       0000D554 00 00 00 00 00 00 00 00 00 00 
       0000D55E 00 00 00 00 00 00 00 00 00 00 
       0000D568 00 00 00 00 00 00 00 00 00 00 
       0000D572 00 00 00 00 00 00 00 00 00 00 
       0000D57C 00 00 00 00 00 00 00 00 00 00 
       0000D586 00 00 00 00 00 00 00 00 00 00 
       0000D590 00 00 00 00 00 00 00 00 00 00 
       0000D59A 00 00 00 00 00 00 00 00 00 00 
       0000D5A4 00 00 00 00 00 00 00 00 00 00 
       0000D5AE 00 00 00 00 00 00 00 00 00 00 
       0000D5B8 00 00 00 00 00 00 00 00 00 00 
       0000D5C2 00 00 00 00 00 00 00 00 00 00 
       0000D5CC 00 00 00 00 00 00 00 00 00 00 
       0000D5D6 00 00 00 00 00 00 00 00 00 00 
       0000D5E0 00 00 00 00 00 00 00 00 00 00 
       0000D5EA 00 00 00 00 00 00 00 00 00 00 
       0000D5F4 00 00 00 00 00 00 00 00 00 00 
       0000D5FE 00 00 00 00 00 00 00 00 00 00 
       0000D608 00 00 00 00 00 00 00 00 00 00 
       0000D612 00 00 00 00 00 00 00 00 00 00 
       0000D61C 00 00 00 00 00 00 00 00 00 00 
       0000D626 00 00 00 00 00 00 00 00 00 00 
       0000D630 00 00 00 00 00 00 00 00 00 00 
       0000D63A 00 00 00 00 00 00 00 00 00 00 
       0000D644 00 00 00 00 00 00 00 00 00 00 
       0000D64E 00 00 00 00 00 00 00 00 00 00 
       0000D658 00 00 00 00 00 00 00 00 00 00 
       0000D662 00 00 00 00 00 00 00 00 00 00 
       0000D66C 00 00 00 00 00 00 00 00 00 00 
       0000D676 00 00 00 00 00 00 00 00 00 00 
       0000D680 00 00 00 00 00 00 00 00 00 00 
       0000D68A 00 00 00 00 00 00 00 00 00 00 
       0000D694 00 00 00 00 00 00 00 00 00 00 
       0000D69E 00 00 00 00 00 00 00 00 00 00 
       0000D6A8 00 00 00 00 00 00 00 00 00 00 
       0000D6B2 00 00 00 00 00 00 00 00 00 00 
       0000D6BC 00 00 00 00 00 00 00 00 00 00 
       0000D6C6 00 00 00 00 00 00 00 00 00 00 
       0000D6D0 00 00 00 00 00 00 00 00 00 00 
       0000D6DA 00 00 00 00 00 00 00 00 00 00 
       0000D6E4 00 00 00 00 00 00 00 00 00 00 
       0000D6EE 00 00 00 00 00 00 00 00 00 00 
       0000D6F8 00 00 00 00 00 00 00 00 00 00 
       0000D702 00 00 00 00 00 00 00 00 00 00 
       0000D70C 00 00 00 00 00 00 00 00 00 00 
       0000D716 00 00 00 00 00 00 00 00 00 00 
       0000D720 00 00 00 00 00 00 00 00 00 00 
       0000D72A 00 00 00 00 00 00 00 00 00 00 
       0000D734 00 00 00 00 00 00 00 00 00 00 
       0000D73E 00 00 00 00 00 00 00 00 00 00 
       0000D748 00 00 00 00 00 00 00 00 00 00 
       0000D752 00 00 00 00 00 00 00 00 00 00 
       0000D75C 00 00 00 00 00 00 00 00 00 00 
       0000D766 00 00 00 00 00 00 00 00 00 00 
       0000D770 00 00 00 00 00 00 00 00 00 00 
       0000D77A 00 00 00 00 00 00 00 00 00 00 
       0000D784 00 00 00 00 00 00 00 00 00 00 
       0000D78E 00 00 00 00 00 00 00 00 00 00 
       0000D798 00 00 00 00 00 00 00 00 00 00 
       0000D7A2 00 00 00 00 00 00 00 00 00 00 
       0000D7AC 00 00 00 00 00 00 00 00 00 00 
       0000D7B6 00 00 00 00 00 00 00 00 00 00 
       0000D7C0 00 00 00 00 00 00 00 00 00 00 
       0000D7CA 00 00 00 00 00 00 00 00 00 00 
       0000D7D4 00 00 00 00 00 00 00 00 00 00 
       0000D7DE 00 00 00 00 00 00 00 00 00 00 
       0000D7E8 00 00 00 00 00 00 00 00 00 00 
       0000D7F2 00 00 00 00 00 00 00 00 00 00 
       0000D7FC 00 00 00 00 00 00 00 00 00 00 
       0000D806 00 00 00 00 00 00 00 00 00 00 
       0000D810 00 00 00 00 00 00 00 00 00 00 
       0000D81A 00 00 00 00 00 00 00 00 00 00 
       0000D824 00 00 00 00 00 00 00 00 00 00 
       0000D82E 00 00 00 00 00 00 00 00 00 00 
       0000D838 00 00 00 00 00 00 00 00 00 00 
       0000D842 00 00 00 00 00 00 00 00 00 00 
       0000D84C 00 00 00 00 00 00 00 00 00 00 
       0000D856 00 00 00 00 00 00 00 00 00 00 
       0000D860 00 00 00 00 00 00 00 00 00 00 
       0000D86A 00 00 00 00 00 00 00 00 00 00 
       0000D874 00 00 00 00 00 00 00 00 00 00 
       0000D87E 00 00 00 00 00 00 00 00 00 00 
       0000D888 00 00 00 00 00 00 00 00 00 00 
       0000D892 00 00 00 00 00 00 00 00 00 00 
       0000D89C 00 00 00 00 00 00 00 00 00 00 
       0000D8A6 00 00 00 00 00 00 00 00 00 00 
       0000D8B0 00 00 00 00 00 00 00 00 00 00 
       0000D8BA 00 00 00 00 00 00 00 00 00 00 
       0000D8C4 00 00 00 00 00 00 00 00 00 00 
       0000D8CE 00 00 00 00 00 00 00 00 00 00 
       0000D8D8 00 00 00 00 00 00 00 00 00 00 
       0000D8E2 00 00 00 00 00 00 00 00 00 00 
       0000D8EC 00 00 00 00 00 00 00 00 00 00 
       0000D8F6 00 00 00 00 00 00 00 00 00 00 
       0000D900 00 00 00 00 00 00 00 00 00 00 
       0000D90A 00 00 00 00 00 00 00 00 00 00 
       0000D914 00 00 00 00 00 00 00 00 00 00 
       0000D91E 00 00 00 00 00 00 00 00 00 00 
       0000D928 00 00 00 00 00 00 00 00 00 00 
       0000D932 00 00 00 00 00 00 00 00 00 00 
       0000D93C 00 00 00 00 00 00 00 00 00 00 
       0000D946 00 00 00 00 00 00 00 00 00 00 
       0000D950 00 00 00 00 00 00 00 00 00 00 
       0000D95A 00 00 00 00 00 00 00 00 00 00 
       0000D964 00 00 00 00 00 00 00 00 00 00 
       0000D96E 00 00 00 00 00 00 00 00 00 00 
       0000D978 00 00 00 00 00 00 00 00 00 00 
       0000D982 00 00 00 00 00 00 00 00 00 00 
       0000D98C 00 00 00 00 00 00 00 00 00 00 
       0000D996 00 00 00 00 00 00 00 00 00 00 
       0000D9A0 00 00 00 00 00 00 00 00 00 00 
       0000D9AA 00 00 00 00 00 00 00 00 00 00 
       0000D9B4 00 00 00 00 00 00 00 00 00 00 
       0000D9BE 00 00 00 00 00 00 00 00 00 00 
       0000D9C8 00 00 00 00 00 00 00 00 00 00 
       0000D9D2 00 00 00 00 00 00 00 00 00 00 
       0000D9DC 00 00 00 00 00 00 00 00 00 00 
       0000D9E6 00 00 00 00 00 00 00 00 00 00 
       0000D9F0 00 00 00 00 00 00 00 00 00 00 
       0000D9FA 00 00 00 00 00 00 00 00 00 00 
       0000DA04 00 00 00 00 00 00 00 00 00 00 
       0000DA0E 00 00 00 00 00 00 00 00 00 00 
       0000DA18 00 00 00 00 00 00 00 00 00 00 
       0000DA22 00 00 00 00 00 00 00 00 00 00 
       0000DA2C 00 00 00 00 00 00 00 00 00 00 
       0000DA36 00 00 00 00 00 00 00 00 00 00 
       0000DA40 00 00 00 00 00 00 00 00 00 00 
       0000DA4A 00 00 00 00 00 00 00 00 00 00 
       0000DA54 00 00 00 00 00 00 00 00 00 00 
       0000DA5E 00 00 00 00 00 00 00 00 00 00 
       0000DA68 00 00 00 00 00 00 00 00 00 00 
       0000DA72 00 00 00 00 00 00 00 00 00 00 
       0000DA7C 00 00 00 00 00 00 00 00 00 00 
       0000DA86 00 00 00 00 00 00 00 00 00 00 
       0000DA90 00 00 00 00 00 00 00 00 00 00 
       0000DA9A 00 00 00 00 00 00 00 00 00 00 
       0000DAA4 00 00 00 00 00 00 00 00 00 00 
       0000DAAE 00 00 00 00 00 00 00 00 00 00 
       0000DAB8 00 00 00 00 00 00 00 00 00 00 
       0000DAC2 00 00 00 00 00 00 00 00 00 00 
       0000DACC 00 00 00 00 00 00 00 00 00 00 
       0000DAD6 00 00 00 00 00 00 00 00 00 00 
       0000DAE0 00 00 00 00 00 00 00 00 00 00 
       0000DAEA 00 00 00 00 00 00 00 00 00 00 
       0000DAF4 00 00 00 00 00 00 00 00 00 00 
       0000DAFE 00 00 00 00 00 00 00 00 00 00 
       0000DB08 00 00 00 00 00 00 00 00 00 00 
       0000DB12 00 00 00 00 00 00 00 00 00 00 
       0000DB1C 00 00 00 00 00 00 00 00 00 00 
       0000DB26 00 00 00 00 00 00 00 00 00 00 
       0000DB30 00 00 00 00 00 00 00 00 00 00 
       0000DB3A 00 00 00 00 00 00 00 00 00 00 
       0000DB44 00 00 00 00 00 00 00 00 00 00 
       0000DB4E 00 00 00 00 00 00 00 00 00 00 
       0000DB58 00 00 00 00 00 00 00 00 00 00 
       0000DB62 00 00 00 00 00 00 00 00 00 00 
       0000DB6C 00 00 00 00 00 00 00 00 00 00 
       0000DB76 00 00 00 00 00 00 00 00 00 00 
       0000DB80 00 00 00 00 00 00 00 00 00 00 
       0000DB8A 00 00 00 00 00 00 00 00 00 00 
       0000DB94 00 00 00 00 00 00 00 00 00 00 
       0000DB9E 00 00 00 00 00 00 00 00 00 00 
       0000DBA8 00 00 00 00 00 00 00 00 00 00 
       0000DBB2 00 00 00 00 00 00 00 00 00 00 
       0000DBBC 00 00 00 00 00 00 00 00 00 00 
       0000DBC6 00 00 00 00 00 00 00 00 00 00 
       0000DBD0 00 00 00 00 00 00 00 00 00 00 
       0000DBDA 00 00 00 00 00 00 00 00 00 00 
       0000DBE4 00 00 00 00 00 00 00 00 00 00 
       0000DBEE 00 00 00 00 00 00 00 00 00 00 
       0000DBF8 00 00 00 00 00 00 00 00 00 00 
       0000DC02 00 00 00 00 00 00 00 00 00 00 
       0000DC0C 00 00 00 00 00 00 00 00 00 00 
       0000DC16 00 00 00 00 00 00 00 00 00 00 
       0000DC20 00 00 00 00 00 00 00 00 00 00 
       0000DC2A 00 00 00 00 00 00 00 00 00 00 
       0000DC34 00 00 00 00 00 00 00 00 00 00 
       0000DC3E 00 00 00 00 00 00 00 00 00 00 
       0000DC48 00 00 00 00 00 00 00 00 00 00 
       0000DC52 00 00 00 00 00 00 00 00 00 00 
       0000DC5C 00 00 00 00 00 00 00 00 00 00 
       0000DC66 00 00 00 00 00 00 00 00 00 00 
       0000DC70 00 00 00 00 00 00 00 00 00 00 
       0000DC7A 00 00 00 00 00 00 00 00 00 00 
       0000DC84 00 00 00 00 00 00 00 00 00 00 
       0000DC8E 00 00 00 00 00 00 00 00 00 00 
       0000DC98 00 00 00 00 00 00 00 00 00 00 
       0000DCA2 00 00 00 00 00 00 00 00 00 00 
       0000DCAC 00 00 00 00 00 00 00 00 00 00 
       0000DCB6 00 00 00 00 00 00 00 00 00 00 
       0000DCC0 00 00 00 00 00 00 00 00 00 00 
       0000DCCA 00 00 00 00 00 00 00 00 00 00 
       0000DCD4 00 00 00 00 00 00 00 00 00 00 
       0000DCDE 00 00 00 00 00 00 00 00 00 00 
       0000DCE8 00 00 00 00 00 00 00 00 00 00 
       0000DCF2 00 00 00 00 00 00 00 00 00 00 
       0000DCFC 00 00 00 00 00 00 00 00 00 00 
       0000DD06 00 00 00 00 00 00 00 00 00 00 
       0000DD10 00 00 00 00 00 00 00 00 00 00 
       0000DD1A 00 00 00 00 00 00 00 00 00 00 
       0000DD24 00 00 00 00 00 00 00 00 00 00 
       0000DD2E 00 00 00 00 00 00 00 00 00 00 
       0000DD38 00 00 00 00 00 00 00 00 00 00 
       0000DD42 00 00 00 00 00 00 00 00 00 00 
       0000DD4C 00 00 00 00 00 00 00 00 00 00 
       0000DD56 00 00 00 00 00 00 00 00 00 00 
       0000DD60 00 00 00 00 00 00 00 00 00 00 
       0000DD6A 00 00 00 00 00 00 00 00 00 00 
       0000DD74 00 00 00 00 00 00 00 00 00 00 
       0000DD7E 00 00 00 00 00 00 00 00 00 00 
       0000DD88 00 00 00 00 00 00 00 00 00 00 
       0000DD92 00 00 00 00 00 00 00 00 00 00 
       0000DD9C 00 00 00 00 00 00 00 00 00 00 
       0000DDA6 00 00 00 00 00 00 00 00 00 00 
       0000DDB0 00 00 00 00 00 00 00 00 00 00 
       0000DDBA 00 00 00 00 00 00 00 00 00 00 
       0000DDC4 00 00 00 00 00 00 00 00 00 00 
       0000DDCE 00 00 00 00 00 00 00 00 00 00 
       0000DDD8 00 00 00 00 00 00 00 00 00 00 
       0000DDE2 00 00 00 00 00 00 00 00 00 00 
       0000DDEC 00 00 00 00 00 00 00 00 00 00 
       0000DDF6 00 00 00 00 00 00 00 00 00 00 
       0000DE00 00 00 00 00 00 00 00 00 00 00 
       0000DE0A 00 00 00 00 00 00 00 00 00 00 
       0000DE14 00 00 00 00 00 00 00 00 00 00 
       0000DE1E 00 00 00 00 00 00 00 00 00 00 
       0000DE28 00 00 00 00 00 00 00 00 00 00 
       0000DE32 00 00 00 00 00 00 00 00 00 00 
       0000DE3C 00 00 00 00 00 00 00 00 00 00 
       0000DE46 00 00 00 00 00 00 00 00 00 00 
       0000DE50 00 00 00 00 00 00 00 00 00 00 
       0000DE5A 00 00 00 00 00 00 00 00 00 00 
       0000DE64 00 00 00 00 00 00 00 00 00 00 
       0000DE6E 00 00 00 00 00 00 00 00 00 00 
       0000DE78 00 00 00 00 00 00 00 00 00 00 
       0000DE82 00 00 00 00 00 00 00 00 00 00 
       0000DE8C 00 00 00 00 00 00 00 00 00 00 
       0000DE96 00 00 00 00 00 00 00 00 00 00 
       0000DEA0 00 00 00 00 00 00 00 00 00 00 
       0000DEAA 00 00 00 00 00 00 00 00 00 00 
       0000DEB4 00 00 00 00 00 00 00 00 00 00 
       0000DEBE 00 00 00 00 00 00 00 00 00 00 
       0000DEC8 00 00 00 00 00 00 00 00 00 00 
       0000DED2 00 00 00 00 00 00 00 00 00 00 
       0000DEDC 00 00 00 00 00 00 00 00 00 00 
       0000DEE6 00 00 00 00 00 00 00 00 00 00 
       0000DEF0 00 00 00 00 00 00 00 00 00 00 
       0000DEFA 00 00 00 00 00 00 00 00 00 00 
       0000DF04 00 00 00 00 00 00 00 00 00 00 
       0000DF0E 00 00 00 00 00 00 00 00 00 00 
       0000DF18 00 00 00 00 00 00 00 00 00 00 
       0000DF22 00 00 00 00 00 00 00 00 00 00 
       0000DF2C 00 00 00 00 00 00 00 00 00 00 
       0000DF36 00 00 00 00 00 00 00 00 00 00 
       0000DF40 00 00 00 00 00 00 00 00 00 00 
       0000DF4A 00 00 00 00 00 00 00 00 00 00 
       0000DF54 00 00 00 00 00 00 00 00 00 00 
       0000DF5E 00 00 00 00 00 00 00 00 00 00 
       0000DF68 00 00 00 00 00 00 00 00 00 00 
       0000DF72 00 00 00 00 00 00 00 00 00 00 
       0000DF7C 00 00 00 00 00 00 00 00 00 00 
       0000DF86 00 00 00 00 00 00 00 00 00 00 
       0000DF90 00 00 00 00 00 00 00 00 00 00 
       0000DF9A 00 00 00 00 00 00 00 00 00 00 
       0000DFA4 00 00 00 00 00 00 00 00 00 00 
       0000DFAE 00 00 00 00 00 00 00 00 00 00 
       0000DFB8 00 00 00 00 00 00 00 00 00 00 
       0000DFC2 00 00 00 00 00 00 00 00 00 00 
       0000DFCC 00 00 00 00 00 00 00 00 00 00 
       0000DFD6 00 00 00 00 00 00 00 00 00 00 
       0000DFE0 00 00 00 00 00 00 00 00 00 00 
       0000DFEA 00 00 00 00 00 00 00 00 00 00 
       0000DFF4 00 00 00 00 00 00 00 00 00 00 
       0000DFFE 00 00 00 00 00 00 00 00 00 00 
       0000E008 00 00 00 00 00 00 00 00 00 00 
       0000E012 00 00 00 00 00 00 00 00 00 00 
       0000E01C 00 00 00 00 00 00 00 00 00 00 
       0000E026 00 00 00 00 00 00 00 00 00 00 
       0000E030 00 00 00 00 00 00 00 00 00 00 
       0000E03A 00 00 00 00 00 00 00 00 00 00 
       0000E044 00 00 00 00 00 00 00 00 00 00 
       0000E04E 00 00 00 00 00 00 00 00 00 00 
       0000E058 00 00 00 00 00 00 00 00 00 00 
       0000E062 00 00 00 00 00 00 00 00 00 00 
       0000E06C 00 00 00 00 00 00 00 00 00 00 
       0000E076 00 00 00 00 00 00 00 00 00 00 
       0000E080 00 00 00 00 00 00 00 00 00 00 
       0000E08A 00 00 00 00 00 00 00 00 00 00 
       0000E094 00 00 00 00 00 00 00 00 00 00 
       0000E09E 00 00 00 00 00 00 00 00 00 00 
       0000E0A8 00 00 00 00 00 00 00 00 00 00 
       0000E0B2 00 00 00 00 00 00 00 00 00 00 
       0000E0BC 00 00 00 00 00 00 00 00 00 00 
       0000E0C6 00 00 00 00 00 00 00 00 00 00 
       0000E0D0 00 00 00 00 00 00 00 00 00 00 
       0000E0DA 00 00 00 00 00 00 00 00 00 00 
       0000E0E4 00 00 00 00 00 00 00 00 00 00 
       0000E0EE 00 00 00 00 00 00 00 00 00 00 
       0000E0F8 00 00 00 00 00 00 00 00 00 00 
       0000E102 00 00 00 00 00 00 00 00 00 00 
       0000E10C 00 00 00 00 00 00 00 00 00 00 
       0000E116 00 00 00 00 00 00 00 00 00 00 
       0000E120 00 00 00 00 00 00 00 00 00 00 
       0000E12A 00 00 00 00 00 00 00 00 00 00 
       0000E134 00 00 00 00 00 00 00 00 00 00 
       0000E13E 00 00 00 00 00 00 00 00 00 00 
       0000E148 00 00 00 00 00 00 00 00 00 00 
       0000E152 00 00 00 00 00 00 00 00 00 00 
       0000E15C 00 00 00 00 00 00 00 00 00 00 
       0000E166 00 00 00 00 00 00 00 00 00 00 
       0000E170 00 00 00 00 00 00 00 00 00 00 
       0000E17A 00 00 00 00 00 00 00 00 00 00 
       0000E184 00 00 00 00 00 00 00 00 00 00 
       0000E18E 00 00 00 00 00 00 00 00 00 00 
       0000E198 00 00 00 00 00 00 00 00 00 00 
       0000E1A2 00 00 00 00 00 00 00 00 00 00 
       0000E1AC 00 00 00 00 00 00 00 00 00 00 
       0000E1B6 00 00 00 00 00 00 00 00 00 00 
       0000E1C0 00 00 00 00 00 00 00 00 00 00 
       0000E1CA 00 00 00 00 00 00 00 00 00 00 
       0000E1D4 00 00 00 00 00 00 00 00 00 00 
       0000E1DE 00 00 00 00 00 00 00 00 00 00 
       0000E1E8 00 00 00 00 00 00 00 00 00 00 
       0000E1F2 00 00 00 00 00 00 00 00 00 00 
       0000E1FC 00 00 00 00 00 00 00 00 00 00 
       0000E206 00 00 00 00 00 00 00 00 00 00 
       0000E210 00 00 00 00 00 00 00 00 00 00 
       0000E21A 00 00 00 00 00 00 00 00 00 00 
       0000E224 00 00 00 00 00 00 00 00 00 00 
       0000E22E 00 00 00 00 00 00 00 00 00 00 
       0000E238 00 00 00 00 00 00 00 00 00 00 
       0000E242 00 00 00 00 00 00 00 00 00 00 
       0000E24C 00 00 00 00 00 00 00 00 00 00 
       0000E256 00 00 00 00 00 00 00 00 00 00 
       0000E260 00 00 00 00 00 00 00 00 00 00 
       0000E26A 00 00 00 00 00 00 00 00 00 00 
       0000E274 00 00 00 00 00 00 00 00 00 00 
       0000E27E 00 00 00 00 00 00 00 00 00 00 
       0000E288 00 00 00 00 00 00 00 00 00 00 
       0000E292 00 00 00 00 00 00 00 00 00 00 
       0000E29C 00 00 00 00 00 00 00 00 00 00 
       0000E2A6 00 00 00 00 00 00 00 00 00 00 
       0000E2B0 00 00 00 00 00 00 00 00 00 00 
       0000E2BA 00 00 00 00 00 00 00 00 00 00 
       0000E2C4 00 00 00 00 00 00 00 00 00 00 
       0000E2CE 00 00 00 00 00 00 00 00 00 00 
       0000E2D8 00 00 00 00 00 00 00 00 00 00 
       0000E2E2 00 00 00 00 00 00 00 00 00 00 
       0000E2EC 00 00 00 00 00 00 00 00 00 00 
       0000E2F6 00 00 00 00 00 00 00 00 00 00 
       0000E300 00 00 00 00 00 00 00 00 00 00 
       0000E30A 00 00 00 00 00 00 00 00 00 00 
       0000E314 00 00 00 00 00 00 00 00 00 00 
       0000E31E 00 00 00 00 00 00 00 00 00 00 
       0000E328 00 00 00 00 00 00 00 00 00 00 
       0000E332 00 00 00 00 00 00 00 00 00 00 
       0000E33C 00 00 00 00 00 00 00 00 00 00 
       0000E346 00 00 00 00 00 00 00 00 00 00 
       0000E350 00 00 00 00 00 00 00 00 00 00 
       0000E35A 00 00 00 00 00 00 00 00 00 00 
       0000E364 00 00 00 00 00 00 00 00 00 00 
       0000E36E 00 00 00 00 00 00 00 00 00 00 
       0000E378 00 00 00 00 00 00 00 00 00 00 
       0000E382 00 00 00 00 00 00 00 00 00 00 
       0000E38C 00 00 00 00 00 00 00 00 00 00 
       0000E396 00 00 00 00 00 00 00 00 00 00 
       0000E3A0 00 00 00 00 00 00 00 00 00 00 
       0000E3AA 00 00 00 00 00 00 00 00 00 00 
       0000E3B4 00 00 00 00 00 00 00 00 00 00 
       0000E3BE 00 00 00 00 00 00 00 00 00 00 
       0000E3C8 00 00 00 00 00 00 00 00 00 00 
       0000E3D2 00 00 00 00 00 00 00 00 00 00 
       0000E3DC 00 00 00 00 00 00 00 00 00 00 
       0000E3E6 00 00 00 00 00 00 00 00 00 00 
       0000E3F0 00 00 00 00 00 00 00 00 00 00 
       0000E3FA 00 00 00 00 00 00 00 00 00 00 
       0000E404 00 00 00 00 00 00 00 00 00 00 
       0000E40E 00 00 00 00 00 00 00 00 00 00 
       0000E418 00 00 00 00 00 00 00 00 00 00 
       0000E422 00 00 00 00 00 00 00 00 00 00 
       0000E42C 00 00 00 00 00 00 00 00 00 00 
       0000E436 00 00 00 00 00 00 00 00 00 00 
       0000E440 00 00 00 00 00 00 00 00 00 00 
       0000E44A 00 00 00 00 00 00 00 00 00 00 
       0000E454 00 00 00 00 00 00 00 00 00 00 
       0000E45E 00 00 00 00 00 00 00 00 00 00 
       0000E468 00 00 00 00 00 00 00 00 00 00 
       0000E472 00 00 00 00 00 00 00 00 00 00 
       0000E47C 00 00 00 00 00 00 00 00 00 00 
       0000E486 00 00 00 00 00 00 00 00 00 00 
       0000E490 00 00 00 00 00 00 00 00 00 00 
       0000E49A 00 00 00 00 00 00 00 00 00 00 
       0000E4A4 00 00 00 00 00 00 00 00 00 00 
       0000E4AE 00 00 00 00 00 00 00 00 00 00 
       0000E4B8 00 00 00 00 00 00 00 00 00 00 
       0000E4C2 00 00 00 00 00 00 00 00 00 00 
       0000E4CC 00 00 00 00 00 00 00 00 00 00 
       0000E4D6 00 00 00 00 00 00 00 00 00 00 
       0000E4E0 00 00 00 00 00 00 00 00 00 00 
       0000E4EA 00 00 00 00 00 00 00 00 00 00 
       0000E4F4 00 00 00 00 00 00 00 00 00 00 
       0000E4FE 00 00 00 00 00 00 00 00 00 00 
       0000E508 00 00 00 00 00 00 00 00 00 00 
       0000E512 00 00 00 00 00 00 00 00 00 00 
       0000E51C 00 00 00 00 00 00 00 00 00 00 
       0000E526 00 00 00 00 00 00 00 00 00 00 
       0000E530 00 00 00 00 00 00 00 00 00 00 
       0000E53A 00 00 00 00 00 00 00 00 00 00 
       0000E544 00 00 00 00 00 00 00 00 00 00 
       0000E54E 00 00 00 00 00 00 00 00 00 00 
       0000E558 00 00 00 00 00 00 00 00 00 00 
       0000E562 00 00 00 00 00 00 00 00 00 00 
       0000E56C 00 00 00 00 00 00 00 00 00 00 
       0000E576 00 00 00 00 00 00 00 00 00 00 
       0000E580 00 00 00 00 00 00 00 00 00 00 
       0000E58A 00 00 00 00 00 00 00 00 00 00 
       0000E594 00 00 00 00 00 00 00 00 00 00 
       0000E59E 00 00 00 00 00 00 00 00 00 00 
       0000E5A8 00 00 00 00 00 00 00 00 00 00 
       0000E5B2 00 00 00 00 00 00 00 00 00 00 
       0000E5BC 00 00 00 00 00 00 00 00 00 00 
       0000E5C6 00 00 00 00 00 00 00 00 00 00 
       0000E5D0 00 00 00 00 00 00 00 00 00 00 
       0000E5DA 00 00 00 00 00 00 00 00 00 00 
       0000E5E4 00 00 00 00 00 00 00 00 00 00 
       0000E5EE 00 00 00 00 00 00 00 00 00 00 
       0000E5F8 00 00 00 00 00 00 00 00 00 00 
       0000E602 00 00 00 00 00 00 00 00 00 00 
       0000E60C 00 00 00 00 00 00 00 00 00 00 
       0000E616 00 00 00 00 00 00 00 00 00 00 
       0000E620 00 00 00 00 00 00 00 00 00 00 
       0000E62A 00 00 00 00 00 00 00 00 00 00 
       0000E634 00 00 00 00 00 00 00 00 00 00 
       0000E63E 00 00 00 00 00 00 00 00 00 00 
       0000E648 00 00 00 00 00 00 00 00 00 00 
       0000E652 00 00 00 00 00 00 00 00 00 00 
       0000E65C 00 00 00 00 00 00 00 00 00 00 
       0000E666 00 00 00 00 00 00 00 00 00 00 
       0000E670 00 00 00 00 00 00 00 00 00 00 
       0000E67A 00 00 00 00 00 00 00 00 00 00 
       0000E684 00 00 00 00 00 00 00 00 00 00 
       0000E68E 00 00 00 00 00 00 00 00 00 00 
       0000E698 00 00 00 00 00 00 00 00 00 00 
       0000E6A2 00 00 00 00 00 00 00 00 00 00 
       0000E6AC 00 00 00 00 00 00 00 00 00 00 
       0000E6B6 00 00 00 00 00 00 00 00 00 00 
       0000E6C0 00 00 00 00 00 00 00 00 00 00 
       0000E6CA 00 00 00 00 00 00 00 00 00 00 
       0000E6D4 00 00 00 00 00 00 00 00 00 00 
       0000E6DE 00 00 00 00 00 00 00 00 00 00 
       0000E6E8 00 00 00 00 00 00 00 00 00 00 
       0000E6F2 00 00 00 00 00 00 00 00 00 00 
       0000E6FC 00 00 00 00 00 00 00 00 00 00 
       0000E706 00 00 00 00 00 00 00 00 00 00 
       0000E710 00 00 00 00 00 00 00 00 00 00 
       0000E71A 00 00 00 00 00 00 00 00 00 00 
       0000E724 00 00 00 00 00 00 00 00 00 00 
       0000E72E 00 00 00 00 00 00 00 00 00 00 
       0000E738 00 00 00 00 00 00 00 00 00 00 
       0000E742 00 00 00 00 00 00 00 00 00 00 
       0000E74C 00 00 00 00 00 00 00 00 00 00 
       0000E756 00 00 00 00 00 00 00 00 00 00 
       0000E760 00 00 00 00 00 00 00 00 00 00 
       0000E76A 00 00 00 00 00 00 00 00 00 00 
       0000E774 00 00 00 00 00 00 00 00 00 00 
       0000E77E 00 00 00 00 00 00 00 00 00 00 
       0000E788 00 00 00 00 00 00 00 00 00 00 
       0000E792 00 00 00 00 00 00 00 00 00 00 
       0000E79C 00 00 00 00 00 00 00 00 00 00 
       0000E7A6 00 00 00 00 00 00 00 00 00 00 
       0000E7B0 00 00 00 00 00 00 00 00 00 00 
       0000E7BA 00 00 00 00 00 00 00 00 00 00 
       0000E7C4 00 00 00 00 00 00 00 00 00 00 
       0000E7CE 00 00 00 00 00 00 00 00 00 00 
       0000E7D8 00 00 00 00 00 00 00 00 00 00 
       0000E7E2 00 00 00 00 00 00 00 00 00 00 
       0000E7EC 00 00 00 00 00 00 00 00 00 00 
       0000E7F6 00 00 00 00 00 00 00 00 00 00 
       0000E800 00 00 00 00 00 00 00 00 00 00 
       0000E80A 00 00 00 00 00 00 00 00 00 00 
       0000E814 00 00 00 00 00 00 00 00 00 00 
       0000E81E 00 00 00 00 00 00 00 00 00 00 
       0000E828 00 00 00 00 00 00 00 00 00 00 
       0000E832 00 00 00 00 00 00 00 00 00 00 
       0000E83C 00 00 00 00 00 00 00 00 00 00 
       0000E846 00 00 00 00 00 00 00 00 00 00 
       0000E850 00 00 00 00 00 00 00 00 00 00 
       0000E85A 00 00 00 00 00 00 00 00 00 00 
       0000E864 00 00 00 00 00 00 00 00 00 00 
       0000E86E 00 00 00 00 00 00 00 00 00 00 
       0000E878 00 00 00 00 00 00 00 00 00 00 
       0000E882 00 00 00 00 00 00 00 00 00 00 
       0000E88C 00 00 00 00 00 00 00 00 00 00 
       0000E896 00 00 00 00 00 00 00 00 00 00 
       0000E8A0 00 00 00 00 00 00 00 00 00 00 
       0000E8AA 00 00 00 00 00 00 00 00 00 00 
       0000E8B4 00 00 00 00 00 00 00 00 00 00 
       0000E8BE 00 00 00 00 00 00 00 00 00 00 
       0000E8C8 00 00 00 00 00 00 00 00 00 00 
       0000E8D2 00 00 00 00 00 00 00 00 00 00 
       0000E8DC 00 00 00 00 00 00 00 00 00 00 
       0000E8E6 00 00 00 00 00 00 00 00 00 00 
       0000E8F0 00 00 00 00 00 00 00 00 00 00 
       0000E8FA 00 00 00 00 00 00 00 00 00 00 
       0000E904 00 00 00 00 00 00 00 00 00 00 
       0000E90E 00 00 00 00 00 00 00 00 00 00 
       0000E918 00 00 00 00 00 00 00 00 00 00 
       0000E922 00 00 00 00 00 00 00 00 00 00 
       0000E92C 00 00 00 00 00 00 00 00 00 00 
       0000E936 00 00 00 00 00 00 00 00 00 00 
       0000E940 00 00 00 00 00 00 00 00 00 00 
       0000E94A 00 00 00 00 00 00 00 00 00 00 
       0000E954 00 00 00 00 00 00 00 00 00 00 
       0000E95E 00 00 00 00 00 00 00 00 00 00 
       0000E968 00 00 00 00 00 00 00 00 00 00 
       0000E972 00 00 00 00 00 00 00 00 00 00 
       0000E97C 00 00 00 00 00 00 00 00 00 00 
       0000E986 00 00 00 00 00 00 00 00 00 00 
       0000E990 00 00 00 00 00 00 00 00 00 00 
       0000E99A 00 00 00 00 00 00 00 00 00 00 
       0000E9A4 00 00 00 00 00 00 00 00 00 00 
       0000E9AE 00 00 00 00 00 00 00 00 00 00 
       0000E9B8 00 00 00 00 00 00 00 00 00 00 
       0000E9C2 00 00 00 00 00 00 00 00 00 00 
       0000E9CC 00 00 00 00 00 00 00 00 00 00 
       0000E9D6 00 00 00 00 00 00 00 00 00 00 
       0000E9E0 00 00 00 00 00 00 00 00 00 00 
       0000E9EA 00 00 00 00 00 00 00 00 00 00 
       0000E9F4 00 00 00 00 00 00 00 00 00 00 
       0000E9FE 00 00 00 00 00 00 00 00 00 00 
       0000EA08 00 00 00 00 00 00 00 00 00 00 
       0000EA12 00 00 00 00 00 00 00 00 00 00 
       0000EA1C 00 00 00 00 00 00 00 00 00 00 
       0000EA26 00 00 00 00 00 00 00 00 00 00 
       0000EA30 00 00 00 00 00 00 00 00 00 00 
       0000EA3A 00 00 00 00 00 00 00 00 00 00 
       0000EA44 00 00 00 00 00 00 00 00 00 00 
       0000EA4E 00 00 00 00 00 00 00 00 00 00 
       0000EA58 00 00 00 00 00 00 00 00 00 00 
       0000EA62 00 00 00 00 00 00 00 00 00 00 
       0000EA6C 00 00 00 00 00 00 00 00 00 00 
       0000EA76 00 00 00 00 00 00 00 00 00 00 
       0000EA80 00 00 00 00 00 00 00 00 00 00 
       0000EA8A 00 00 00 00 00 00 00 00 00 00 
       0000EA94 00 00 00 00 00 00 00 00 00 00 
       0000EA9E 00 00 00 00 00 00 00 00 00 00 
       0000EAA8 00 00 00 00 00 00 00 00 00 00 
       0000EAB2 00 00 00 00 00 00 00 00 00 00 
       0000EABC 00 00 00 00 00 00 00 00 00 00 
       0000EAC6 00 00 00 00 00 00 00 00 00 00 
       0000EAD0 00 00 00 00 00 00 00 00 00 00 
       0000EADA 00 00 00 00 00 00 00 00 00 00 
       0000EAE4 00 00 00 00 00 00 00 00 00 00 
       0000EAEE 00 00 00 00 00 00 00 00 00 00 
       0000EAF8 00 00 00 00 00 00 00 00 00 00 
       0000EB02 00 00 00 00 00 00 00 00 00 00 
       0000EB0C 00 00 00 00 00 00 00 00 00 00 
       0000EB16 00 00 00 00 00 00 00 00 00 00 
       0000EB20 00 00 00 00 00 00 00 00 00 00 
       0000EB2A 00 00 00 00 00 00 00 00 00 00 
       0000EB34 00 00 00 00 00 00 00 00 00 00 
       0000EB3E 00 00 00 00 00 00 00 00 00 00 
       0000EB48 00 00 00 00 00 00 00 00 00 00 
       0000EB52 00 00 00 00 00 00 00 00 00 00 
       0000EB5C 00 00 00 00 00 00 00 00 00 00 
       0000EB66 00 00 00 00 00 00 00 00 00 00 
       0000EB70 00 00 00 00 00 00 00 00 00 00 
       0000EB7A 00 00 00 00 00 00 00 00 00 00 
       0000EB84 00 00 00 00 00 00 00 00 00 00 
       0000EB8E 00 00 00 00 00 00 00 00 00 00 
       0000EB98 00 00 00 00 00 00 00 00 00 00 
       0000EBA2 00 00 00 00 00 00 00 00 00 00 
       0000EBAC 00 00 00 00 00 00 00 00 00 00 
       0000EBB6 00 00 00 00 00 00 00 00 00 00 
       0000EBC0 00 00 00 00 00 00 00 00 00 00 
       0000EBCA 00 00 00 00 00 00 00 00 00 00 
       0000EBD4 00 00 00 00 00 00 00 00 00 00 
       0000EBDE 00 00 00 00 00 00 00 00 00 00 
       0000EBE8 00 00 00 00 00 00 00 00 00 00 
       0000EBF2 00 00 00 00 00 00 00 00 00 00 
       0000EBFC 00 00 00 00 00 00 00 00 00 00 
       0000EC06 00 00 00 00 00 00 00 00 00 00 
       0000EC10 00 00 00 00 00 00 00 00 00 00 
       0000EC1A 00 00 00 00 00 00 00 00 00 00 
       0000EC24 00 00 00 00 00 00 00 00 00 00 
       0000EC2E 00 00 00 00 00 00 00 00 00 00 
       0000EC38 00 00 00 00 00 00 00 00 00 00 
       0000EC42 00 00 00 00 00 00 00 00 00 00 
       0000EC4C 00 00 00 00 00 00 00 00 00 00 
       0000EC56 00 00 00 00 00 00 00 00 00 00 
       0000EC60 00 00 00 00 00 00 00 00 00 00 
       0000EC6A 00 00 00 00 00 00 00 00 00 00 
       0000EC74 00 00 00 00 00 00 00 00 00 00 
       0000EC7E 00 00 00 00 00 00 00 00 00 00 
       0000EC88 00 00 00 00 00 00 00 00 00 00 
       0000EC92 00 00 00 00 00 00 00 00 00 00 
       0000EC9C 00 00 00 00 00 00 00 00 00 00 
       0000ECA6 00 00 00 00 00 00 00 00 00 00 
       0000ECB0 00 00 00 00 00 00 00 00 00 00 
       0000ECBA 00 00 00 00 00 00 00 00 00 00 
       0000ECC4 00 00 00 00 00 00 00 00 00 00 
       0000ECCE 00 00 00 00 00 00 00 00 00 00 
       0000ECD8 00 00 00 00 00 00 00 00 00 00 
       0000ECE2 00 00 00 00 00 00 00 00 00 00 
       0000ECEC 00 00 00 00 00 00 00 00 00 00 
       0000ECF6 00 00 00 00 00 00 00 00 00 00 
       0000ED00 00 00 00 00 00 00 00 00 00 00 
       0000ED0A 00 00 00 00 00 00 00 00 00 00 
       0000ED14 00 00 00 00 00 00 00 00 00 00 
       0000ED1E 00 00 00 00 00 00 00 00 00 00 
       0000ED28 00 00 00 00 00 00 00 00 00 00 
       0000ED32 00 00 00 00 00 00 00 00 00 00 
       0000ED3C 00 00 00 00 00 00 00 00 00 00 
       0000ED46 00 00 00 00 00 00 00 00 00 00 
       0000ED50 00 00 00 00 00 00 00 00 00 00 
       0000ED5A 00 00 00 00 00 00 00 00 00 00 
       0000ED64 00 00 00 00 00 00 00 00 00 00 
       0000ED6E 00 00 00 00 00 00 00 00 00 00 
       0000ED78 00 00 00 00 00 00 00 00 00 00 
       0000ED82 00 00 00 00 00 00 00 00 00 00 
       0000ED8C 00 00 00 00 00 00 00 00 00 00 
       0000ED96 00 00 00 00 00 00 00 00 00 00 
       0000EDA0 00 00 00 00 00 00 00 00 00 00 
       0000EDAA 00 00 00 00 00 00 00 00 00 00 
       0000EDB4 00 00 00 00 00 00 00 00 00 00 
       0000EDBE 00 00 00 00 00 00 00 00 00 00 
       0000EDC8 00 00 00 00 00 00 00 00 00 00 
       0000EDD2 00 00 00 00 00 00 00 00 00 00 
       0000EDDC 00 00 00 00 00 00 00 00 00 00 
       0000EDE6 00 00 00 00 00 00 00 00 00 00 
       0000EDF0 00 00 00 00 00 00 00 00 00 00 
       0000EDFA 00 00 00 00 00 00 00 00 00 00 
       0000EE04 00 00 00 00 00 00 00 00 00 00 
       0000EE0E 00 00 00 00 00 00 00 00 00 00 
       0000EE18 00 00 00 00 00 00 00 00 00 00 
       0000EE22 00 00 00 00 00 00 00 00 00 00 
       0000EE2C 00 00 00 00 00 00 00 00 00 00 
       0000EE36 00 00 00 00 00 00 00 00 00 00 
       0000EE40 00 00 00 00 00 00 00 00 00 00 
       0000EE4A 00 00 00 00 00 00 00 00 00 00 
       0000EE54 00 00 00 00 00 00 00 00 00 00 
       0000EE5E 00 00 00 00 00 00 00 00 00 00 
       0000EE68 00 00 00 00 00 00 00 00 00 00 
       0000EE72 00 00 00 00 00 00 00 00 00 00 
       0000EE7C 00 00 00 00 00 00 00 00 00 00 
       0000EE86 00 00 00 00 00 00 00 00 00 00 
       0000EE90 00 00 00 00 00 00 00 00 00 00 
       0000EE9A 00 00 00 00 00 00 00 00 00 00 
       0000EEA4 00 00 00 00 00 00 00 00 00 00 
       0000EEAE 00 00 00 00 00 00 00 00 00 00 
       0000EEB8 00 00 00 00 00 00 00 00 00 00 
       0000EEC2 00 00 00 00 00 00 00 00 00 00 
       0000EECC 00 00 00 00 00 00 00 00 00 00 
       0000EED6 00 00 00 00 00 00 00 00 00 00 
       0000EEE0 00 00 00 00 00 00 00 00 00 00 
       0000EEEA 00 00 00 00 00 00 00 00 00 00 
       0000EEF4 00 00 00 00 00 00 00 00 00 00 
       0000EEFE 00 00 00 00 00 00 00 00 00 00 
       0000EF08 00 00 00 00 00 00 00 00 00 00 
       0000EF12 00 00 00 00 00 00 00 00 00 00 
       0000EF1C 00 00 00 00 00 00 00 00 00 00 
       0000EF26 00 00 00 00 00 00 00 00 00 00 
       0000EF30 00 00 00 00 00 00 00 00 00 00 
       0000EF3A 00 00 00 00 00 00 00 00 00 00 
       0000EF44 00 00 00 00 00 00 00 00 00 00 
       0000EF4E 00 00 00 00 00 00 00 00 00 00 
       0000EF58 00 00 00 00 00 00 00 00 00 00 
       0000EF62 00 00 00 00 00 00 00 00 00 00 
       0000EF6C 00 00 00 00 00 00 00 00 00 00 
       0000EF76 00 00 00 00 00 00 00 00 00 00 
       0000EF80 00 00 00 00 00 00 00 00 00 00 
       0000EF8A 00 00 00 00 00 00 00 00 00 00 
       0000EF94 00 00 00 00 00 00 00 00 00 00 
       0000EF9E 00 00 00 00 00 00 00 00 00 00 
       0000EFA8 00 00 00 00 00 00 00 00 00 00 
       0000EFB2 00 00 00 00 00 00 00 00 00 00 
       0000EFBC 00 00 00 00 00 00 00 00 00 00 
       0000EFC6 00 00 00 00 00 00 00 00 00 00 
       0000EFD0 00 00 00 00 00 00 00 00 00 00 
       0000EFDA 00 00 00 00 00 00 00 00 00 00 
       0000EFE4 00 00 00 00 00 00 00 00 00 00 
       0000EFEE 00 00 00 00 00 00 00 00 00 00 
       0000EFF8 00 00 00 00 00 00 00 00 00 00 
       0000F002 00 00 00 00 00 00 00 00 00 00 
       0000F00C 00 00 00 00 00 00 00 00 00 00 
       0000F016 00 00 00 00 00 00 00 00 00 00 
       0000F020 00 00 00 00 00 00 00 00 00 00 
       0000F02A 00 00 00 00 00 00 00 00 00 00 
       0000F034 00 00 00 00 00 00 00 00 00 00 
       0000F03E 00 00 00 00 00 00 00 00 00 00 
       0000F048 00 00 00 00 00 00 00 00 00 00 
       0000F052 00 00 00 00 00 00 00 00 00 00 
       0000F05C 00 00 00 00 00 00 00 00 00 00 
       0000F066 00 00 00 00 00 00 00 00 00 00 
       0000F070 00 00 00 00 00 00 00 00 00 00 
       0000F07A 00 00 00 00 00 00 00 00 00 00 
       0000F084 00 00 00 00 00 00 00 00 00 00 
       0000F08E 00 00 00 00 00 00 00 00 00 00 
       0000F098 00 00 00 00 00 00 00 00 00 00 
       0000F0A2 00 00 00 00 00 00 00 00 00 00 
       0000F0AC 00 00 00 00 00 00 00 00 00 00 
       0000F0B6 00 00 00 00 00 00 00 00 00 00 
       0000F0C0 00 00 00 00 00 00 00 00 00 00 
       0000F0CA 00 00 00 00 00 00 00 00 00 00 
       0000F0D4 00 00 00 00 00 00 00 00 00 00 
       0000F0DE 00 00 00 00 00 00 00 00 00 00 
       0000F0E8 00 00 00 00 00 00 00 00 00 00 
       0000F0F2 00 00 00 00 00 00 00 00 00 00 
       0000F0FC 00 00 00 00 00 00 00 00 00 00 
       0000F106 00 00 00 00 00 00 00 00 00 00 
       0000F110 00 00 00 00 00 00 00 00 00 00 
       0000F11A 00 00 00 00 00 00 00 00 00 00 
       0000F124 00 00 00 00 00 00 00 00 00 00 
       0000F12E 00 00 00 00 00 00 00 00 00 00 
       0000F138 00 00 00 00 00 00 00 00 00 00 
       0000F142 00 00 00 00 00 00 00 00 00 00 
       0000F14C 00 00 00 00 00 00 00 00 00 00 
       0000F156 00 00 00 00 00 00 00 00 00 00 
       0000F160 00 00 00 00 00 00 00 00 00 00 
       0000F16A 00 00 00 00 00 00 00 00 00 00 
       0000F174 00 00 00 00 00 00 00 00 00 00 
       0000F17E 00 00 00 00 00 00 00 00 00 00 
       0000F188 00 00 00 00 00 00 00 00 00 00 
       0000F192 00 00 00 00 00 00 00 00 00 00 
       0000F19C 00 00 00 00 00 00 00 00 00 00 
       0000F1A6 00 00 00 00 00 00 00 00 00 00 
       0000F1B0 00 00 00 00 00 00 00 00 00 00 
       0000F1BA 00 00 00 00 00 00 00 00 00 00 
       0000F1C4 00 00 00 00 00 00 00 00 00 00 
       0000F1CE 00 00 00 00 00 00 00 00 00 00 
       0000F1D8 00 00 00 00 00 00 00 00 00 00 
       0000F1E2 00 00 00 00 00 00 00 00 00 00 
       0000F1EC 00 00 00 00 00 00 00 00 00 00 
       0000F1F6 00 00 00 00 00 00 00 00 00 00 
       0000F200 00 00 00 00 00 00 00 00 00 00 
       0000F20A 00 00 00 00 00 00 00 00 00 00 
       0000F214 00 00 00 00 00 00 00 00 00 00 
       0000F21E 00 00 00 00 00 00 00 00 00 00 
       0000F228 00 00 00 00 00 00 00 00 00 00 
       0000F232 00 00 00 00 00 00 00 00 00 00 
       0000F23C 00 00 00 00 00 00 00 00 00 00 
       0000F246 00 00 00 00 00 00 00 00 00 00 
       0000F250 00 00 00 00 00 00 00 00 00 00 
       0000F25A 00 00 00 00 00 00 00 00 00 00 
       0000F264 00 00 00 00 00 00 00 00 00 00 
       0000F26E 00 00 00 00 00 00 00 00 00 00 
       0000F278 00 00 00 00 00 00 00 00 00 00 
       0000F282 00 00 00 00 00 00 00 00 00 00 
       0000F28C 00 00 00 00 00 00 00 00 00 00 
       0000F296 00 00 00 00 00 00 00 00 00 00 
       0000F2A0 00 00 00 00 00 00 00 00 00 00 
       0000F2AA 00 00 00 00 00 00 00 00 00 00 
       0000F2B4 00 00 00 00 00 00 00 00 00 00 
       0000F2BE 00 00 00 00 00 00 00 00 00 00 
       0000F2C8 00 00 00 00 00 00 00 00 00 00 
       0000F2D2 00 00 00 00 00 00 00 00 00 00 
       0000F2DC 00 00 00 00 00 00 00 00 00 00 
       0000F2E6 00 00 00 00 00 00 00 00 00 00 
       0000F2F0 00 00 00 00 00 00 00 00 00 00 
       0000F2FA 00 00 00 00 00 00 00 00 00 00 
       0000F304 00 00 00 00 00 00 00 00 00 00 
       0000F30E 00 00 00 00 00 00 00 00 00 00 
       0000F318 00 00 00 00 00 00 00 00 00 00 
       0000F322 00 00 00 00 00 00 00 00 00 00 
       0000F32C 00 00 00 00 00 00 00 00 00 00 
       0000F336 00 00 00 00 00 00 00 00 00 00 
       0000F340 00 00 00 00 00 00 00 00 00 00 
       0000F34A 00 00 00 00 00 00 00 00 00 00 
       0000F354 00 00 00 00 00 00 00 00 00 00 
       0000F35E 00 00 00 00 00 00 00 00 00 00 
       0000F368 00 00 00 00 00 00 00 00 00 00 
       0000F372 00 00 00 00 00 00 00 00 00 00 
       0000F37C 00 00 00 00 00 00 00 00 00 00 
       0000F386 00 00 00 00 00 00 00 00 00 00 
       0000F390 00 00 00 00 00 00 00 00 00 00 
       0000F39A 00 00 00 00 00 00 00 00 00 00 
       0000F3A4 00 00 00 00 00 00 00 00 00 00 
       0000F3AE 00 00 00 00 00 00 00 00 00 00 
       0000F3B8 00 00 00 00 00 00 00 00 00 00 
       0000F3C2 00 00 00 00 00 00 00 00 00 00 
       0000F3CC 00 00 00 00 00 00 00 00 00 00 
       0000F3D6 00 00 00 00 00 00 00 00 00 00 
       0000F3E0 00 00 00 00 00 00 00 00 00 00 
       0000F3EA 00 00 00 00 00 00 00 00 00 00 
       0000F3F4 00 00 00 00 00 00 00 00 00 00 
       0000F3FE 00 00 00 00 00 00 00 00 00 00 
       0000F408 00 00 00 00 00 00 00 00 00 00 
       0000F412 00 00 00 00 00 00 00 00 00 00 
       0000F41C 00 00 00 00 00 00 00 00 00 00 
       0000F426 00 00 00 00 00 00 00 00 00 00 
       0000F430 00 00 00 00 00 00 00 00 00 00 
       0000F43A 00 00 00 00 00 00 00 00 00 00 
       0000F444 00 00 00 00 00 00 00 00 00 00 
       0000F44E 00 00 00 00 00 00 00 00 00 00 
       0000F458 00 00 00 00 00 00 00 00 00 00 
       0000F462 00 00 00 00 00 00 00 00 00 00 
       0000F46C 00 00 00 00 00 00 00 00 00 00 
       0000F476 00 00 00 00 00 00 00 00 00 00 
       0000F480 00 00 00 00 00 00 00 00 00 00 
       0000F48A 00 00 00 00 00 00 00 00 00 00 
       0000F494 00 00 00 00 00 00 00 00 00 00 
       0000F49E 00 00 00 00 00 00 00 00 00 00 
       0000F4A8 00 00 00 00 00 00 00 00 00 00 
       0000F4B2 00 00 00 00 00 00 00 00 00 00 
       0000F4BC 00 00 00 00 00 00 00 00 00 00 
       0000F4C6 00 00 00 00 00 00 00 00 00 00 
       0000F4D0 00 00 00 00 00 00 00 00 00 00 
       0000F4DA 00 00 00 00 00 00 00 00 00 00 
       0000F4E4 00 00 00 00 00 00 00 00 00 00 
       0000F4EE 00 00 00 00 00 00 00 00 00 00 
       0000F4F8 00 00 00 00 00 00 00 00 00 00 
       0000F502 00 00 00 00 00 00 00 00 00 00 
       0000F50C 00 00 00 00 00 00 00 00 00 00 
       0000F516 00 00 00 00 00 00 00 00 00 00 
       0000F520 00 00 00 00 00 00 00 00 00 00 
       0000F52A 00 00 00 00 00 00 00 00 00 00 
       0000F534 00 00 00 00 00 00 00 00 00 00 
       0000F53E 00 00 00 00 00 00 00 00 00 00 
       0000F548 00 00 00 00 00 00 00 00 00 00 
       0000F552 00 00 00 00 00 00 00 00 00 00 
       0000F55C 00 00 00 00 00 00 00 00 00 00 
       0000F566 00 00 00 00 00 00 00 00 00 00 
       0000F570 00 00 00 00 00 00 00 00 00 00 
       0000F57A 00 00 00 00 00 00 00 00 00 00 
       0000F584 00 00 00 00 00 00 00 00 00 00 
       0000F58E 00 00 00 00 00 00 00 00 00 00 
       0000F598 00 00 00 00 00 00 00 00 00 00 
       0000F5A2 00 00 00 00 00 00 00 00 00 00 
       0000F5AC 00 00 00 00 00 00 00 00 00 00 
       0000F5B6 00 00 00 00 00 00 00 00 00 00 
       0000F5C0 00 00 00 00 00 00 00 00 00 00 
       0000F5CA 00 00 00 00 00 00 00 00 00 00 
       0000F5D4 00 00 00 00 00 00 00 00 00 00 
       0000F5DE 00 00 00 00 00 00 00 00 00 00 
       0000F5E8 00 00 00 00 00 00 00 00 00 00 
       0000F5F2 00 00 00 00 00 00 00 00 00 00 
       0000F5FC 00 00 00 00 00 00 00 00 00 00 
       0000F606 00 00 00 00 00 00 00 00 00 00 
       0000F610 00 00 00 00 00 00 00 00 00 00 
       0000F61A 00 00 00 00 00 00 00 00 00 00 
       0000F624 00 00 00 00 00 00 00 00 00 00 
       0000F62E 00 00 00 00 00 00 00 00 00 00 
       0000F638 00 00 00 00 00 00 00 00 00 00 
       0000F642 00 00 00 00 00 00 00 00 00 00 
       0000F64C 00 00 00 00 00 00 00 00 00 00 
       0000F656 00 00 00 00 00 00 00 00 00 00 
       0000F660 00 00 00 00 00 00 00 00 00 00 
       0000F66A 00 00 00 00 00 00 00 00 00 00 
       0000F674 00 00 00 00 00 00 00 00 00 00 
       0000F67E 00 00 00 00 00 00 00 00 00 00 
       0000F688 00 00 00 00 00 00 00 00 00 00 
       0000F692 00 00 00 00 00 00 00 00 00 00 
       0000F69C 00 00 00 00 00 00 00 00 00 00 
       0000F6A6 00 00 00 00 00 00 00 00 00 00 
       0000F6B0 00 00 00 00 00 00 00 00 00 00 
       0000F6BA 00 00 00 00 00 00 00 00 00 00 
       0000F6C4 00 00 00 00 00 00 00 00 00 00 
       0000F6CE 00 00 00 00 00 00 00 00 00 00 
       0000F6D8 00 00 00 00 00 00 00 00 00 00 
       0000F6E2 00 00 00 00 00 00 00 00 00 00 
       0000F6EC 00 00 00 00 00 00 00 00 00 00 
       0000F6F6 00 00 00 00 00 00 00 00 00 00 
       0000F700 00 00 00 00 00 00 00 00 00 00 
       0000F70A 00 00 00 00 00 00 00 00 00 00 
       0000F714 00 00 00 00 00 00 00 00 00 00 
       0000F71E 00 00 00 00 00 00 00 00 00 00 
       0000F728 00 00 00 00 00 00 00 00 00 00 
       0000F732 00 00 00 00 00 00 00 00 00 00 
       0000F73C 00 00 00 00 00 00 00 00 00 00 
       0000F746 00 00 00 00 00 00 00 00 00 00 
       0000F750 00 00 00 00 00 00 00 00 00 00 
       0000F75A 00 00 00 00 00 00 00 00 00 00 
       0000F764 00 00 00 00 00 00 00 00 00 00 
       0000F76E 00 00 00 00 00 00 00 00 00 00 
       0000F778 00 00 00 00 00 00 00 00 00 00 
       0000F782 00 00 00 00 00 00 00 00 00 00 
       0000F78C 00 00 00 00 00 00 00 00 00 00 
       0000F796 00 00 00 00 00 00 00 00 00 00 
       0000F7A0 00 00 00 00 00 00 00 00 00 00 
       0000F7AA 00 00 00 00 00 00 00 00 00 00 
       0000F7B4 00 00 00 00 00 00 00 00 00 00 
       0000F7BE 00 00 00 00 00 00 00 00 00 00 
       0000F7C8 00 00 00 00 00 00 00 00 00 00 
       0000F7D2 00 00 00 00 00 00 00 00 00 00 
       0000F7DC 00 00 00 00 00 00 00 00 00 00 
       0000F7E6 00 00 00 00 00 00 00 00 00 00 
       0000F7F0 00 00 00 00 00 00 00 00 00 00 
       0000F7FA 00 00 00 00 00 00 00 00 00 00 
       0000F804 00 00 00 00 00 00 00 00 00 00 
       0000F80E 00 00 00 00 00 00 00 00 00 00 
       0000F818 00 00 00 00 00 00 00 00 00 00 
       0000F822 00 00 00 00 00 00 00 00 00 00 
       0000F82C 00 00 00 00 00 00 00 00 00 00 
       0000F836 00 00 00 00 00 00 00 00 00 00 
       0000F840 00 00 00 00 00 00 00 00 00 00 
       0000F84A 00 00 00 00 00 00 00 00 00 00 
       0000F854 00 00 00 00 00 00 00 00 00 00 
       0000F85E 00 00 00 00 00 00 00 00 00 00 
       0000F868 00 00 00 00 00 00 00 00 00 00 
       0000F872 00 00 00 00 00 00 00 00 00 00 
       0000F87C 00 00 00 00 00 00 00 00 00 00 
       0000F886 00 00 00 00 00 00 00 00 00 00 
       0000F890 00 00 00 00 00 00 00 00 00 00 
       0000F89A 00 00 00 00 00 00 00 00 00 00 
       0000F8A4 00 00 00 00 00 00 00 00 00 00 
       0000F8AE 00 00 00 00 00 00 00 00 00 00 
       0000F8B8 00 00 00 00 00 00 00 00 00 00 
       0000F8C2 00 00 00 00 00 00 00 00 00 00 
       0000F8CC 00 00 00 00 00 00 00 00 00 00 
       0000F8D6 00 00 00 00 00 00 00 00 00 00 
       0000F8E0 00 00 00 00 00 00 00 00 00 00 
       0000F8EA 00 00 00 00 00 00 00 00 00 00 
       0000F8F4 00 00 00 00 00 00 00 00 00 00 
       0000F8FE 00 00 00 00 00 00 00 00 00 00 
       0000F908 00 00 00 00 00 00 00 00 00 00 
       0000F912 00 00 00 00 00 00 00 00 00 00 
       0000F91C 00 00 00 00 00 00 00 00 00 00 
       0000F926 00 00 00 00 00 00 00 00 00 00 
       0000F930 00 00 00 00 00 00 00 00 00 00 
       0000F93A 00 00 00 00 00 00 00 00 00 00 
       0000F944 00 00 00 00 00 00 00 00 00 00 
       0000F94E 00 00 00 00 00 00 00 00 00 00 
       0000F958 00 00 00 00 00 00 00 00 00 00 
       0000F962 00 00 00 00 00 00 00 00 00 00 
       0000F96C 00 00 00 00 00 00 00 00 00 00 
       0000F976 00 00 00 00 00 00 00 00 00 00 
       0000F980 00 00 00 00 00 00 00 00 00 00 
       0000F98A 00 00 00 00 00 00 00 00 00 00 
       0000F994 00 00 00 00 00 00 00 00 00 00 
       0000F99E 00 00 00 00 00 00 00 00 00 00 
       0000F9A8 00 00 00 00 00 00 00 00 00 00 
       0000F9B2 00 00 00 00 00 00 00 00 00 00 
       0000F9BC 00 00 00 00 00 00 00 00 00 00 
       0000F9C6 00 00 00 00 00 00 00 00 00 00 
       0000F9D0 00 00 00 00 00 00 00 00 00 00 
       0000F9DA 00 00 00 00 00 00 00 00 00 00 
       0000F9E4 00 00 00 00 00 00 00 00 00 00 
       0000F9EE 00 00 00 00 00 00 00 00 00 00 
       0000F9F8 00 00 00 00 00 00 00 00 00 00 
       0000FA02 00 00 00 00 00 00 00 00 00 00 
       0000FA0C 00 00 00 00 00 00 00 00 00 00 
       0000FA16 00 00 00 00 00 00 00 00 00 00 
       0000FA20 00 00 00 00 00 00 00 00 00 00 
       0000FA2A 00 00 00 00 00 00 00 00 00 00 
       0000FA34 00 00 00 00 00 00 00 00 00 00 
       0000FA3E 00 00 00 00 00 00 00 00 00 00 
       0000FA48 00 00 00 00 00 00 00 00 00 00 
       0000FA52 00 00 00 00 00 00 00 00 00 00 
       0000FA5C 00 00 00 00 00 00 00 00 00 00 
       0000FA66 00 00 00 00 00 00 00 00 00 00 
       0000FA70 00 00 00 00 00 00 00 00 00 00 
       0000FA7A 00 00 00 00 00 00 00 00 00 00 
       0000FA84 00 00 00 00 00 00 00 00 00 00 
       0000FA8E 00 00 00 00 00 00 00 00 00 00 
       0000FA98 00 00 00 00 00 00 00 00 00 00 
       0000FAA2 00 00 00 00 00 00 00 00 00 00 
       0000FAAC 00 00 00 00 00 00 00 00 00 00 
       0000FAB6 00 00 00 00 00 00 00 00 00 00 
       0000FAC0 00 00 00 00 00 00 00 00 00 00 
       0000FACA 00 00 00 00 00 00 00 00 00 00 
       0000FAD4 00 00 00 00 00 00 00 00 00 00 
       0000FADE 00 00 00 00 00 00 00 00 00 00 
       0000FAE8 00 00 00 00 00 00 00 00 00 00 
       0000FAF2 00 00 00 00 00 00 00 00 00 00 
       0000FAFC 00 00 00 00 00 00 00 00 00 00 
       0000FB06 00 00 00 00 00 00 00 00 00 00 
       0000FB10 00 00 00 00 00 00 00 00 00 00 
       0000FB1A 00 00 00 00 00 00 00 00 00 00 
       0000FB24 00 00 00 00 00 00 00 00 00 00 
       0000FB2E 00 00 00 00 00 00 00 00 00 00 
       0000FB38 00 00 00 00 00 00 00 00 00 00 
       0000FB42 00 00 00 00 00 00 00 00 00 00 
       0000FB4C 00 00 00 00 00 00 00 00 00 00 
       0000FB56 00 00 00 00 00 00 00 00 00 00 
       0000FB60 00 00 00 00 00 00 00 00 00 00 
       0000FB6A 00 00 00 00 00 00 00 00 00 00 
       0000FB74 00 00 00 00 00 00 00 00 00 00 
       0000FB7E 00 00 00 00 00 00 00 00 00 00 
       0000FB88 00 00 00 00 00 00 00 00 00 00 
       0000FB92 00 00 00 00 00 00 00 00 00 00 
       0000FB9C 00 00 00 00 00 00 00 00 00 00 
       0000FBA6 00 00 00 00 00 00 00 00 00 00 
       0000FBB0 00 00 00 00 00 00 00 00 00 00 
       0000FBBA 00 00 00 00 00 00 00 00 00 00 
       0000FBC4 00 00 00 00 00 00 00 00 00 00 
       0000FBCE 00 00 00 00 00 00 00 00 00 00 
       0000FBD8 00 00 00 00 00 00 00 00 00 00 
       0000FBE2 00 00 00 00 00 00 00 00 00 00 
       0000FBEC 00 00 00 00 00 00 00 00 00 00 
       0000FBF6 00 00 00 00 00 00 00 00 00 00 
       0000FC00 00 00 00 00 00 00 00 00 00 00 
       0000FC0A 00 00 00 00 00 00 00 00 00 00 
       0000FC14 00 00 00 00 00 00 00 00 00 00 
       0000FC1E 00 00 00 00 00 00 00 00 00 00 
       0000FC28 00 00 00 00 00 00 00 00 00 00 
       0000FC32 00 00 00 00 00 00 00 00 00 00 
       0000FC3C 00 00 00 00 00 00 00 00 00 00 
       0000FC46 00 00 00 00 00 00 00 00 00 00 
       0000FC50 00 00 00 00 00 00 00 00 00 00 
       0000FC5A 00 00 00 00 00 00 00 00 00 00 
       0000FC64 00 00 00 00 00 00 00 00 00 00 
       0000FC6E 00 00 00 00 00 00 00 00 00 00 
       0000FC78 00 00 00 00 00 00 00 00 00 00 
       0000FC82 00 00 00 00 00 00 00 00 00 00 
       0000FC8C 00 00 00 00 00 00 00 00 00 00 
       0000FC96 00 00 00 00 00 00 00 00 00 00 
       0000FCA0 00 00 00 00 00 00 00 00 00 00 
       0000FCAA 00 00 00 00 00 00 00 00 00 00 
       0000FCB4 00 00 00 00 00 00 00 00 00 00 
       0000FCBE 00 00 00 00 00 00 00 00 00 00 
       0000FCC8 00 00 00 00 00 00 00 00 00 00 
       0000FCD2 00 00 00 00 00 00 00 00 00 00 
       0000FCDC 00 00 00 00 00 00 00 00 00 00 
       0000FCE6 00 00 00 00 00 00 00 00 00 00 
       0000FCF0 00 00 00 00 00 00 00 00 00 00 
       0000FCFA 00 00 00 00 00 00 00 00 00 00 
       0000FD04 00 00 00 00 00 00 00 00 00 00 
       0000FD0E 00 00 00 00 00 00 00 00 00 00 
       0000FD18 00 00 00 00 00 00 00 00 00 00 
       0000FD22 00 00 00 00 00 00 00 00 00 00 
       0000FD2C 00 00 00 00 00 00 00 00 00 00 
       0000FD36 00 00 00 00 00 00 00 00 00 00 
       0000FD40 00 00 00 00 00 00 00 00 00 00 
       0000FD4A 00 00 00 00 00 00 00 00 00 00 
       0000FD54 00 00 00 00 00 00 00 00 00 00 
       0000FD5E 00 00 00 00 00 00 00 00 00 00 
       0000FD68 00 00 00 00 00 00 00 00 00 00 
       0000FD72 00 00 00 00 00 00 00 00 00 00 
       0000FD7C 00 00 00 00 00 00 00 00 00 00 
       0000FD86 00 00 00 00 00 00 00 00 00 00 
       0000FD90 00 00 00 00 00 00 00 00 00 00 
       0000FD9A 00 00 00 00 00 00 00 00 00 00 
       0000FDA4 00 00 00 00 00 00 00 00 00 00 
       0000FDAE 00 00 00 00 00 00 00 00 00 00 
       0000FDB8 00 00 00 00 00 00 00 00 00 00 
       0000FDC2 00 00 00 00 00 00 00 00 00 00 
       0000FDCC 00 00 00 00 00 00 00 00 00 00 
       0000FDD6 00 00 00 00 00 00 00 00 00 00 
       0000FDE0 00 00 00 00 00 00 00 00 00 00 
       0000FDEA 00 00 00 00 00 00 00 00 00 00 
       0000FDF4 00 00 00 00 00 00 00 00 00 00 
       0000FDFE 00 00 00 00 00 00 00 00 00 00 
       0000FE08 00 00 00 00 00 00 00 00 00 00 
       0000FE12 00 00 00 00 00 00 00 00 00 00 
       0000FE1C 00 00 00 00 00 00 00 00 00 00 
       0000FE26 00 00 00 00 00 00 00 00 00 00 
       0000FE30 00 00 00 00 00 00 00 00 00 00 
       0000FE3A 00 00 00 00 00 00 00 00 00 00 
       0000FE44 00 00 00 00 00 00 00 00 00 00 
       0000FE4E 00 00 00 00 00 00 00 00 00 00 
       0000FE58 00 00 00 00 00 00 00 00 00 00 
       0000FE62 00 00 00 00 00 00 00 00 00 00 
       0000FE6C 00 00 00 00 00 00 00 00 00 00 
       0000FE76 00 00 00 00 00 00 00 00 00 00 
       0000FE80 00 00 00 00 00 00 00 00 00 00 
       0000FE8A 00 00 00 00 00 00 00 00 00 00 
       0000FE94 00 00 00 00 00 00 00 00 00 00 
       0000FE9E 00 00 00 00 00 00 00 00 00 00 
       0000FEA8 00 00 00 00 00 00 00 00 00 00 
       0000FEB2 00 00 00 00 00 00 00 00 00 00 
       0000FEBC 00 00 00 00 00 00 00 00 00 00 
       0000FEC6 00 00 00 00 00 00 00 00 00 00 
       0000FED0 00 00 00 00 00 00 00 00 00 00 
       0000FEDA 00 00 00 00 00 00 00 00 00 00 
       0000FEE4 00 00 00 00 00 00 00 00 00 00 
       0000FEEE 00 00 00 00 00 00 00 00 00 00 
       0000FEF8 00 00 00 00 00 00 00 00 00 00 
       0000FF02 00 00 00 00 00 00 00 00 00 00 
       0000FF0C 00 00 00 00 00 00 00 00 00 00 
       0000FF16 00 00 00 00 00 00 00 00 00 00 
       0000FF20 00 00 00 00 00 00 00 00 00 00 
       0000FF2A 00 00 00 00 00 00 00 00 00 00 
       0000FF34 00 00 00 00 00 00 00 00 00 00 
       0000FF3E 00 00 00 00 00 00 00 00 00 00 
       0000FF48 00 00 00 00 00 00 00 00 00 00 
       0000FF52 00 00 00 00 00 00 00 00 00 00 
       0000FF5C 00 00 00 00 00 00 00 00 00 00 
       0000FF66 00 00 00 00 00 00 00 00 00 00 
       0000FF70 00 00 00 00 00 00 00 00 00 00 
       0000FF7A 00 00 00 00 00 00 00 00 00 00 
       0000FF84 00 00 00 00 00 00 00 00 00 00 
       0000FF8E 00 00 00 00 00 00 00 00 00 00 
       0000FF98 00 00 00 00 00 00 00 00 00 00 
       0000FFA2 00 00 00 00 00 00 00 00 00 00 
       0000FFAC 00 00 00 00 00 00 00 00 00 00 
       0000FFB6 00 00 00 00 00 00 00 00 00 00 
       0000FFC0 00 00 00 00 00 00 00 00 00 00 
       0000FFCA 00 00 00 00 00 00 00 00 00 00 
       0000FFD4 00 00 00 00 00 00 00 00 00 00 
       0000FFDE 00 00 00 00 00 00 00 00 00 00 
       0000FFE8 00 00 00 00 00 00 00 00 00 00 
       0000FFF2 00 00 00 00 00 00 00 00 00 00 
       0000FFFC 00 00 00 00 00 00 00 00 00 00 
       00010006 00 00 00 00 00 00 00 00 00 00 
       00010010 00 00 00 00 00 00 00 00 00 00 
       0001001A 00 00 00 00 00 00 00 00 00 00 
       00010024 00 00 00 00 00 00 00 00 00 00 
       0001002E 00 00 00 00 00 00 00 00 00 00 
       00010038 00 00 00 00 00 00 00 00 00 00 
       00010042 00 00 00 00 00 00 00 00 00 00 
       0001004C 00 00 00 00 00 00 00 00 00 00 
       00010056 00 00 00 00 00 00 00 00 00 00 
       00010060 00 00 00 00 00 00 00 00 00 00 
       0001006A 00 00 00 00 00 00 00 00 00 00 
       00010074 00 00 00 00 00 00 00 00 00 00 
       0001007E 00 00 00 00 00 00 00 00 00 00 
       00010088 00 00 00 00 00 00 00 00 00 00 
       00010092 00 00 00 00 00 00 00 00 00 00 
       0001009C 00 00 00 00 00 00 00 00 00 00 
       000100A6 00 00 00 00 00 00 00 00 00 00 
       000100B0 00 00 00 00 00 00 00 00 00 00 
       000100BA 00 00 00 00 00 00 00 00 00 00 
       000100C4 00 00 00 00 00 00 00 00 00 00 
       000100CE 00 00 00 00 00 00 00 00 00 00 
       000100D8 00 00 00 00 00 00 00 00 00 00 
       000100E2 00 00 00 00 00 00 00 00 00 00 
       000100EC 00 00 00 00 00 00 00 00 00 00 
       000100F6 00 00 00 00 00 00 00 00 00 00 
       00010100 00 00 00 00 00 00 00 00 00 00 
       0001010A 00 00 00 00 00 00 00 00 00 00 
       00010114 00 00 00 00 00 00 00 00 00 00 
       0001011E 00 00 00 00 00 00 00 00 00 00 
       00010128 00 00 00 00 00 00 00 00 00 00 
       00010132 00 00 00 00 00 00 00 00 00 00 
       0001013C 00 00 00 00 00 00 00 00 00 00 
       00010146 00 00 00 00 00 00 00 00 00 00 
       00010150 00 00 00 00 00 00 00 00 00 00 
       0001015A 00 00 00 00 00 00 00 00 00 00 
       00010164 00 00 00 00 00 00 00 00 00 00 
       0001016E 00 00 00 00 00 00 00 00 00 00 
       00010178 00 00 00 00 00 00 00 00 00 00 
       00010182 00 00 00 00 00 00 00 00 00 00 
       0001018C 00 00 00 00 00 00 00 00 00 00 
       00010196 00 00 00 00 00 00 00 00 00 00 
       000101A0 00 00 00 00 00 00 00 00 00 00 
       000101AA 00 00 00 00 00 00 00 00 00 00 
       000101B4 00 00 00 00 00 00 00 00 00 00 
       000101BE 00 00 00 00 00 00 00 00 00 00 
       000101C8 00 00 00 00 00 00 00 00 00 00 
       000101D2 00 00 00 00 00 00 00 00 00 00 
       000101DC 00 00 00 00 00 00 00 00 00 00 
       000101E6 00 00 00 00 00 00 00 00 00 00 
       000101F0 00 00 00 00 00 00 00 00 00 00 
       000101FA 00 00 00 00 00 00 00 00 00 00 
       00010204 00 00 00 00 00 00 00 00 00 00 
       0001020E 00 00 00 00 00 00 00 00 00 00 
       00010218 00 00 00 00 00 00 00 00 00 00 
       00010222 00 00 00 00 00 00 00 00 00 00 
       0001022C 00 00 00 00 00 00 00 00 00 00 
       00010236 00 00 00 00 00 00 00 00 00 00 
       00010240 00 00 00 00 00 00 00 00 00 00 
       0001024A 00 00 00 00 00 00 00 00 00 00 
       00010254 00 00 00 00 00 00 00 00 00 00 
       0001025E 00 00 00 00 00 00 00 00 00 00 
       00010268 00 00 00 00 00 00 00 00 00 00 
       00010272 00 00 00 00 00 00 00 00 00 00 
       0001027C 00 00 00 00 00 00 00 00 00 00 
       00010286 00 00 00 00 00 00 00 00 00 00 
       00010290 00 00 00 00 00 00 00 00 00 00 
       0001029A 00 00 00 00 00 00 00 00 00 00 
       000102A4 00 00 00 00 00 00 00 00 00 00 
       000102AE 00 00 00 00 00 00 00 00 00 00 
       000102B8 00 00 00 00 00 00 00 00 00 00 
       000102C2 00 00 00 00 00 00 00 00 00 00 
       000102CC 00 00 00 00 00 00 00 00 00 00 
       000102D6 00 00 00 00 00 00 00 00 00 00 
       000102E0 00 00 00 00 00 00 00 00 00 00 
       000102EA 00 00 00 00 00 00 00 00 00 00 
       000102F4 00 00 00 00 00 00 00 00 00 00 
       000102FE 00 00 00 00 00 00 00 00 00 00 
       00010308 00 00 00 00 00 00 00 00 00 00 
       00010312 00 00 00 00 00 00 00 00 00 00 
       0001031C 00 00 00 00 00 00 00 00 00 00 
       00010326 00 00 00 00 00 00 00 00 00 00 
       00010330 00 00 00 00 00 00 00 00 00 00 
       0001033A 00 00 00 00 00 00 00 00 00 00 
       00010344 00 00 00 00 00 00 00 00 00 00 
       0001034E 00 00 00 00 00 00 00 00 00 00 
       00010358 00 00 00 00 00 00 00 00 00 00 
       00010362 00 00 00 00 00 00 00 00 00 00 
       0001036C 00 00 00 00 00 00 00 00 00 00 
       00010376 00 00 00 00 00 00 00 00 00 00 
       00010380 00 00 00 00 00 00 00 00 00 00 
       0001038A 00 00 00 00 00 00 00 00 00 00 
       00010394 00 00 00 00 00 00 00 00 00 00 
       0001039E 00 00 00 00 00 00 00 00 00 00 
       000103A8 00 00 00 00 00 00 00 00 00 00 
       000103B2 00 00 00 00 00 00 00 00 00 00 
       000103BC 00 00 00 00 00 00 00 00 00 00 
       000103C6 00 00 00 00 00 00 00 00 00 00 
       000103D0 00 00 00 00 00 00 00 00 00 00 
       000103DA 00 00 00 00 00 00 00 00 00 00 
       000103E4 00 00 00 00 00 00 00 00 00 00 
       000103EE 00 00 00 00 00 00 00 00 00 00 
       000103F8 00 00 00 00 00 00 00 00 00 00 
       00010402 00 00 00 00 00 00 00 00 00 00 
       0001040C 00 00 00 00 00 00 00 00 00 00 
       00010416 00 00 00 00 00 00 00 00 00 00 
       00010420 00 00 00 00 00 00 00 00 00 00 
       0001042A 00 00 00 00 00 00 00 00 00 00 
       00010434 00 00 00 00 00 00 00 00 00 00 
       0001043E 00 00 00 00 00 00 00 00 00 00 
       00010448 00 00 00 00 00 00 00 00 00 00 
       00010452 00 00 00 00 00 00 00 00 00 00 
       0001045C 00 00 00 00 00 00 00 00 00 00 
       00010466 00 00 00 00 00 00 00 00 00 00 
       00010470 00 00 00 00 00 00 00 00 00 00 
       0001047A 00 00 00 00 00 00 00 00 00 00 
       00010484 00 00 00 00 00 00 00 00 00 00 
       0001048E 00 00 00 00 00 00 00 00 00 00 
       00010498 00 00 00 00 00 00 00 00 00 00 
       000104A2 00 00 00 00 00 00 00 00 00 00 
       000104AC 00 00 00 00 00 00 00 00 00 00 
       000104B6 00 00 00 00 00 00 00 00 00 00 
       000104C0 00 00 00 00 00 00 00 00 00 00 
       000104CA 00 00 00 00 00 00 00 00 00 00 
       000104D4 00 00 00 00 00 00 00 00 00 00 
       000104DE 00 00 00 00 00 00 00 00 00 00 
       000104E8 00 00 00 00 00 00 00 00 00 00 
       000104F2 00 00 00 00 00 00 00 00 00 00 
       000104FC 00 00 00 00 00 00 00 00 00 00 
       00010506 00 00 00 00 00 00 00 00 00 00 
       00010510 00 00 00 00 00 00 00 00 00 00 
       0001051A 00 00 00 00 00 00 00 00 00 00 
       00010524 00 00 00 00 00 00 00 00 00 00 
       0001052E 00 00 00 00 00 00 00 00 00 00 
       00010538 00 00 00 00 00 00 00 00 00 00 
       00010542 00 00 00 00 00 00 00 00 00 00 
       0001054C 00 00 00 00 00 00 00 00 00 00 
       00010556 00 00 00 00 00 00 00 00 00 00 
       00010560 00 00 00 00 00 00 00 00 00 00 
       0001056A 00 00 00 00 00 00 00 00 00 00 
       00010574 00 00 00 00 00 00 00 00 00 00 
       0001057E 00 00 00 00 00 00 00 00 00 00 
       00010588 00 00 00 00 00 00 00 00 00 00 
       00010592 00 00 00 00 00 00 00 00 00 00 
       0001059C 00 00 00 00 00 00 00 00 00 00 
       000105A6 00 00 00 00 00 00 00 00 00 00 
       000105B0 00 00 00 00 00 00 00 00 00 00 
       000105BA 00 00 00 00 00 00 00 00 00 00 
       000105C4 00 00 00 00 00 00 00 00 00 00 
       000105CE 00 00 00 00 00 00 00 00 00 00 
       000105D8 00 00 00 00 00 00 00 00 00 00 
       000105E2 00 00 00 00 00 00 00 00 00 00 
       000105EC 00 00 00 00 00 00 00 00 00 00 
       000105F6 00 00 00 00 00 00 00 00 00 00 
       00010600 00 00 00 00 00 00 00 00 00 00 
       0001060A 00 00 00 00 00 00 00 00 00 00 
       00010614 00 00 00 00 00 00 00 00 00 00 
       0001061E 00 00 00 00 00 00 00 00 00 00 
       00010628 00 00 00 00 00 00 00 00 00 00 
       00010632 00 00 00 00 00 00 00 00 00 00 
       0001063C 00 00 00 00 00 00 00 00 00 00 
       00010646 00 00 00 00 00 00 00 00 00 00 
       00010650 00 00 00 00 00 00 00 00 00 00 
       0001065A 00 00 00 00 00 00 00 00 00 00 
       00010664 00 00 00 00 00 00 00 00 00 00 
       0001066E 00 00 00 00 00 00 00 00 00 00 
       00010678 00 00 00 00 00 00 00 00 00 00 
       00010682 00 00 00 00 00 00 00 00 00 00 
       0001068C 00 00 00 00 00 00 00 00 00 00 
       00010696 00 00 00 00 00 00 00 00 00 00 
       000106A0 00 00 00 00 00 00 00 00 00 00 
       000106AA 00 00 00 00 00 00 00 00 00 00 
       000106B4 00 00 00 00 00 00 00 00 00 00 
       000106BE 00 00 00 00 00 00 00 00 00 00 
       000106C8 00 00 00 00 00 00 00 00 00 00 
       000106D2 00 00 00 00 00 00 00 00 00 00 
       000106DC 00 00 00 00 00 00 00 00 00 00 
       000106E6 00 00 00 00 00 00 00 00 00 00 
       000106F0 00 00 00 00 00 00 00 00 00 00 
       000106FA 00 00 00 00 00 00 00 00 00 00 
       00010704 00 00 00 00 00 00 00 00 00 00 
       0001070E 00 00 00 00 00 00 00 00 00 00 
       00010718 00 00 00 00 00 00 00 00 00 00 
       00010722 00 00 00 00 00 00 00 00 00 00 
       0001072C 00 00 00 00 00 00 00 00 00 00 
       00010736 00 00 00 00 00 00 00 00 00 00 
       00010740 00 00 00 00 00 00 00 00 00 00 
       0001074A 00 00 00 00 00 00 00 00 00 00 
       00010754 00 00 00 00 00 00 00 00 00 00 
       0001075E 00 00 00 00 00 00 00 00 00 00 
       00010768 00 00 00 00 00 00 00 00 00 00 
       00010772 00 00 00 00 00 00 00 00 00 00 
       0001077C 00 00 00 00 00 00 00 00 00 00 
       00010786 00 00 00 00 00 00 00 00 00 00 
       00010790 00 00 00 00 00 00 00 00 00 00 
       0001079A 00 00 00 00 00 00 00 00 00 00 
       000107A4 00 00 00 00 00 00 00 00 00 00 
       000107AE 00 00 00 00 00 00 00 00 00 00 
       000107B8 00 00 00 00 00 00 00 00 00 00 
       000107C2 00 00 00 00 00 00 00 00 00 00 
       000107CC 00 00 00 00 00 00 00 00 00 00 
       000107D6 00 00 00 00 00 00 00 00 00 00 
       000107E0 00 00 00 00 00 00 00 00 00 00 
       000107EA 00 00 00 00 00 00 00 00 00 00 
       000107F4 00 00 00 00 00 00 00 00 00 00 
       000107FE 00 00 00 00 00 00 00 00 00 00 
       00010808 00 00 00 00 00 00 00 00 00 00 
       00010812 00 00 00 00 00 00 00 00 00 00 
       0001081C 00 00 00 00 00 00 00 00 00 00 
       00010826 00 00 00 00 00 00 00 00 00 00 
       00010830 00 00 00 00 00 00 00 00 00 00 
       0001083A 00 00 00 00 00 00 00 00 00 00 
       00010844 00 00 00 00 00 00 00 00 00 00 
       0001084E 00 00 00 00 00 00 00 00 00 00 
       00010858 00 00 00 00 00 00 00 00 00 00 
       00010862 00 00 00 00 00 00 00 00 00 00 
       0001086C 00 00 00 00 00 00 00 00 00 00 
       00010876 00 00 00 00 00 00 00 00 00 00 
       00010880 00 00 00 00 00 00 00 00 00 00 
       0001088A 00 00 00 00 00 00 00 00 00 00 
       00010894 00 00 00 00 00 00 00 00 00 00 
       0001089E 00 00 00 00 00 00 00 00 00 00 
       000108A8 00 00 00 00 00 00 00 00 00 00 
       000108B2 00 00 00 00 00 00 00 00 00 00 
       000108BC 00 00 00 00 00 00 00 00 00 00 
       000108C6 00 00 00 00 00 00 00 00 00 00 
       000108D0 00 00 00 00 00 00 00 00 00 00 
       000108DA 00 00 00 00 00 00 00 00 00 00 
       000108E4 00 00 00 00 00 00 00 00 00 00 
       000108EE 00 00 00 00 00 00 00 00 00 00 
       000108F8 00 00 00 00 00 00 00 00 00 00 
       00010902 00 00 00 00 00 00 00 00 00 00 
       0001090C 00 00 00 00 00 00 00 00 00 00 
       00010916 00 00 00 00 00 00 00 00 00 00 
       00010920 00 00 00 00 00 00 00 00 00 00 
       0001092A 00 00 00 00 00 00 00 00 00 00 
       00010934 00 00 00 00 00 00 00 00 00 00 
       0001093E 00 00 00 00 00 00 00 00 00 00 
       00010948 00 00 00 00 00 00 00 00 00 00 
       00010952 00 00 00 00 00 00 00 00 00 00 
       0001095C 00 00 00 00 00 00 00 00 00 00 
       00010966 00 00 00 00 00 00 00 00 00 00 
       00010970 00 00 00 00 00 00 00 00 00 00 
       0001097A 00 00 00 00 00 00 00 00 00 00 
       00010984 00 00 00 00 00 00 00 00 00 00 
       0001098E 00 00 00 00 00 00 00 00 00 00 
       00010998 00 00 00 00 00 00 00 00 00 00 
       000109A2 00 00 00 00 00 00 00 00 00 00 
       000109AC 00 00 00 00 00 00 00 00 00 00 
       000109B6 00 00 00 00 00 00 00 00 00 00 
       000109C0 00 00 00 00 00 00 00 00 00 00 
       000109CA 00 00 00 00 00 00 00 00 00 00 
       000109D4 00 00 00 00 00 00 00 00 00 00 
       000109DE 00 00 00 00 00 00 00 00 00 00 
       000109E8 00 00 00 00 00 00 00 00 00 00 
       000109F2 00 00 00 00 00 00 00 00 00 00 
       000109FC 00 00 00 00 00 00 00 00 00 00 
       00010A06 00 00 00 00 00 00 00 00 00 00 
       00010A10 00 00 00 00 00 00 00 00 00 00 
       00010A1A 00 00 00 00 00 00 00 00 00 00 
       00010A24 00 00 00 00 00 00 00 00 00 00 
       00010A2E 00 00 00 00 00 00 00 00 00 00 
       00010A38 00 00 00 00 00 00 00 00 00 00 
       00010A42 00 00 00 00 00 00 00 00 00 00 
       00010A4C 00 00 00 00 00 00 00 00 00 00 
       00010A56 00 00 00 00 00 00 00 00 00 00 
       00010A60 00 00 00 00 00 00 00 00 00 00 
       00010A6A 00 00 00 00 00 00 00 00 00 00 
       00010A74 00 00 00 00 00 00 00 00 00 00 
       00010A7E 00 00 00 00 00 00 00 00 00 00 
       00010A88 00 00 00 00 00 00 00 00 00 00 
       00010A92 00 00 00 00 00 00 00 00 00 00 
       00010A9C 00 00 00 00 00 00 00 00 00 00 
       00010AA6 00 00 00 00 00 00 00 00 00 00 
       00010AB0 00 00 00 00 00 00 00 00 00 00 
       00010ABA 00 00 00 00 00 00 00 00 00 00 
       00010AC4 00 00 00 00 00 00 00 00 00 00 
       00010ACE 00 00 00 00 00 00 00 00 00 00 
       00010AD8 00 00 00 00 00 00 00 00 00 00 
       00010AE2 00 00 00 00 00 00 00 00 00 00 
       00010AEC 00 00 00 00 00 00 00 00 00 00 
       00010AF6 00 00 00 00 00 00 00 00 00 00 
       00010B00 00 00 00 00 00 00 00 00 00 00 
       00010B0A 00 00 00 00 00 00 00 00 00 00 
       00010B14 00 00 00 00 00 00 00 00 00 00 
       00010B1E 00 00 00 00 00 00 00 00 00 00 
       00010B28 00 00 00 00 00 00 00 00 00 00 
       00010B32 00 00 00 00 00 00 00 00 00 00 
       00010B3C 00 00 00 00 00 00 00 00 00 00 
       00010B46 00 00 00 00 00 00 00 00 00 00 
       00010B50 00 00 00 00 00 00 00 00 00 00 
       00010B5A 00 00 00 00 00 00 00 00 00 00 
       00010B64 00 00 00 00 00 00 00 00 00 00 
       00010B6E 00 00 00 00 00 00 00 00 00 00 
       00010B78 00 00 00 00 00 00 00 00 00 00 
       00010B82 00 00 00 00 00 00 00 00 00 00 
       00010B8C 00 00 00 00 00 00 00 00 00 00 
       00010B96 00 00 00 00 00 00 00 00 00 00 
       00010BA0 00 00 00 00 00 00 00 00 00 00 
       00010BAA 00 00 00 00 00 00 00 00 00 00 
       00010BB4 00 00 00 00 00 00 00 00 00 00 
       00010BBE 00 00 00 00 00 00 00 00 00 00 
       00010BC8 00 00 00 00 00 00 00 00 00 00 
       00010BD2 00 00 00 00 00 00 00 00 00 00 
       00010BDC 00 00 00 00 00 00 00 00 00 00 
       00010BE6 00 00 00 00 00 00 00 00 00 00 
       00010BF0 00 00 00 00 00 00 00 00 00 00 
       00010BFA 00 00 00 00 00 00 00 00 00 00 
       00010C04 00 00 00 00 00 00 00 00 00 00 
       00010C0E 00 00 00 00 00 00 00 00 00 00 
       00010C18 00 00 00 00 00 00 00 00 00 00 
       00010C22 00 00 00 00 00 00 00 00 00 00 
       00010C2C 00 00 00 00 00 00 00 00 00 00 
       00010C36 00 00 00 00 00 00 00 00 00 00 
       00010C40 00 00 00 00 00 00 00 00 00 00 
       00010C4A 00 00 00 00 00 00 00 00 00 00 
       00010C54 00 00 00 00 00 00 00 00 00 00 
       00010C5E 00 00 00 00 00 00 00 00 00 00 
       00010C68 00 00 00 00 00 00 00 00 00 00 
       00010C72 00 00 00 00 00 00 00 00 00 00 
       00010C7C 00 00 00 00 00 00 00 00 00 00 
       00010C86 00 00 00 00 00 00 00 00 00 00 
       00010C90 00 00 00 00 00 00 00 00 00 00 
       00010C9A 00 00 00 00 00 00 00 00 00 00 
       00010CA4 00 00 00 00 00 00 00 00 00 00 
       00010CAE 00 00 00 00 00 00 00 00 00 00 
       00010CB8 00 00 00 00 00 00 00 00 00 00 
       00010CC2 00 00 00 00 00 00 00 00 00 00 
       00010CCC 00 00 00 00 00 00 00 00 00 00 
       00010CD6 00 00 00 00 00 00 00 00 00 00 
       00010CE0 00 00 00 00 00 00 00 00 00 00 
       00010CEA 00 00 00 00 00 00 00 00 00 00 
       00010CF4 00 00 00 00 00 00 00 00 00 00 
       00010CFE 00 00 00 00 00 00 00 00 00 00 
       00010D08 00 00 00 00 00 00 00 00 00 00 
       00010D12 00 00 00 00 00 00 00 00 00 00 
       00010D1C 00 00 00 00 00 00 00 00 00 00 
       00010D26 00 00 00 00 00 00 00 00 00 00 
       00010D30 00 00 00 00 00 00 00 00 00 00 
       00010D3A 00 00 00 00 00 00 00 00 00 00 
       00010D44 00 00 00 00 00 00 00 00 00 00 
       00010D4E 00 00 00 00 00 00 00 00 00 00 
       00010D58 00 00 00 00 00 00 00 00 00 00 
       00010D62 00 00 00 00 00 00 00 00 00 00 
       00010D6C 00 00 00 00 00 00 00 00 00 00 
       00010D76 00 00 00 00 00 00 00 00 00 00 
       00010D80 00 00 00 00 00 00 00 00 00 00 
       00010D8A 00 00 00 00 00 00 00 00 00 00 
       00010D94 00 00 00 00 00 00 00 00 00 00 
       00010D9E 00 00 00 00 00 00 00 00 00 00 
       00010DA8 00 00 00 00 00 00 00 00 00 00 
       00010DB2 00 00 00 00 00 00 00 00 00 00 
       00010DBC 00 00 00 00 00 00 00 00 00 00 
       00010DC6 00 00 00 00 00 00 00 00 00 00 
       00010DD0 00 00 00 00 00 00 00 00 00 00 
       00010DDA 00 00 00 00 00 00 00 00 00 00 
       00010DE4 00 00 00 00 00 00 00 00 00 00 
       00010DEE 00 00 00 00 00 00 00 00 00 00 
       00010DF8 00 00 00 00 00 00 00 00 00 00 
       00010E02 00 00 00 00 00 00 00 00 00 00 
       00010E0C 00 00 00 00 00 00 00 00 00 00 
       00010E16 00 00 00 00 00 00 00 00 00 00 
       00010E20 00 00 00 00 00 00 00 00 00 00 
       00010E2A 00 00 00 00 00 00 00 00 00 00 
       00010E34 00 00 00 00 00 00 00 00 00 00 
       00010E3E 00 00 00 00 00 00 00 00 00 00 
       00010E48 00 00 00 00 00 00 00 00 00 00 
       00010E52 00 00 00 00 00 00 00 00 00 00 
       00010E5C 00 00 00 00 00 00 00 00 00 00 
       00010E66 00 00 00 00 00 00 00 00 00 00 
       00010E70 00 00 00 00 00 00 00 00 00 00 
       00010E7A 00 00 00 00 00 00 00 00 00 00 
       00010E84 00 00 00 00 00 00 00 00 00 00 
       00010E8E 00 00 00 00 00 00 00 00 00 00 
       00010E98 00 00 00 00 00 00 00 00 00 00 
       00010EA2 00 00 00 00 00 00 00 00 00 00 
       00010EAC 00 00 00 00 00 00 00 00 00 00 
       00010EB6 00 00 00 00 00 00 00 00 00 00 
       00010EC0 00 00 00 00 00 00 00 00 00 00 
       00010ECA 00 00 00 00 00 00 00 00 00 00 
       00010ED4 00 00 00 00 00 00 00 00 00 00 
       00010EDE 00 00 00 00 00 00 00 00 00 00 
       00010EE8 00 00 00 00 00 00 00 00 00 00 
       00010EF2 00 00 00 00 00 00 00 00 00 00 
       00010EFC 00 00 00 00 00 00 00 00 00 00 
       00010F06 00 00 00 00 00 00 00 00 00 00 
       00010F10 00 00 00 00 00 00 00 00 00 00 
       00010F1A 00 00 00 00 00 00 00 00 00 00 
       00010F24 00 00 00 00 00 00 00 00 00 00 
       00010F2E 00 00 00 00 00 00 00 00 00 00 
       00010F38 00 00 00 00 00 00 00 00 00 00 
       00010F42 00 00 00 00 00 00 00 00 00 00 
       00010F4C 00 00 00 00 00 00 00 00 00 00 
       00010F56 00 00 00 00 00 00 00 00 00 00 
       00010F60 00 00 00 00 00 00 00 00 00 00 
       00010F6A 00 00 00 00 00 00 00 00 00 00 
       00010F74 00 00 00 00 00 00 00 00 00 00 
       00010F7E 00 00 00 00 00 00 00 00 00 00 
       00010F88 00 00 00 00 00 00 00 00 00 00 
       00010F92 00 00 00 00 00 00 00 00 00 00 
       00010F9C 00 00 00 00 00 00 00 00 00 00 
       00010FA6 00 00 00 00 00 00 00 00 00 00 
       00010FB0 00 00 00 00 00 00 00 00 00 00 
       00010FBA 00 00 00 00 00 00 00 00 00 00 
       00010FC4 00 00 00 00 00 00 00 00 00 00 
       00010FCE 00 00 00 00 00 00 00 00 00 00 
       00010FD8 00 00 00 00 00 00 00 00 00 00 
       00010FE2 00 00 00 00 00 00 00 00 00 00 
       00010FEC 00 00 00 00 00 00 00 00 00 00 
       00010FF6 00 00 00 00 00 00 00 00 00 00 
       00011000 00 00 00 00 00 00 00 00 00 00 
       0001100A 00 00 00 00 00 00 00 00 00 00 
       00011014 00 00 00 00 00 00 00 00 00 00 
       0001101E 00 00 00 00 00 00 00 00 00 00 
       00011028 00 00 00 00 00 00 00 00 00 00 
       00011032 00 00 00 00 00 00 00 00 00 00 
       0001103C 00 00 00 00 00 00 00 00 00 00 
       00011046 00 00 00 00 00 00 00 00 00 00 
       00011050 00 00 00 00 00 00 00 00 00 00 
       0001105A 00 00 00 00 00 00 00 00 00 00 
       00011064 00 00 00 00 00 00 00 00 00 00 
       0001106E 00 00 00 00 00 00 00 00 00 00 
       00011078 00 00 00 00 00 00 00 00 00 00 
       00011082 00 00 00 00 00 00 00 00 00 00 
       0001108C 00 00 00 00 00 00 00 00 00 00 
       00011096 00 00 00 00 00 00 00 00 00 00 
       000110A0 00 00 00 00 00 00 00 00 00 00 
       000110AA 00 00 00 00 00 00 00 00 00 00 
       000110B4 00 00 00 00 00 00 00 00 00 00 
       000110BE 00 00 00 00 00 00 00 00 00 00 
       000110C8 00 00 00 00 00 00 00 00 00 00 
       000110D2 00 00 00 00 00 00 00 00 00 00 
       000110DC 00 00 00 00 00 00 00 00 00 00 
       000110E6 00 00 00 00 00 00 00 00 00 00 
       000110F0 00 00 00 00 00 00 00 00 00 00 
       000110FA 00 00 00 00 00 00 00 00 00 00 
       00011104 00 00 00 00 00 00 00 00 00 00 
       0001110E 00 00 00 00 00 00 00 00 00 00 
       00011118 00 00 00 00 00 00 00 00 00 00 
       00011122 00 00 00 00 00 00 00 00 00 00 
       0001112C 00 00 00 00 00 00 00 00 00 00 
       00011136 00 00 00 00 00 00 00 00 00 00 
       00011140 00 00 00 00 00 00 00 00 00 00 
       0001114A 00 00 00 00 00 00 00 00 00 00 
       00011154 00 00 00 00 00 00 00 00 00 00 
       0001115E 00 00 00 00 00 00 00 00 00 00 
       00011168 00 00 00 00 00 00 00 00 00 00 
       00011172 00 00 00 00 00 00 00 00 00 00 
       0001117C 00 00 00 00 00 00 00 00 00 00 
       00011186 00 00 00 00 00 00 00 00 00 00 
       00011190 00 00 00 00 00 00 00 00 00 00 
       0001119A 00 00 00 00 00 00 00 00 00 00 
       000111A4 00 00 00 00 00 00 00 00 00 00 
       000111AE 00 00 00 00 00 00 00 00 00 00 
       000111B8 00 00 00 00 00 00 00 00 00 00 
       000111C2 00 00 00 00 00 00 00 00 00 00 
       000111CC 00 00 00 00 00 00 00 00 00 00 
       000111D6 00 00 00 00 00 00 00 00 00 00 
       000111E0 00 00 00 00 00 00 00 00 00 00 
       000111EA 00 00 00 00 00 00 00 00 00 00 
       000111F4 00 00 00 00 00 00 00 00 00 00 
       000111FE 00 00 00 00 00 00 00 00 00 00 
       00011208 00 00 00 00 00 00 00 00 00 00 
       00011212 00 00 00 00 00 00 00 00 00 00 
       0001121C 00 00 00 00 00 00 00 00 00 00 
       00011226 00 00 00 00 00 00 00 00 00 00 
       00011230 00 00 00 00 00 00 00 00 00 00 
       0001123A 00 00 00 00 00 00 00 00 00 00 
       00011244 00 00 00 00 00 00 00 00 00 00 
       0001124E 00 00 00 00 00 00 00 00 00 00 
       00011258 00 00 00 00 00 00 00 00 00 00 
       00011262 00 00 00 00 00 00 00 00 00 00 
       0001126C 00 00 00 00 00 00 00 00 00 00 
       00011276 00 00 00 00 00 00 00 00 00 00 
       00011280 00 00 00 00 00 00 00 00 00 00 
       0001128A 00 00 00 00 00 00 00 00 00 00 
       00011294 00 00 00 00 00 00 00 00 00 00 
       0001129E 00 00 00 00 00 00 00 00 00 00 
       000112A8 00 00 00 00 00 00 00 00 00 00 
       000112B2 00 00 00 00 00 00 00 00 00 00 
       000112BC 00 00 00 00 00 00 00 00 00 00 
       000112C6 00 00 00 00 00 00 00 00 00 00 
       000112D0 00 00 00 00 00 00 00 00 00 00 
       000112DA 00 00 00 00 00 00 00 00 00 00 
       000112E4 00 00 00 00 00 00 00 00 00 00 
       000112EE 00 00 00 00 00 00 00 00 00 00 
       000112F8 00 00 00 00 00 00 00 00 00 00 
       00011302 00 00 00 00 00 00 00 00 00 00 
       0001130C 00 00 00 00 00 00 00 00 00 00 
       00011316 00 00 00 00 00 00 00 00 00 00 
       00011320 00 00 00 00 00 00 00 00 00 00 
       0001132A 00 00 00 00 00 00 00 00 00 00 
       00011334 00 00 00 00 00 00 00 00 00 00 
       0001133E 00 00 00 00 00 00 00 00 00 00 
       00011348 00 00 00 00 00 00 00 00 00 00 
       00011352 00 00 00 00 00 00 00 00 00 00 
       0001135C 00 00 00 00 00 00 00 00 00 00 
       00011366 00 00 00 00 00 00 00 00 00 00 
       00011370 00 00 00 00 00 00 00 00 00 00 
       0001137A 00 00 00 00 00 00 00 00 00 00 
       00011384 00 00 00 00 00 00 00 00 00 00 
       0001138E 00 00 00 00 00 00 00 00 00 00 
       00011398 00 00 00 00 00 00 00 00 00 00 
       000113A2 00 00 00 00 00 00 00 00 00 00 
       000113AC 00 00 00 00 00 00 00 00 00 00 
       000113B6 00 00 00 00 00 00 00 00 00 00 
       000113C0 00 00 00 00 00 00 00 00 00 00 
       000113CA 00 00 00 00 00 00 00 00 00 00 
       000113D4 00 00 00 00 00 00 00 00 00 00 
       000113DE 00 00 00 00 00 00 00 00 00 00 
       000113E8 00 00 00 00 00 00 00 00 00 00 
       000113F2 00 00 00 00 00 00 00 00 00 00 
       000113FC 00 00 00 00 00 00 00 00 00 00 
       00011406 00 00 00 00 00 00 00 00 00 00 
       00011410 00 00 00 00 00 00 00 00 00 00 
       0001141A 00 00 00 00 00 00 00 00 00 00 
       00011424 00 00 00 00 00 00 00 00 00 00 
       0001142E 00 00 00 00 00 00 00 00 00 00 
       00011438 00 00 00 00 00 00 00 00 00 00 
       00011442 00 00 00 00 00 00 00 00 00 00 
       0001144C 00 00 00 00 00 00 00 00 00 00 
       00011456 00 00 00 00 00 00 00 00 00 00 
       00011460 00 00 00 00 00 00 00 00 00 00 
       0001146A 00 00 00 00 00 00 00 00 00 00 
       00011474 00 00 00 00 00 00 00 00 00 00 
       0001147E 00 00 00 00 00 00 00 00 00 00 
       00011488 00 00 00 00 00 00 00 00 00 00 
       00011492 00 00 00 00 00 00 00 00 00 00 
       0001149C 00 00 00 00 00 00 00 00 00 00 
       000114A6 00 00 00 00 00 00 00 00 00 00 
       000114B0 00 00 00 00 00 00 00 00 00 00 
       000114BA 00 00 00 00 00 00 00 00 00 00 
       000114C4 00 00 00 00 00 00 00 00 00 00 
       000114CE 00 00 00 00 00 00 00 00 00 00 
       000114D8 00 00 00 00 00 00 00 00 00 00 
       000114E2 00 00 00 00 00 00 00 00 00 00 
       000114EC 00 00 00 00 00 00 00 00 00 00 
       000114F6 00 00 00 00 00 00 00 00 00 00 
       00011500 00 00 00 00 00 00 00 00 00 00 
       0001150A 00 00 00 00 00 00 00 00 00 00 
       00011514 00 00 00 00 00 00 00 00 00 00 
       0001151E 00 00 00 00 00 00 00 00 00 00 
       00011528 00 00 00 00 00 00 00 00 00 00 
       00011532 00 00 00 00 00 00 00 00 00 00 
       0001153C 00 00 00 00 00 00 00 00 00 00 
       00011546 00 00 00 00 00 00 00 00 00 00 
       00011550 00 00 00 00 00 00 00 00 00 00 
       0001155A 00 00 00 00 00 00 00 00 00 00 
       00011564 00 00 00 00 00 00 00 00 00 00 
       0001156E 00 00 00 00 00 00 00 00 00 00 
       00011578 00 00 00 00 00 00 00 00 00 00 
       00011582 00 00 00 00 00 00 00 00 00 00 
       0001158C 00 00 00 00 00 00 00 00 00 00 
       00011596 00 00 00 00 00 00 00 00 00 00 
       000115A0 00 00 00 00 00 00 00 00 00 00 
       000115AA 00 00 00 00 00 00 00 00 00 00 
       000115B4 00 00 00 00 00 00 00 00 00 00 
       000115BE 00 00 00 00 00 00 00 00 00 00 
       000115C8 00 00 00 00 00 00 00 00 00 00 
       000115D2 00 00 00 00 00 00 00 00 00 00 
       000115DC 00 00 00 00 00 00 00 00 00 00 
       000115E6 00 00 00 00 00 00 00 00 00 00 
       000115F0 00 00 00 00 00 00 00 00 00 00 
       000115FA 00 00 00 00 00 00 00 00 00 00 
       00011604 00 00 00 00 00 00 00 00 00 00 
       0001160E 00 00 00 00 00 00 00 00 00 00 
       00011618 00 00 00 00 00 00 00 00 00 00 
       00011622 00 00 00 00 00 00 00 00 00 00 
       0001162C 00 00 00 00 00 00 00 00 00 00 
       00011636 00 00 00 00 00 00 00 00 00 00 
       00011640 00 00 00 00 00 00 00 00 00 00 
       0001164A 00 00 00 00 00 00 00 00 00 00 
       00011654 00 00 00 00 00 00 00 00 00 00 
       0001165E 00 00 00 00 00 00 00 00 00 00 
       00011668 00 00 00 00 00 00 00 00 00 00 
       00011672 00 00 00 00 00 00 00 00 00 00 
       0001167C 00 00 00 00 00 00 00 00 00 00 
       00011686 00 00 00 00 00 00 00 00 00 00 
       00011690 00 00 00 00 00 00 00 00 00 00 
       0001169A 00 00 00 00 00 00 00 00 00 00 
       000116A4 00 00 00 00 00 00 00 00 00 00 
       000116AE 00 00 00 00 00 00 00 00 00 00 
       000116B8 00 00 00 00 00 00 00 00 00 00 
       000116C2 00 00 00 00 00 00 00 00 00 00 
       000116CC 00 00 00 00 00 00 00 00 00 00 
       000116D6 00 00 00 00 00 00 00 00 00 00 
       000116E0 00 00 00 00 00 00 00 00 00 00 
       000116EA 00 00 00 00 00 00 00 00 00 00 
       000116F4 00 00 00 00 00 00 00 00 00 00 
       000116FE 00 00 00 00 00 00 00 00 00 00 
       00011708 00 00 00 00 00 00 00 00 00 00 
       00011712 00 00 00 00 00 00 00 00 00 00 
       0001171C 00 00 00 00 00 00 00 00 00 00 
       00011726 00 00 00 00 00 00 00 00 00 00 
       00011730 00 00 00 00 00 00 00 00 00 00 
       0001173A 00 00 00 00 00 00 00 00 00 00 
       00011744 00 00 00 00 00 00 00 00 00 00 
       0001174E 00 00 00 00 00 00 00 00 00 00 
       00011758 00 00 00 00 00 00 00 00 00 00 
       00011762 00 00 00 00 00 00 00 00 00 00 
       0001176C 00 00 00 00 00 00 00 00 00 00 
       00011776 00 00 00 00 00 00 00 00 00 00 
       00011780 00 00 00 00 00 00 00 00 00 00 
       0001178A 00 00 00 00 00 00 00 00 00 00 
       00011794 00 00 00 00 00 00 00 00 00 00 
       0001179E 00 00 00 00 00 00 00 00 00 00 
       000117A8 00 00 00 00 00 00 00 00 00 00 
       000117B2 00 00 00 00 00 00 00 00 00 00 
       000117BC 00 00 00 00 00 00 00 00 00 00 
       000117C6 00 00 00 00 00 00 00 00 00 00 
       000117D0 00 00 00 00 00 00 00 00 00 00 
       000117DA 00 00 00 00 00 00 00 00 00 00 
       000117E4 00 00 00 00 00 00 00 00 00 00 
       000117EE 00 00 00 00 00 00 00 00 00 00 
       000117F8 00 00 00 00 00 00 00 00 00 00 
       00011802 00 00 00 00 00 00 00 00 00 00 
       0001180C 00 00 00 00 00 00 00 00 00 00 
       00011816 00 00 00 00 00 00 00 00 00 00 
       00011820 00 00 00 00 00 00 00 00 00 00 
       0001182A 00 00 00 00 00 00 00 00 00 00 
       00011834 00 00 00 00 00 00 00 00 00 00 
       0001183E 00 00 00 00 00 00 00 00 00 00 
       00011848 00 00 00 00 00 00 00 00 00 00 
       00011852 00 00 00 00 00 00 00 00 00 00 
       0001185C 00 00 00 00 00 00 00 00 00 00 
       00011866 00 00 00 00 00 00 00 00 00 00 
       00011870 00 00 00 00 00 00 00 00 00 00 
       0001187A 00 00 00 00 00 00 00 00 00 00 
       00011884 00 00 00 00 00 00 00 00 00 00 
       0001188E 00 00 00 00 00 00 00 00 00 00 
       00011898 00 00 00 00 00 00 00 00 00 00 
       000118A2 00 00 00 00 00 00 00 00 00 00 
       000118AC 00 00 00 00 00 00 00 00 00 00 
       000118B6 00 00 00 00 00 00 00 00 00 00 
       000118C0 00 00 00 00 00 00 00 00 00 00 
       000118CA 00 00 00 00 00 00 00 00 00 00 
       000118D4 00 00 00 00 00 00 00 00 00 00 
       000118DE 00 00 00 00 00 00 00 00 00 00 
       000118E8 00 00 00 00 00 00 00 00 00 00 
       000118F2 00 00 00 00 00 00 00 00 00 00 
       000118FC 00 00 00 00 00 00 00 00 00 00 
       00011906 00 00 00 00 00 00 00 00 00 00 
       00011910 00 00 00 00 00 00 00 00 00 00 
       0001191A 00 00 00 00 00 00 00 00 00 00 
       00011924 00 00 00 00 00 00 00 00 00 00 
       0001192E 00 00 00 00 00 00 00 00 00 00 
       00011938 00 00 00 00 00 00 00 00 00 00 
       00011942 00 00 00 00 00 00 00 00 00 00 
       0001194C 00 00 00 00 00 00 00 00 00 00 
       00011956 00 00 00 00 00 00 00 00 00 00 
       00011960 00 00 00 00 00 00 00 00 00 00 
       0001196A 00 00 00 00 00 00 00 00 00 00 
       00011974 00 00 00 00 00 00 00 00 00 00 
       0001197E 00 00 00 00 00 00 00 00 00 00 
       00011988 00 00 00 00 00 00 00 00 00 00 
       00011992 00 00 00 00 00 00 00 00 00 00 
       0001199C 00 00 00 00 00 00 00 00 00 00 
       000119A6 00 00 00 00 00 00 00 00 00 00 
       000119B0 00 00 00 00 00 00 00 00 00 00 
       000119BA 00 00 00 00 00 00 00 00 00 00 
       000119C4 00 00 00 00 00 00 00 00 00 00 
       000119CE 00 00 00 00 00 00 00 00 00 00 
       000119D8 00 00 00 00 00 00 00 00 00 00 
       000119E2 00 00 00 00 00 00 00 00 00 00 
       000119EC 00 00 00 00 00 00 00 00 00 00 
       000119F6 00 00 00 00 00 00 00 00 00 00 
       00011A00 00 00 00 00 00 00 00 00 00 00 
       00011A0A 00 00 00 00 00 00 00 00 00 00 
       00011A14 00 00 00 00 00 00 00 00 00 00 
       00011A1E 00 00 00 00 00 00 00 00 00 00 
       00011A28 00 00 00 00 00 00 00 00 00 00 
       00011A32 00 00 00 00 00 00 00 00 00 00 
       00011A3C 00 00 00 00 00 00 00 00 00 00 
       00011A46 00 00 00 00 00 00 00 00 00 00 
       00011A50 00 00 00 00 00 00 00 00 00 00 
       00011A5A 00 00 00 00 00 00 00 00 00 00 
       00011A64 00 00 00 00 00 00 00 00 00 00 
       00011A6E 00 00 00 00 00 00 00 00 00 00 
       00011A78 00 00 00 00 00 00 00 00 00 00 
       00011A82 00 00 00 00 00 00 00 00 00 00 
       00011A8C 00 00 00 00 00 00 00 00 00 00 
       00011A96 00 00 00 00 00 00 00 00 00 00 
       00011AA0 00 00 00 00 00 00 00 00 00 00 
       00011AAA 00 00 00 00 00 00 00 00 00 00 
       00011AB4 00 00 00 00 00 00 00 00 00 00 
       00011ABE 00 00 00 00 00 00 00 00 00 00 
       00011AC8 00 00 00 00 00 00 00 00 00 00 
       00011AD2 00 00 00 00 00 00 00 00 00 00 
       00011ADC 00 00 00 00 00 00 00 00 00 00 
       00011AE6 00 00 00 00 00 00 00 00 00 00 
       00011AF0 00 00 00 00 00 00 00 00 00 00 
       00011AFA 00 00 00 00 00 00 00 00 00 00 
       00011B04 00 00 00 00 00 00 00 00 00 00 
       00011B0E 00 00 00 00 00 00 00 00 00 00 
       00011B18 00 00 00 00 00 00 00 00 00 00 
       00011B22 00 00 00 00 00 00 00 00 00 00 
       00011B2C 00 00 00 00 00 00 00 00 00 00 
       00011B36 00 00 00 00 00 00 00 00 00 00 
       00011B40 00 00 00 00 00 00 00 00 00 00 
       00011B4A 00 00 00 00 00 00 00 00 00 00 
       00011B54 00 00 00 00 00 00 00 00 00 00 
       00011B5E 00 00 00 00 00 00 00 00 00 00 
       00011B68 00 00 00 00 00 00 00 00 00 00 
       00011B72 00 00 00 00 00 00 00 00 00 00 
       00011B7C 00 00 00 00 00 00 00 00 00 00 
       00011B86 00 00 00 00 00 00 00 00 00 00 
       00011B90 00 00 00 00 00 00 00 00 00 00 
       00011B9A 00 00 00 00 00 00 00 00 00 00 
       00011BA4 00 00 00 00 00 00 00 00 00 00 
       00011BAE 00 00 00 00 00 00 00 00 00 00 
       00011BB8 00 00 00 00 00 00 00 00 00 00 
       00011BC2 00 00 00 00 00 00 00 00 00 00 
       00011BCC 00 00 00 00 00 00 00 00 00 00 
       00011BD6 00 00 00 00 00 00 00 00 00 00 
       00011BE0 00 00 00 00 00 00 00 00 00 00 
       00011BEA 00 00 00 00 00 00 00 00 00 00 
       00011BF4 00 00 00 00 00 00 00 00 00 00 
       00011BFE 00 00 00 00 00 00 00 00 00 00 
       00011C08 00 00 00 00 00 00 00 00 00 00 
       00011C12 00 00 00 00 00 00 00 00 00 00 
       00011C1C 00 00 00 00 00 00 00 00 00 00 
       00011C26 00 00 00 00 00 00 00 00 00 00 
       00011C30 00 00 00 00 00 00 00 00 00 00 
       00011C3A 00 00 00 00 00 00 00 00 00 00 
       00011C44 00 00 00 00 00 00 00 00 00 00 
       00011C4E 00 00 00 00 00 00 00 00 00 00 
       00011C58 00 00 00 00 00 00 00 00 00 00 
       00011C62 00 00 00 00 00 00 00 00 00 00 
       00011C6C 00 00 00 00 00 00 00 00 00 00 
       00011C76 00 00 00 00 00 00 00 00 00 00 
       00011C80 00 00 00 00 00 00 00 00 00 00 
       00011C8A 00 00 00 00 00 00 00 00 00 00 
       00011C94 00 00 00 00 00 00 00 00 00 00 
       00011C9E 00 00 00 00 00 00 00 00 00 00 
       00011CA8 00 00 00 00 00 00 00 00 00 00 
       00011CB2 00 00 00 00 00 00 00 00 00 00 
       00011CBC 00 00 00 00 00 00 00 00 00 00 
       00011CC6 00 00 00 00 00 00 00 00 00 00 
       00011CD0 00 00 00 00 00 00 00 00 00 00 
       00011CDA 00 00 00 00 00 00 00 00 00 00 
       00011CE4 00 00 00 00 00 00 00 00 00 00 
       00011CEE 00 00 00 00 00 00 00 00 00 00 
       00011CF8 00 00 00 00 00 00 00 00 00 00 
       00011D02 00 00 00 00 00 00 00 00 00 00 
       00011D0C 00 00 00 00 00 00 00 00 00 00 
       00011D16 00 00 00 00 00 00 00 00 00 00 
       00011D20 00 00 00 00 00 00 00 00 00 00 
       00011D2A 00 00 00 00 00 00 00 00 00 00 
       00011D34 00 00 00 00 00 00 00 00 00 00 
       00011D3E 00 00 00 00 00 00 00 00 00 00 
       00011D48 00 00 00 00 00 00 00 00 00 00 
       00011D52 00 00 00 00 00 00 00 00 00 00 
       00011D5C 00 00 00 00 00 00 00 00 00 00 
       00011D66 00 00 00 00 00 00 00 00 00 00 
       00011D70 00 00 00 00 00 00 00 00 00 00 
       00011D7A 00 00 00 00 00 00 00 00 00 00 
       00011D84 00 00 00 00 00 00 00 00 00 00 
       00011D8E 00 00 00 00 00 00 00 00 00 00 
       00011D98 00 00 00 00 00 00 00 00 00 00 
       00011DA2 00 00 00 00 00 00 00 00 00 00 
       00011DAC 00 00 00 00 00 00 00 00 00 00 
       00011DB6 00 00 00 00 00 00 00 00 00 00 
       00011DC0 00 00 00 00 00 00 00 00 00 00 
       00011DCA 00 00 00 00 00 00 00 00 00 00 
       00011DD4 00 00 00 00 00 00 00 00 00 00 
       00011DDE 00 00 00 00 00 00 00 00 00 00 
       00011DE8 00 00 00 00 00 00 00 00 00 00 
       00011DF2 00 00 00 00 00 00 00 00 00 00 
       00011DFC 00 00 00 00 00 00 00 00 00 00 
       00011E06 00 00 00 00 00 00 00 00 00 00 
       00011E10 00 00 00 00 00 00 00 00 00 00 
       00011E1A 00 00 00 00 00 00 00 00 00 00 
       00011E24 00 00 00 00 00 00 00 00 00 00 
       00011E2E 00 00 00 00 00 00 00 00 00 00 
       00011E38 00 00 00 00 00 00 00 00 00 00 
       00011E42 00 00 00 00 00 00 00 00 00 00 
       00011E4C 00 00 00 00 00 00 00 00 00 00 
       00011E56 00 00 00 00 00 00 00 00 00 00 
       00011E60 00 00 00 00 00 00 00 00 00 00 
       00011E6A 00 00 00 00 00 00 00 00 00 00 
       00011E74 00 00 00 00 00 00 00 00 00 00 
       00011E7E 00 00 00 00 00 00 00 00 00 00 
       00011E88 00 00 00 00 00 00 00 00 00 00 
       00011E92 00 00 00 00 00 00 00 00 00 00 
       00011E9C 00 00 00 00 00 00 00 00 00 00 
       00011EA6 00 00 00 00 00 00 00 00 00 00 
       00011EB0 00 00 00 00 00 00 00 00 00 00 
       00011EBA 00 00 00 00 00 00 00 00 00 00 
       00011EC4 00 00 00 00 00 00 00 00 00 00 
       00011ECE 00 00 00 00 00 00 00 00 00 00 
       00011ED8 00 00 00 00 00 00 00 00 00 00 
       00011EE2 00 00 00 00 00 00 00 00 00 00 
       00011EEC 00 00 00 00 00 00 00 00 00 00 
       00011EF6 00 00 00 00 00 00 00 00 00 00 
       00011F00 00 00 00 00 00 00 00 00 00 00 
       00011F0A 00 00 00 00 00 00 00 00 00 00 
       00011F14 00 00 00 00 00 00 00 00 00 00 
       00011F1E 00 00 00 00 00 00 00 00 00 00 
       00011F28 00 00 00 00 00 00 00 00 00 00 
       00011F32 00 00 00 00 00 00 00 00 00 00 
       00011F3C 00 00 00 00 00 00 00 00 00 00 
       00011F46 00 00 00 00 00 00 00 00 00 00 
       00011F50 00 00 00 00 00 00 00 00 00 00 
       00011F5A 00 00 00 00 00 00 00 00 00 00 
       00011F64 00 00 00 00 00 00 00 00 00 00 
       00011F6E 00 00 00 00 00 00 00 00 00 00 
       00011F78 00 00 00 00 00 00 00 00 00 00 
       00011F82 00 00 00 00 00 00 00 00 00 00 
       00011F8C 00 00 00 00 00 00 00 00 00 00 
       00011F96 00 00 00 00 00 00 00 00 00 00 
       00011FA0 00 00 00 00 00 00 00 00 00 00 
       00011FAA 00 00 00 00 00 00 00 00 00 00 
       00011FB4 00 00 00 00 00 00 00 00 00 00 
       00011FBE 00 00 00 00 00 00 00 00 00 00 
       00011FC8 00 00 00 00 00 00 00 00 00 00 
       00011FD2 00 00 00 00 00 00 00 00 00 00 
       00011FDC 00 00 00 00 00 00 00 00 00 00 
       00011FE6 00 00 00 00 00 00 00 00 00 00 
       00011FF0 00 00 00 00 00 00 00 00 00 00 
       00011FFA 00 00 00 00 00 00 00 00 00 00 
       00012004 00 00 00 00 00 00 00 00 00 00 
       0001200E 00 00 00 00 00 00 00 00 00 00 
       00012018 00 00 00 00 00 00 00 00 00 00 
       00012022 00 00 00 00 00 00 00 00 00 00 
       0001202C 00 00 00 00 00 00 00 00 00 00 
       00012036 00 00 00 00 00 00 00 00 00 00 
       00012040 00 00 00 00 00 00 00 00 00 00 
       0001204A 00 00 00 00 00 00 00 00 00 00 
       00012054 00 00 00 00 00 00 00 00 00 00 
       0001205E 00 00 00 00 00 00 00 00 00 00 
       00012068 00 00 00 00 00 00 00 00 00 00 
       00012072 00 00 00 00 00 00 00 00 00 00 
       0001207C 00 00 00 00 00 00 00 00 00 00 
       00012086 00 00 00 00 00 00 00 00 00 00 
       00012090 00 00 00 00 00 00 00 00 00 00 
       0001209A 00 00 00 00 00 00 00 00 00 00 
       000120A4 00 00 00 00 00 00 00 00 00 00 
       000120AE 00 00 00 00 00 00 00 00 00 00 
       000120B8 00 00 00 00 00 00 00 00 00 00 
       000120C2 00 00 00 00 00 00 00 00 00 00 
       000120CC 00 00 00 00 00 00 00 00 00 00 
       000120D6 00 00 00 00 00 00 00 00 00 00 
       000120E0 00 00 00 00 00 00 00 00 00 00 
       000120EA 00 00 00 00 00 00 00 00 00 00 
       000120F4 00 00 00 00 00 00 00 00 00 00 
       000120FE 00 00 00 00 00 00 00 00 00 00 
       00012108 00 00 00 00 00 00 00 00 00 00 
       00012112 00 00 00 00 00 00 00 00 00 00 
       0001211C 00 00 00 00 00 00 00 00 00 00 
       00012126 00 00 00 00 00 00 00 00 00 00 
       00012130 00 00 00 00 00 00 00 00 00 00 
       0001213A 00 00 00 00 00 00 00 00 00 00 
       00012144 00 00 00 00 00 00 00 00 00 00 
       0001214E 00 00 00 00 00 00 00 00 00 00 
       00012158 00 00 00 00 00 00 00 00 00 00 
       00012162 00 00 00 00 00 00 00 00 00 00 
       0001216C 00 00 00 00 00 00 00 00 00 00 
       00012176 00 00 00 00 00 00 00 00 00 00 
       00012180 00 00 00 00 00 00 00 00 00 00 
       0001218A 00 00 00 00 00 00 00 00 00 00 
       00012194 00 00 00 00 00 00 00 00 00 00 
       0001219E 00 00 00 00 00 00 00 00 00 00 
       000121A8 00 00 00 00 00 00 00 00 00 00 
       000121B2 00 00 00 00 00 00 00 00 00 00 
       000121BC 00 00 00 00 00 00 00 00 00 00 
       000121C6 00 00 00 00 00 00 00 00 00 00 
       000121D0 00 00 00 00 00 00 00 00 00 00 
       000121DA 00 00 00 00 00 00 00 00 00 00 
       000121E4 00 00 00 00 00 00 00 00 00 00 
       000121EE 00 00 00 00 00 00 00 00 00 00 
       000121F8 00 00 00 00 00 00 00 00 00 00 
       00012202 00 00 00 00 00 00 00 00 00 00 
       0001220C 00 00 00 00 00 00 00 00 00 00 
       00012216 00 00 00 00 00 00 00 00 00 00 
       00012220 00 00 00 00 00 00 00 00 00 00 
       0001222A 00 00 00 00 00 00 00 00 00 00 
       00012234 00 00 00 00 00 00 00 00 00 00 
       0001223E 00 00 00 00 00 00 00 00 00 00 
       00012248 00 00 00 00 00 00 00 00 00 00 
       00012252 00 00 00 00 00 00 00 00 00 00 
       0001225C 00 00 00 00 00 00 00 00 00 00 
       00012266 00 00 00 00 00 00 00 00 00 00 
       00012270 00 00 00 00 00 00 00 00 00 00 
       0001227A 00 00 00 00 00 00 00 00 00 00 
       00012284 00 00 00 00 00 00 00 00 00 00 
       0001228E 00 00 00 00 00 00 00 00 00 00 
       00012298 00 00 00 00 00 00 00 00 00 00 
       000122A2 00 00 00 00 00 00 00 00 00 00 
       000122AC 00 00 00 00 00 00 00 00 00 00 
       000122B6 00 00 00 00 00 00 00 00 00 00 
       000122C0 00 00 00 00 00 00 00 00 00 00 
       000122CA 00 00 00 00 00 00 00 00 00 00 
       000122D4 00 00 00 00 00 00 00 00 00 00 
       000122DE 00 00 00 00 00 00 00 00 00 00 
       000122E8 00 00 00 00 00 00 00 00 00 00 
       000122F2 00 00 00 00 00 00 00 00 00 00 
       000122FC 00 00 00 00 00 00 00 00 00 00 
       00012306 00 00 00 00 00 00 00 00 00 00 
       00012310 00 00 00 00 00 00 00 00 00 00 
       0001231A 00 00 00 00 00 00 00 00 00 00 
       00012324 00 00 00 00 00 00 00 00 00 00 
       0001232E 00 00 00 00 00 00 00 00 00 00 
       00012338 00 00 00 00 00 00 00 00 00 00 
       00012342 00 00 00 00 00 00 00 00 00 00 
       0001234C 00 00 00 00 00 00 00 00 00 00 
       00012356 00 00 00 00 00 00 00 00 00 00 
       00012360 00 00 00 00 00 00 00 00 00 00 
       0001236A 00 00 00 00 00 00 00 00 00 00 
       00012374 00 00 00 00 00 00 00 00 00 00 
       0001237E 00 00 00 00 00 00 00 00 00 00 
       00012388 00 00 00 00 00 00 00 00 00 00 
       00012392 00 00 00 00 00 00 00 00 00 00 
       0001239C 00 00 00 00 00 00 00 00 00 00 
       000123A6 00 00 00 00 00 00 00 00 00 00 
       000123B0 00 00 00 00 00 00 00 00 00 00 
       000123BA 00 00 00 00 00 00 00 00 00 00 
       000123C4 00 00 00 00 00 00 00 00 00 00 
       000123CE 00 00 00 00 00 00 00 00 00 00 
       000123D8 00 00 00 00 00 00 00 00 00 00 
       000123E2 00 00 00 00 00 00 00 00 00 00 
       000123EC 00 00 00 00 00 00 00 00 00 00 
       000123F6 00 00 00 00 00 00 00 00 00 00 
       00012400 00 00 00 00 00 00 00 00 00 00 
       0001240A 00 00 00 00 00 00 00 00 00 00 
       00012414 00 00 00 00 00 00 00 00 00 00 
       0001241E 00 00 00 00 00 00 00 00 00 00 
       00012428 00 00 00 00 00 00 00 00 00 00 
       00012432 00 00 00 00 00 00 00 00 00 00 
       0001243C 00 00 00 00 00 00 00 00 00 00 
       00012446 00 00 00 00 00 00 00 00 00 00 
       00012450 00 00 00 00 00 00 00 00 00 00 
       0001245A 00 00 00 00 00 00 00 00 00 00 
       00012464 00 00 00 00 00 00 00 00 00 00 
       0001246E 00 00 00 00 00 00 00 00 00 00 
       00012478 00 00 00 00 00 00 00 00 00 00 
       00012482 00 00 00 00 00 00 00 00 00 00 
       0001248C 00 00 00 00 00 00 00 00 00 00 
       00012496 00 00 00 00 00 00 00 00 00 00 
       000124A0 00 00 00 00 00 00 00 00 00 00 
       000124AA 00 00 00 00 00 00 00 00 00 00 
       000124B4 00 00 00 00 00 00 00 00 00 00 
       000124BE 00 00 00 00 00 00 00 00 00 00 
       000124C8 00 00 00 00 00 00 00 00 00 00 
       000124D2 00 00 00 00 00 00 00 00 00 00 
       000124DC 00 00 00 00 00 00 00 00 00 00 
       000124E6 00 00 00 00 00 00 00 00 00 00 
       000124F0 00 00 00 00 00 00 00 00 00 00 
       000124FA 00 00 00 00 00 00 00 00 00 00 
       00012504 00 00 00 00 00 00 00 00 00 00 
       0001250E 00 00 00 00 00 00 00 00 00 00 
       00012518 00 00 00 00 00 00 00 00 00 00 
       00012522 00 00 00 00 00 00 00 00 00 00 
       0001252C 00 00 00 00 00 00 00 00 00 00 
       00012536 00 00 00 00 00 00 00 00 00 00 
       00012540 00 00 00 00 00 00 00 00 00 00 
       0001254A 00 00 00 00 00 00 00 00 00 00 
       00012554 00 00 00 00 00 00 00 00 00 00 
       0001255E 00 00 00 00 00 00 00 00 00 00 
       00012568 00 00 00 00 00 00 00 00 00 00 
       00012572 00 00 00 00 00 00 00 00 00 00 
       0001257C 00 00 00 00 00 00 00 00 00 00 
       00012586 00 00 00 00 00 00 00 00 00 00 
       00012590 00 00 00 00 00 00 00 00 00 00 
       0001259A 00 00 00 00 00 00 00 00 00 00 
       000125A4 00 00 00 00 00 00 00 00 00 00 
       000125AE 00 00 00 00 00 00 00 00 00 00 
       000125B8 00 00 00 00 00 00 00 00 00 00 
       000125C2 00 00 00 00 00 00 00 00 00 00 
       000125CC 00 00 00 00 00 00 00 00 00 00 
       000125D6 00 00 00 00 00 00 00 00 00 00 
       000125E0 00 00 00 00 00 00 00 00 00 00 
       000125EA 00 00 00 00 00 00 00 00 00 00 
       000125F4 00 00 00 00 00 00 00 00 00 00 
       000125FE 00 00 00 00 00 00 00 00 00 00 
       00012608 00 00 00 00 00 00 00 00 00 00 
       00012612 00 00 00 00 00 00 00 00 00 00 
       0001261C 00 00 00 00 00 00 00 00 00 00 
       00012626 00 00 00 00 00 00 00 00 00 00 
       00012630 00 00 00 00 00 00 00 00 00 00 
       0001263A 00 00 00 00 00 00 00 00 00 00 
       00012644 00 00 00 00 00 00 00 00 00 00 
       0001264E 00 00 00 00 00 00 00 00 00 00 
       00012658 00 00 00 00 00 00 00 00 00 00 
       00012662 00 00 00 00 00 00 00 00 00 00 
       0001266C 00 00 00 00 00 00 00 00 00 00 
       00012676 00 00 00 00 00 00 00 00 00 00 
       00012680 00 00 00 00 00 00 00 00 00 00 
       0001268A 00 00 00 00 00 00 00 00 00 00 
       00012694 00 00 00 00 00 00 00 00 00 00 
       0001269E 00 00 00 00 00 00 00 00 00 00 
       000126A8 00 00 00 00 00 00 00 00 00 00 
       000126B2 00 00 00 00 00 00 00 00 00 00 
       000126BC 00 00 00 00 00 00 00 00 00 00 
       000126C6 00 00 00 00 00 00 00 00 00 00 
       000126D0 00 00 00 00 00 00 00 00 00 00 
       000126DA 00 00 00 00 00 00 00 00 00 00 
       000126E4 00 00 00 00 00 00 00 00 00 00 
       000126EE 00 00 00 00 00 00 00 00 00 00 
       000126F8 00 00 00 00 00 00 00 00 00 00 
       00012702 00 00 00 00 00 00 00 00 00 00 
       0001270C 00 00 00 00 00 00 00 00 00 00 
       00012716 00 00 00 00 00 00 00 00 00 00 
       00012720 00 00 00 00 00 00 00 00 00 00 
       0001272A 00 00 00 00 00 00 00 00 00 00 
       00012734 00 00 00 00 00 00 00 00 00 00 
       0001273E 00 00 00 00 00 00 00 00 00 00 
       00012748 00 00 00 00 00 00 00 00 00 00 
       00012752 00 00 00 00 00 00 00 00 00 00 
       0001275C 00 00 00 00 00 00 00 00 00 00 
       00012766 00 00 00 00 00 00 00 00 00 00 
       00012770 00 00 00 00 00 00 00 00 00 00 
       0001277A 00 00 00 00 00 00 00 00 00 00 
       00012784 00 00 00 00 00 00 00 00 00 00 
       0001278E 00 00 00 00 00 00 00 00 00 00 
       00012798 00 00 00 00 00 00 00 00 00 00 
       000127A2 00 00 00 00 00 00 00 00 00 00 
       000127AC 00 00 00 00 00 00 00 00 00 00 
       000127B6 00 00 00 00 00 00 00 00 00 00 
       000127C0 00 00 00 00 00 00 00 00 00 00 
       000127CA 00 00 00 00 00 00 00 00 00 00 
       000127D4 00 00 00 00 00 00 00 00 00 00 
       000127DE 00 00 00 00 00 00 00 00 00 00 
       000127E8 00 00 00 00 00 00 00 00 00 00 
       000127F2 00 00 00 00 00 00 00 00 00 00 
       000127FC 00 00 00 00 00 00 00 00 00 00 
       00012806 00 00 00 00 00 00 00 00 00 00 
       00012810 00 00 00 00 00 00 00 00 00 00 
       0001281A 00 00 00 00 00 00 00 00 00 00 
       00012824 00 00 00 00 00 00 00 00 00 00 
       0001282E 00 00 00 00 00 00 00 00 00 00 
       00012838 00 00 00 00 00 00 00 00 00 00 
       00012842 00 00 00 00 00 00 00 00 00 00 
       0001284C 00 00 00 00 00 00 00 00 00 00 
       00012856 00 00 00 00 00 00 00 00 00 00 
       00012860 00 00 00 00 00 00 00 00 00 00 
       0001286A 00 00 00 00 00 00 00 00 00 00 
       00012874 00 00 00 00 00 00 00 00 00 00 
       0001287E 00 00 00 00 00 00 00 00 00 00 
       00012888 00 00 00 00 00 00 00 00 00 00 
       00012892 00 00 00 00 00 00 00 00 00 00 
       0001289C 00 00 00 00 00 00 00 00 00 00 
       000128A6 00 00 00 00 00 00 00 00 00 00 
       000128B0 00 00 00 00 00 00 00 00 00 00 
       000128BA 00 00 00 00 00 00 00 00 00 00 
       000128C4 00 00 00 00 00 00 00 00 00 00 
       000128CE 00 00 00 00 00 00 00 00 00 00 
       000128D8 00 00 00 00 00 00 00 00 00 00 
       000128E2 00 00 00 00 00 00 00 00 00 00 
       000128EC 00 00 00 00 00 00 00 00 00 00 
       000128F6 00 00 00 00 00 00 00 00 00 00 
       00012900 00 00 00 00 00 00 00 00 00 00 
       0001290A 00 00 00 00 00 00 00 00 00 00 
       00012914 00 00 00 00 00 00 00 00 00 00 
       0001291E 00 00 00 00 00 00 00 00 00 00 
       00012928 00 00 00 00 00 00 00 00 00 00 
       00012932 00 00 00 00 00 00 00 00 00 00 
       0001293C 00 00 00 00 00 00 00 00 00 00 
       00012946 00 00 00 00 00 00 00 00 00 00 
       00012950 00 00 00 00 00 00 00 00 00 00 
       0001295A 00 00 00 00 00 00 00 00 00 00 
       00012964 00 00 00 00 00 00 00 00 00 00 
       0001296E 00 00 00 00 00 00 00 00 00 00 
       00012978 00 00 00 00 00 00 00 00 00 00 
       00012982 00 00 00 00 00 00 00 00 00 00 
       0001298C 00 00 00 00 00 00 00 00 00 00 
       00012996 00 00 00 00 00 00 00 00 00 00 
       000129A0 00 00 00 00 00 00 00 00 00 00 
       000129AA 00 00 00 00 00 00 00 00 00 00 
       000129B4 00 00 00 00 00 00 00 00 00 00 
       000129BE 00 00 00 00 00 00 00 00 00 00 
       000129C8 00 00 00 00 00 00 00 00 00 00 
       000129D2 00 00 00 00 00 00 00 00 00 00 
       000129DC 00 00 00 00 00 00 00 00 00 00 
       000129E6 00 00 00 00 00 00 00 00 00 00 
       000129F0 00 00 00 00 00 00 00 00 00 00 
       000129FA 00 00 00 00 00 00 00 00 00 00 
       00012A04 00 00 00 00 00 00 00 00 00 00 
       00012A0E 00 00 00 00 00 00 00 00 00 00 
       00012A18 00 00 00 00 00 00 00 00 00 00 
       00012A22 00 00 00 00 00 00 00 00 00 00 
       00012A2C 00 00 00 00 00 00 00 00 00 00 
       00012A36 00 00 00 00 00 00 00 00 00 00 
       00012A40 00 00 00 00 00 00 00 00 00 00 
       00012A4A 00 00 00 00 00 00 00 00 00 00 
       00012A54 00 00 00 00 00 00 00 00 00 00 
       00012A5E 00 00 00 00 00 00 00 00 00 00 
       00012A68 00 00 00 00 00 00 00 00 00 00 
       00012A72 00 00 00 00 00 00 00 00 00 00 
       00012A7C 00 00 00 00 00 00 00 00 00 00 
       00012A86 00 00 00 00 00 00 00 00 00 00 
       00012A90 00 00 00 00 00 00 00 00 00 00 
       00012A9A 00 00 00 00 00 00 00 00 00 00 
       00012AA4 00 00 00 00 00 00 00 00 00 00 
       00012AAE 00 00 00 00 00 00 00 00 00 00 
       00012AB8 00 00 00 00 00 00 00 00 00 00 
       00012AC2 00 00 00 00 00 00 00 00 00 00 
       00012ACC 00 00 00 00 00 00 00 00 00 00 
       00012AD6 00 00 00 00 00 00 00 00 00 00 
       00012AE0 00 00 00 00 00 00 00 00 00 00 
       00012AEA 00 00 00 00 00 00 00 00 00 00 
       00012AF4 00 00 00 00 00 00 00 00 00 00 
       00012AFE 00 00 00 00 00 00 00 00 00 00 
       00012B08 00 00 00 00 00 00 00 00 00 00 
       00012B12 00 00 00 00 00 00 00 00 00 00 
       00012B1C 00 00 00 00 00 00 00 00 00 00 
       00012B26 00 00 00 00 00 00 00 00 00 00 
       00012B30 00 00 00 00 00 00 00 00 00 00 
       00012B3A 00 00 00 00 00 00 00 00 00 00 
       00012B44 00 00 00 00 00 00 00 00 00 00 
       00012B4E 00 00 00 00 00 00 00 00 00 00 
       00012B58 00 00 00 00 00 00 00 00 00 00 
       00012B62 00 00 00 00 00 00 00 00 00 00 
       00012B6C 00 00 00 00 00 00 00 00 00 00 
       00012B76 00 00 00 00 00 00 00 00 00 00 
       00012B80 00 00 00 00 00 00 00 00 00 00 
       00012B8A 00 00 00 00 00 00 00 00 00 00 
       00012B94 00 00 00 00 00 00 00 00 00 00 
       00012B9E 00 00 00 00 00 00 00 00 00 00 
       00012BA8 00 00 00 00 00 00 00 00 00 00 
       00012BB2 00 00 00 00 00 00 00 00 00 00 
       00012BBC 00 00 00 00 00 00 00 00 00 00 
       00012BC6 00 00 00 00 00 00 00 00 00 00 
       00012BD0 00 00 00 00 00 00 00 00 00 00 
       00012BDA 00 00 00 00 00 00 00 00 00 00 
       00012BE4 00 00 00 00 00 00 00 00 00 00 
       00012BEE 00 00 00 00 00 00 00 00 00 00 
       00012BF8 00 00 00 00 00 00 00 00 00 00 
       00012C02 00 00 00 00 00 00 00 00 00 00 
       00012C0C 00 00 00 00 00 00 00 00 00 00 
       00012C16 00 00 00 00 00 00 00 00 00 00 
       00012C20 00 00 00 00 00 00 00 00 00 00 
       00012C2A 00 00 00 00 00 00 00 00 00 00 
       00012C34 00 00 00 00 00 00 00 00 00 00 
       00012C3E 00 00 00 00 00 00 00 00 00 00 
       00012C48 00 00 00 00 00 00 00 00 00 00 
       00012C52 00 00 00 00 00 00 00 00 00 00 
       00012C5C 00 00 00 00 00 00 00 00 00 00 
       00012C66 00 00 00 00 00 00 00 00 00 00 
       00012C70 00 00 00 00 00 00 00 00 00 00 
       00012C7A 00 00 00 00 00 00 00 00 00 00 
       00012C84 00 00 00 00 00 00 00 00 00 00 
       00012C8E 00 00 00 00 00 00 00 00 00 00 
       00012C98 00 00 00 00 00 00 00 00 00 00 
       00012CA2 00 00 00 00 00 00 00 00 00 00 
       00012CAC 00 00 00 00 00 00 00 00 00 00 
       00012CB6 00 00 00 00 00 00 00 00 00 00 
       00012CC0 00 00 00 00 00 00 00 00 00 00 
       00012CCA 00 00 00 00 00 00 00 00 00 00 
       00012CD4 00 00 00 00 00 00 00 00 00 00 
       00012CDE 00 00 00 00 00 00 00 00 00 00 
       00012CE8 00 00 00 00 00 00 00 00 00 00 
       00012CF2 00 00 00 00 00 00 00 00 00 00 
       00012CFC 00 00 00 00 00 00 00 00 00 00 
       00012D06 00 00 00 00 00 00 00 00 00 00 
       00012D10 00 00 00 00 00 00 00 00 00 00 
       00012D1A 00 00 00 00 00 00 00 00 00 00 
       00012D24 00 00 00 00 00 00 00 00 00 00 
       00012D2E 00 00 00 00 00 00 00 00 00 00 
       00012D38 00 00 00 00 00 00 00 00 00 00 
       00012D42 00 00 00 00 00 00 00 00 00 00 
       00012D4C 00 00 00 00 00 00 00 00 00 00 
       00012D56 00 00 00 00 00 00 00 00 00 00 
       00012D60 00 00 00 00 00 00 00 00 00 00 
       00012D6A 00 00 00 00 00 00 00 00 00 00 
       00012D74 00 00 00 00 00 00 00 00 00 00 
       00012D7E 00 00 00 00 00 00 00 00 00 00 
       00012D88 00 00 00 00 00 00 00 00 00 00 
       00012D92 00 00 00 00 00 00 00 00 00 00 
       00012D9C 00 00 00 00 00 00 00 00 00 00 
       00012DA6 00 00 00 00 00 00 00 00 00 00 
       00012DB0 00 00 00 00 00 00 00 00 00 00 
       00012DBA 00 00 00 00 00 00 00 00 00 00 
       00012DC4 00 00 00 00 00 00 00 00 00 00 
       00012DCE 00 00 00 00 00 00 00 00 00 00 
       00012DD8 00 00 00 00 00 00 00 00 00 00 
       00012DE2 00 00 00 00 00 00 00 00 00 00 
       00012DEC 00 00 00 00 00 00 00 00 00 00 
       00012DF6 00 00 00 00 00 00 00 00 00 00 
       00012E00 00 00 00 00 00 00 00 00 00 00 
       00012E0A 00 00 00 00 00 00 00 00 00 00 
       00012E14 00 00 00 00 00 00 00 00 00 00 
       00012E1E 00 00 00 00 00 00 00 00 00 00 
       00012E28 00 00 00 00 00 00 00 00 00 00 
       00012E32 00 00 00 00 00 00 00 00 00 00 
       00012E3C 00 00 00 00 00 00 00 00 00 00 
       00012E46 00 00 00 00 00 00 00 00 00 00 
       00012E50 00 00 00 00 00 00 00 00 00 00 
       00012E5A 00 00 00 00 00 00 00 00 00 00 
       00012E64 00 00 00 00 00 00 00 00 00 00 
       00012E6E 00 00 00 00 00 00 00 00 00 00 
       00012E78 00 00 00 00 00 00 00 00 00 00 
       00012E82 00 00 00 00 00 00 00 00 00 00 
       00012E8C 00 00 00 00 00 00 00 00 00 00 
       00012E96 00 00 00 00 00 00 00 00 00 00 
       00012EA0 00 00 00 00 00 00 00 00 00 00 
       00012EAA 00 00 00 00 00 00 00 00 00 00 
       00012EB4 00 00 00 00 00 00 00 00 00 00 
       00012EBE 00 00 00 00 00 00 00 00 00 00 
       00012EC8 00 00 00 00 00 00 00 00 00 00 
       00012ED2 00 00 00 00 00 00 00 00 00 00 
       00012EDC 00 00 00 00 00 00 00 00 00 00 
       00012EE6 00 00 00 00 00 00 00 00 00 00 
       00012EF0 00 00 00 00 00 00 00 00 00 00 
       00012EFA 00 00 00 00 00 00 00 00 00 00 
       00012F04 00 00 00 00 00 00 00 00 00 00 
       00012F0E 00 00 00 00 00 00 00 00 00 00 
       00012F18 00 00 00 00 00 00 00 00 00 00 
       00012F22 00 00 00 00 00 00 00 00 00 00 
       00012F2C 00 00 00 00 00 00 00 00 00 00 
       00012F36 00 00 00 00 00 00 00 00 00 00 
       00012F40 00 00 00 00 00 00 00 00 00 00 
       00012F4A 00 00 00 00 00 00 00 00 00 00 
       00012F54 00 00 00 00 00 00 00 00 00 00 
       00012F5E 00 00 00 00 00 00 00 00 00 00 
       00012F68 00 00 00 00 00 00 00 00 00 00 
       00012F72 00 00 00 00 00 00 00 00 00 00 
       00012F7C 00 00 00 00 00 00 00 00 00 00 
       00012F86 00 00 00 00 00 00 00 00 00 00 
       00012F90 00 00 00 00 00 00 00 00 00 00 
       00012F9A 00 00 00 00 00 00 00 00 00 00 
       00012FA4 00 00 00 00 00 00 00 00 00 00 
       00012FAE 00 00 00 00 00 00 00 00 00 00 
       00012FB8 00 00 00 00 00 00 00 00 00 00 
       00012FC2 00 00 00 00 00 00 00 00 00 00 
       00012FCC 00 00 00 00 00 00 00 00 00 00 
       00012FD6 00 00 00 00 00 00 00 00 00 00 
       00012FE0 00 00 00 00 00 00 00 00 00 00 
       00012FEA 00 00 00 00 00 00 00 00 00 00 
       00012FF4 00 00 00 00 00 00 00 00 00 00 
       00012FFE 00 00 00 00 00 00 00 00 00 00 
       00013008 00 00 00 00 00 00 00 00 00 00 
       00013012 00 00 00 00 00 00 00 00 00 00 
       0001301C 00 00 00 00 00 00 00 00 00 00 
       00013026 00 00 00 00 00 00 00 00 00 00 
       00013030 00 00 00 00 00 00 00 00 00 00 
       0001303A 00 00 00 00 00 00 00 00 00 00 
       00013044 00 00 00 00 00 00 00 00 00 00 
       0001304E 00 00 00 00 00 00 00 00 00 00 
       00013058 00 00 00 00 00 00 00 00 00 00 
       00013062 00 00 00 00 00 00 00 00 00 00 
       0001306C 00 00 00 00 00 00 00 00 00 00 
       00013076 00 00 00 00 00 00 00 00 00 00 
       00013080 00 00 00 00 00 00 00 00 00 00 
       0001308A 00 00 00 00 00 00 00 00 00 00 
       00013094 00 00 00 00 00 00 00 00 00 00 
       0001309E 00 00 00 00 00 00 00 00 00 00 
       000130A8 00 00 00 00 00 00 00 00 00 00 
       000130B2 00 00 00 00 00 00 00 00 00 00 
       000130BC 00 00 00 00 00 00 00 00 00 00 
       000130C6 00 00 00 00 00 00 00 00 00 00 
       000130D0 00 00 00 00 00 00 00 00 00 00 
       000130DA 00 00 00 00 00 00 00 00 00 00 
       000130E4 00 00 00 00 00 00 00 00 00 00 
       000130EE 00 00 00 00 00 00 00 00 00 00 
       000130F8 00 00 00 00 00 00 00 00 00 00 
       00013102 00 00 00 00 00 00 00 00 00 00 
       0001310C 00 00 00 00 00 00 00 00 00 00 
       00013116 00 00 00 00 00 00 00 00 00 00 
       00013120 00 00 00 00 00 00 00 00 00 00 
       0001312A 00 00 00 00 00 00 00 00 00 00 
       00013134 00 00 00 00 00 00 00 00 00 00 
       0001313E 00 00 00 00 00 00 00 00 00 00 
       00013148 00 00 00 00 00 00 00 00 00 00 
       00013152 00 00 00 00 00 00 00 00 00 00 
       0001315C 00 00 00 00 00 00 00 00 00 00 
       00013166 00 00 00 00 00 00 00 00 00 00 
       00013170 00 00 00 00 00 00 00 00 00 00 
       0001317A 00 00 00 00 00 00 00 00 00 00 
       00013184 00 00 00 00 00 00 00 00 00 00 
       0001318E 00 00 00 00 00 00 00 00 00 00 
       00013198 00 00 00 00 00 00 00 00 00 00 
       000131A2 00 00 00 00 00 00 00 00 00 00 
       000131AC 00 00 00 00 00 00 00 00 00 00 
       000131B6 00 00 00 00 00 00 00 00 00 00 
       000131C0 00 00 00 00 00 00 00 00 00 00 
       000131CA 00 00 00 00 00 00 00 00 00 00 
       000131D4 00 00 00 00 00 00 00 00 00 00 
       000131DE 00 00 00 00 00 00 00 00 00 00 
       000131E8 00 00 00 00 00 00 00 00 00 00 
       000131F2 00 00 00 00 00 00 00 00 00 00 
       000131FC 00 00 00 00 00 00 00 00 00 00 
       00013206 00 00 00 00 00 00 00 00 00 00 
       00013210 00 00 00 00 00 00 00 00 00 00 
       0001321A 00 00 00 00 00 00 00 00 00 00 
       00013224 00 00 00 00 00 00 00 00 00 00 
       0001322E 00 00 00 00 00 00 00 00 00 00 
       00013238 00 00 00 00 00 00 00 00 00 00 
       00013242 00 00 00 00 00 00 00 00 00 00 
       0001324C 00 00 00 00 00 00 00 00 00 00 
       00013256 00 00 00 00 00 00 00 00 00 00 
       00013260 00 00 00 00 00 00 00 00 00 00 
       0001326A 00 00 00 00 00 00 00 00 00 00 
       00013274 00 00 00 00 00 00 00 00 00 00 
       0001327E 00 00 00 00 00 00 00 00 00 00 
       00013288 00 00 00 00 00 00 00 00 00 00 
       00013292 00 00 00 00 00 00 00 00 00 00 
       0001329C 00 00 00 00 00 00 00 00 00 00 
       000132A6 00 00 00 00 00 00 00 00 00 00 
       000132B0 00 00 00 00 00 00 00 00 00 00 
       000132BA 00 00 00 00 00 00 00 00 00 00 
       000132C4 00 00 00 00 00 00 00 00 00 00 
       000132CE 00 00 00 00 00 00 00 00 00 00 
       000132D8 00 00 00 00 00 00 00 00 00 00 
       000132E2 00 00 00 00 00 00 00 00 00 00 
       000132EC 00 00 00 00 00 00 00 00 00 00 
       000132F6 00 00 00 00 00 00 00 00 00 00 
       00013300 00 00 00 00 00 00 00 00 00 00 
       0001330A 00 00 00 00 00 00 00 00 00 00 
       00013314 00 00 00 00 00 00 00 00 00 00 
       0001331E 00 00 00 00 00 00 00 00 00 00 
       00013328 00 00 00 00 00 00 00 00 00 00 
       00013332 00 00 00 00 00 00 00 00 00 00 
       0001333C 00 00 00 00 00 00 00 00 00 00 
       00013346 00 00 00 00 00 00 00 00 00 00 
       00013350 00 00 00 00 00 00 00 00 00 00 
       0001335A 00 00 00 00 00 00 00 00 00 00 
       00013364 00 00 00 00 00 00 00 00 00 00 
       0001336E 00 00 00 00 00 00 00 00 00 00 
       00013378 00 00 00 00 00 00 00 00 00 00 
       00013382 00 00 00 00 00 00 00 00 00 00 
       0001338C 00 00 00 00 00 00 00 00 00 00 
       00013396 00 00 00 00 00 00 00 00 00 00 
       000133A0 00 00 00 00 00 00 00 00 00 00 
       000133AA 00 00 00 00 00 00 00 00 00 00 
       000133B4 00 00 00 00 00 00 00 00 00 00 
       000133BE 00 00 00 00 00 00 00 00 00 00 
       000133C8 00 00 00 00 00 00 00 00 00 00 
       000133D2 00 00 00 00 00 00 00 00 00 00 
       000133DC 00 00 00 00 00 00 00 00 00 00 
       000133E6 00 00 00 00 00 00 00 00 00 00 
       000133F0 00 00 00 00 00 00 00 00 00 00 
       000133FA 00 00 00 00 00 00 00 00 00 00 
       00013404 00 00 00 00 00 00 00 00 00 00 
       0001340E 00 00 00 00 00 00 00 00 00 00 
       00013418 00 00 00 00 00 00 00 00 00 00 
       00013422 00 00 00 00 00 00 00 00 00 00 
       0001342C 00 00 00 00 00 00 00 00 00 00 
       00013436 00 00 00 00 00 00 00 00 00 00 
       00013440 00 00 00 00 00 00 00 00 00 00 
       0001344A 00 00 00 00 00 00 00 00 00 00 
       00013454 00 00 00 00 00 00 00 00 00 00 
       0001345E 00 00 00 00 00 00 00 00 00 00 
       00013468 00 00 00 00 00 00 00 00 00 00 
       00013472 00 00 00 00 00 00 00 00 00 00 
       0001347C 00 00 00 00 00 00 00 00 00 00 
       00013486 00 00 00 00 00 00 00 00 00 00 
       00013490 00 00 00 00 00 00 00 00 00 00 
       0001349A 00 00 00 00 00 00 00 00 00 00 
       000134A4 00 00 00 00 00 00 00 00 00 00 
       000134AE 00 00 00 00 00 00 00 00 00 00 
       000134B8 00 00 00 00 00 00 00 00 00 00 
       000134C2 00 00 00 00 00 00 00 00 00 00 
       000134CC 00 00 00 00 00 00 00 00 00 00 
       000134D6 00 00 00 00 00 00 00 00 00 00 
       000134E0 00 00 00 00 00 00 00 00 00 00 
       000134EA 00 00 00 00 00 00 00 00 00 00 
       000134F4 00 00 00 00 00 00 00 00 00 00 
       000134FE 00 00 00 00 00 00 00 00 00 00 
       00013508 00 00 00 00 00 00 00 00 00 00 
       00013512 00 00 00 00 00 00 00 00 00 00 
       0001351C 00 00 00 00 00 00 00 00 00 00 
       00013526 00 00 00 00 00 00 00 00 00 00 
       00013530 00 00 00 00 00 00 00 00 00 00 
       0001353A 00 00 00 00 00 00 00 00 00 00 
       00013544 00 00 00 00 00 00 00 00 00 00 
       0001354E 00 00 00 00 00 00 00 00 00 00 
       00013558 00 00 00 00 00 00 00 00 00 00 
       00013562 00 00 00 00 00 00 00 00 00 00 
       0001356C 00 00 00 00 00 00 00 00 00 00 
       00013576 00 00 00 00 00 00 00 00 00 00 
       00013580 00 00 00 00 00 00 00 00 00 00 
       0001358A 00 00 00 00 00 00 00 00 00 00 
       00013594 00 00 00 00 00 00 00 00 00 00 
       0001359E 00 00 00 00 00 00 00 00 00 00 
       000135A8 00 00 00 00 00 00 00 00 00 00 
       000135B2 00 00 00 00 00 00 00 00 00 00 
       000135BC 00 00 00 00 00 00 00 00 00 00 
       000135C6 00 00 00 00 00 00 00 00 00 00 
       000135D0 00 00 00 00 00 00 00 00 00 00 
       000135DA 00 00 00 00 00 00 00 00 00 00 
       000135E4 00 00 00 00 00 00 00 00 00 00 
       000135EE 00 00 00 00 00 00 00 00 00 00 
       000135F8 00 00 00 00 00 00 00 00 00 00 
       00013602 00 00 00 00 00 00 00 00 00 00 
       0001360C 00 00 00 00 00 00 00 00 00 00 
       00013616 00 00 00 00 00 00 00 00 00 00 
       00013620 00 00 00 00 00 00 00 00 00 00 
       0001362A 00 00 00 00 00 00 00 00 00 00 
       00013634 00 00 00 00 00 00 00 00 00 00 
       0001363E 00 00 00 00 00 00 00 00 00 00 
       00013648 00 00 00 00 00 00 00 00 00 00 
       00013652 00 00 00 00 00 00 00 00 00 00 
       0001365C 00 00 00 00 00 00 00 00 00 00 
       00013666 00 00 00 00 00 00 00 00 00 00 
       00013670 00 00 00 00 00 00 00 00 00 00 
       0001367A 00 00 00 00 00 00 00 00 00 00 
       00013684 00 00 00 00 00 00 00 00 00 00 
       0001368E 00 00 00 00 00 00 00 00 00 00 
       00013698 00 00 00 00 00 00 00 00 00 00 
       000136A2 00 00 00 00 00 00 00 00 00 00 
       000136AC 00 00 00 00 00 00 00 00 00 00 
       000136B6 00 00 00 00 00 00 00 00 00 00 
       000136C0 00 00 00 00 00 00 00 00 00 00 
       000136CA 00 00 00 00 00 00 00 00 00 00 
       000136D4 00 00 00 00 00 00 00 00 00 00 
       000136DE 00 00 00 00 00 00 00 00 00 00 
       000136E8 00 00 00 00 00 00 00 00 00 00 
       000136F2 00 00 00 00 00 00 00 00 00 00 
       000136FC 00 00 00 00 00 00 00 00 00 00 
       00013706 00 00 00 00 00 00 00 00 00 00 
       00013710 00 00 00 00 00 00 00 00 00 00 
       0001371A 00 00 00 00 00 00 00 00 00 00 
       00013724 00 00 00 00 00 00 00 00 00 00 
       0001372E 00 00 00 00 00 00 00 00 00 00 
       00013738 00 00 00 00 00 00 00 00 00 00 
       00013742 00 00 00 00 00 00 00 00 00 00 
       0001374C 00 00 00 00 00 00 00 00 00 00 
       00013756 00 00 00 00 00 00 00 00 00 00 
       00013760 00 00 00 00 00 00 00 00 00 00 
       0001376A 00 00 00 00 00 00 00 00 00 00 
       00013774 00 00 00 00 00 00 00 00 00 00 
       0001377E 00 00 00 00 00 00 00 00 00 00 
       00013788 00 00 00 00 00 00 00 00 00 00 
       00013792 00 00 00 00 00 00 00 00 00 00 
       0001379C 00 00 00 00 00 00 00 00 00 00 
       000137A6 00 00 00 00 00 00 00 00 00 00 
       000137B0 00 00 00 00 00 00 00 00 00 00 
       000137BA 00 00 00 00 00 00 00 00 00 00 
       000137C4 00 00 00 00 00 00 00 00 00 00 
       000137CE 00 00 00 00 00 00 00 00 00 00 
       000137D8 00 00 00 00 00 00 00 00 00 00 
       000137E2 00 00 00 00 00 00 00 00 00 00 
       000137EC 00 00 00 00 00 00 00 00 00 00 
       000137F6 00 00 00 00 00 00 00 00 00 00 
       00013800 00 00 00 00 00 00 00 00 00 00 
       0001380A 00 00 00 00 00 00 00 00 00 00 
       00013814 00 00 00 00 00 00 00 00 00 00 
       0001381E 00 00 00 00 00 00 00 00 00 00 
       00013828 00 00 00 00 00 00 00 00 00 00 
       00013832 00 00 00 00 00 00 00 00 00 00 
       0001383C 00 00 00 00 00 00 00 00 00 00 
       00013846 00 00 00 00 00 00 00 00 00 00 
       00013850 00 00 00 00 00 00 00 00 00 00 
       0001385A 00 00 00 00 00 00 00 00 00 00 
       00013864 00 00 00 00 00 00 00 00 00 00 
       0001386E 00 00 00 00 00 00 00 00 00 00 
       00013878 00 00 00 00 00 00 00 00 00 00 
       00013882 00 00 00 00 00 00 00 00 00 00 
       0001388C 00 00 00 00 00 00 00 00 00 00 
       00013896 00 00 00 00 00 00 00 00 00 00 
       000138A0 00 00 00 00 00 00 00 00 00 00 
       000138AA 00 00 00 00 00 00 00 00 00 00 
       000138B4 00 00 00 00 00 00 00 00 00 00 
       000138BE 00 00 00 00 00 00 00 00 00 00 
       000138C8 00 00 00 00 00 00 00 00 00 00 
       000138D2 00 00 00 00 00 00 00 00 00 00 
       000138DC 00 00 00 00 00 00 00 00 00 00 
       000138E6 00 00 00 00 00 00 00 00 00 00 
       000138F0 00 00 00 00 00 00 00 00 00 00 
       000138FA 00 00 00 00 00 00 00 00 00 00 
       00013904 00 00 00 00 00 00 00 00 00 00 
       0001390E 00 00 00 00 00 00 00 00 00 00 
       00013918 00 00 00 00 00 00 00 00 00 00 
       00013922 00 00 00 00 00 00 00 00 00 00 
       0001392C 00 00 00 00 00 00 00 00 00 00 
       00013936 00 00 00 00 00 00 00 00 00 00 
       00013940 00 00 00 00 00 00 00 00 00 00 
       0001394A 00 00 00 00 00 00 00 00 00 00 
       00013954 00 00 00 00 00 00 00 00 00 00 
       0001395E 00 00 00 00 00 00 00 00 00 00 
       00013968 00 00 00 00 00 00 00 00 00 00 
       00013972 00 00 00 00 00 00 00 00 00 00 
       0001397C 00 00 00 00 00 00 00 00 00 00 
       00013986 00 00 00 00 00 00 00 00 00 00 
       00013990 00 00 00 00 00 00 00 00 00 00 
       0001399A 00 00 00 00 00 00 00 00 00 00 
       000139A4 00 00 00 00 00 00 00 00 00 00 
       000139AE 00 00 00 00 00 00 00 00 00 00 
       000139B8 00 00 00 00 00 00 00 00 00 00 
       000139C2 00 00 00 00 00 00 00 00 00 00 
       000139CC 00 00 00 00 00 00 00 00 00 00 
       000139D6 00 00 00 00 00 00 00 00 00 00 
       000139E0 00 00 00 00 00 00 00 00 00 00 
       000139EA 00 00 00 00 00 00 00 00 00 00 
       000139F4 00 00 00 00 00 00 00 00 00 00 
       000139FE 00 00 00 00 00 00 00 00 00 00 
       00013A08 00 00 00 00 00 00 00 00 00 00 
       00013A12 00 00 00 00 00 00 00 00 00 00 
       00013A1C 00 00 00 00 00 00 00 00 00 00 
       00013A26 00 00 00 00 00 00 00 00 00 00 
       00013A30 00 00 00 00 00 00 00 00 00 00 
       00013A3A 00 00 00 00 00 00 00 00 00 00 
       00013A44 00 00 00 00 00 00 00 00 00 00 
       00013A4E 00 00 00 00 00 00 00 00 00 00 
       00013A58 00 00 00 00 00 00 00 00 00 00 
       00013A62 00 00 00 00 00 00 00 00 00 00 
       00013A6C 00 00 00 00 00 00 00 00 00 00 
       00013A76 00 00 00 00 00 00 00 00 00 00 
       00013A80 00 00 00 00 00 00 00 00 00 00 
       00013A8A 00 00 00 00 00 00 00 00 00 00 
       00013A94 00 00 00 00 00 00 00 00 00 00 
       00013A9E 00 00 00 00 00 00 00 00 00 00 
       00013AA8 00 00 00 00 00 00 00 00 00 00 
       00013AB2 00 00 00 00 00 00 00 00 00 00 
       00013ABC 00 00 00 00 00 00 00 00 00 00 
       00013AC6 00 00 00 00 00 00 00 00 00 00 
       00013AD0 00 00 00 00 00 00 00 00 00 00 
       00013ADA 00 00 00 00 00 00 00 00 00 00 
       00013AE4 00 00 00 00 00 00 00 00 00 00 
       00013AEE 00 00 00 00 00 00 00 00 00 00 
       00013AF8 00 00 00 00 00 00 00 00 00 00 
       00013B02 00 00 00 00 00 00 00 00 00 00 
       00013B0C 00 00 00 00 00 00 00 00 00 00 
       00013B16 00 00 00 00 00 00 00 00 00 00 
       00013B20 00 00 00 00 00 00 00 00 00 00 
       00013B2A 00 00 00 00 00 00 00 00 00 00 
       00013B34 00 00 00 00 00 00 00 00 00 00 
       00013B3E 00 00 00 00 00 00 00 00 00 00 
       00013B48 00 00 00 00 00 00 00 00 00 00 
       00013B52 00 00 00 00 00 00 00 00 00 00 
       00013B5C 00 00 00 00 00 00 00 00 00 00 
       00013B66 00 00 00 00 00 00 00 00 00 00 
       00013B70 00 00 00 00 00 00 00 00 00 00 
       00013B7A 00 00 00 00 00 00 00 00 00 00 
       00013B84 00 00 00 00 00 00 00 00 00 00 
       00013B8E 00 00 00 00 00 00 00 00 00 00 
       00013B98 00 00 00 00 00 00 00 00 00 00 
       00013BA2 00 00 00 00 00 00 00 00 00 00 
       00013BAC 00 00 00 00 00 00 00 00 00 00 
       00013BB6 00 00 00 00 00 00 00 00 00 00 
       00013BC0 00 00 00 00 00 00 00 00 00 00 
       00013BCA 00 00 00 00 00 00 00 00 00 00 
       00013BD4 00 00 00 00 00 00 00 00 00 00 
       00013BDE 00 00 00 00 00 00 00 00 00 00 
       00013BE8 00 00 00 00 00 00 00 00 00 00 
       00013BF2 00 00 00 00 00 00 00 00 00 00 
       00013BFC 00 00 00 00 00 00 00 00 00 00 
       00013C06 00 00 00 00 00 00 00 00 00 00 
       00013C10 00 00 00 00 00 00 00 00 00 00 
       00013C1A 00 00 00 00 00 00 00 00 00 00 
       00013C24 00 00 00 00 00 00 00 00 00 00 
       00013C2E 00 00 00 00 00 00 00 00 00 00 
       00013C38 00 00 00 00 00 00 00 00 00 00 
       00013C42 00 00 00 00 00 00 00 00 00 00 
       00013C4C 00 00 00 00 00 00 00 00 00 00 
       00013C56 00 00 00 00 00 00 00 00 00 00 
       00013C60 00 00 00 00 00 00 00 00 00 00 
       00013C6A 00 00 00 00 00 00 00 00 00 00 
       00013C74 00 00 00 00 00 00 00 00 00 00 
       00013C7E 00 00 00 00 00 00 00 00 00 00 
       00013C88 00 00 00 00 00 00 00 00 00 00 
       00013C92 00 00 00 00 00 00 00 00 00 00 
       00013C9C 00 00 00 00 00 00 00 00 00 00 
       00013CA6 00 00 00 00 00 00 00 00 00 00 
       00013CB0 00 00 00 00 00 00 00 00 00 00 
       00013CBA 00 00 00 00 00 00 00 00 00 00 
       00013CC4 00 00 00 00 00 00 00 00 00 00 
       00013CCE 00 00 00 00 00 00 00 00 00 00 
       00013CD8 00 00 00 00 00 00 00 00 00 00 
       00013CE2 00 00 00 00 00 00 00 00 00 00 
       00013CEC 00 00 00 00 00 00 00 00 00 00 
       00013CF6 00 00 00 00 00 00 00 00 00 00 
       00013D00 00 00 00 00 00 00 00 00 00 00 
       00013D0A 00 00 00 00 00 00 00 00 00 00 
       00013D14 00 00 00 00 00 00 00 00 00 00 
       00013D1E 00 00 00 00 00 00 00 00 00 00 
       00013D28 00 00 00 00 00 00 00 00 00 00 
       00013D32 00 00 00 00 00 00 00 00 00 00 
       00013D3C 00 00 00 00 00 00 00 00 00 00 
       00013D46 00 00 00 00 00 00 00 00 00 00 
       00013D50 00 00 00 00 00 00 00 00 00 00 
       00013D5A 00 00 00 00 00 00 00 00 00 00 
       00013D64 00 00 00 00 00 00 00 00 00 00 
       00013D6E 00 00 00 00 00 00 00 00 00 00 
       00013D78 00 00 00 00 00 00 00 00 00 00 
       00013D82 00 00 00 00 00 00 00 00 00 00 
       00013D8C 00 00 00 00 00 00 00 00 00 00 
       00013D96 00 00 00 00 00 00 00 00 00 00 
       00013DA0 00 00 00 00 00 00 00 00 00 00 
       00013DAA 00 00 00 00 00 00 00 00 00 00 
       00013DB4 00 00 00 00 00 00 00 00 00 00 
       00013DBE 00 00 00 00 00 00 00 00 00 00 
       00013DC8 00 00 00 00 00 00 00 00 00 00 
       00013DD2 00 00 00 00 00 00 00 00 00 00 
       00013DDC 00 00 00 00 00 00 00 00 00 00 
       00013DE6 00 00 00 00 00 00 00 00 00 00 
       00013DF0 00 00 00 00 00 00 00 00 00 00 
       00013DFA 00 00 00 00 00 00 00 00 00 00 
       00013E04 00 00 00 00 00 00 00 00 00 00 
       00013E0E 00 00 00 00 00 00 00 00 00 00 
       00013E18 00 00 00 00 00 00 00 00 00 00 
       00013E22 00 00 00 00 00 00 00 00 00 00 
       00013E2C 00 00 00 00 00 00 00 00 00 00 
       00013E36 00 00 00 00 00 00 00 00 00 00 
       00013E40 00 00 00 00 00 00 00 00 00 00 
       00013E4A 00 00 00 00 00 00 00 00 00 00 
       00013E54 00 00 00 00 00 00 00 00 00 00 
       00013E5E 00 00 00 00 00 00 00 00 00 00 
       00013E68 00 00 00 00 00 00 00 00 00 00 
       00013E72 00 00 00 00 00 00 00 00 00 00 
       00013E7C 00 00 00 00 00 00 00 00 00 00 
       00013E86 00 00 00 00 00 00 00 00 00 00 
       00013E90 00 00 00 00 00 00 00 00 00 00 
       00013E9A 00 00 00 00 00 00 00 00 00 00 
       00013EA4 00 00 00 00 00 00 00 00 00 00 
       00013EAE 00 00 00 00 00 00 00 00 00 00 
       00013EB8 00 00 00 00 00 00 00 00 00 00 
       00013EC2 00 00 00 00 00 00 00 00 00 00 
       00013ECC 00 00 00 00 00 00 00 00 00 00 
       00013ED6 00 00 00 00 00 00 00 00 00 00 
       00013EE0 00 00 00 00 00 00 00 00 00 00 
       00013EEA 00 00 00 00 00 00 00 00 00 00 
       00013EF4 00 00 00 00 00 00 00 00 00 00 
       00013EFE 00 00 00 00 00 00 00 00 00 00 
       00013F08 00 00 00 00 00 00 00 00 00 00 
       00013F12 00 00 00 00 00 00 00 00 00 00 
       00013F1C 00 00 00 00 00 00 00 00 00 00 
       00013F26 00 00 00 00 00 00 00 00 00 00 
       00013F30 00 00 00 00 00 00 00 00 00 00 
       00013F3A 00 00 00 00 00 00 00 00 00 00 
       00013F44 00 00 00 00 00 00 00 00 00 00 
       00013F4E 00 00 00 00 00 00 00 00 00 00 
       00013F58 00 00 00 00 00 00 00 00 00 00 
       00013F62 00 00 00 00 00 00 00 00 00 00 
       00013F6C 00 00 00 00 00 00 00 00 00 00 
       00013F76 00 00 00 00 00 00 00 00 00 00 
       00013F80 00 00 00 00 00 00 00 00 00 00 
       00013F8A 00 00 00 00 00 00 00 00 00 00 
       00013F94 00 00 00 00 00 00 00 00 00 00 
       00013F9E 00 00 00 00 00 00 00 00 00 00 
       00013FA8 00 00 00 00 00 00 00 00 00 00 
       00013FB2 00 00 00 00 00 00 00 00 00 00 
       00013FBC 00 00 00 00 00 00 00 00 00 00 
       00013FC6 00 00 00 00 00 00 00 00 00 00 
       00013FD0 00 00 00 00 00 00 00 00 00 00 
       00013FDA 00 00 00 00 00 00 00 00 00 00 
       00013FE4 00 00 00 00 00 00 00 00 00 00 
       00013FEE 00 00 00 00 00 00 00 00 00 00 
       00013FF8 00 00 00 00 00 00 00 00 00 00 
       00014002 00 00 00 00 00 00 00 00 00 00 
       0001400C 00 00 00 00 00 00 00 00 00 00 
       00014016 00 00 00 00 00 00 00 00 00 00 
       00014020 00 00 00 00 00 00 00 00 00 00 
       0001402A 00 00 00 00 00 00 00 00 00 00 
       00014034 00 00 00 00 00 00 00 00 00 00 
       0001403E 00 00 00 00 00 00 00 00 00 00 
       00014048 00 00 00 00 00 00 00 00 00 00 
       00014052 00 00 00 00 00 00 00 00 00 00 
       0001405C 00 00 00 00 00 00 00 00 00 00 
       00014066 00 00 00 00 00 00 00 00 00 00 
       00014070 00 00 00 00 00 00 00 00 00 00 
       0001407A 00 00 00 00 00 00 00 00 00 00 
       00014084 00 00 00 00 00 00 00 00 00 00 
       0001408E 00 00 00 00 00 00 00 00 00 00 
       00014098 00 00 00 00 00 00 00 00 00 00 
       000140A2 00 00 00 00 00 00 00 00 00 00 
       000140AC 00 00 00 00 00 00 00 00 00 00 
       000140B6 00 00 00 00 00 00 00 00 00 00 
       000140C0 00 00 00 00 00 00 00 00 00 00 
       000140CA 00 00 00 00 00 00 00 00 00 00 
       000140D4 00 00 00 00 00 00 00 00 00 00 
       000140DE 00 00 00 00 00 00 00 00 00 00 
       000140E8 00 00 00 00 00 00 00 00 00 00 
       000140F2 00 00 00 00 00 00 00 00 00 00 
       000140FC 00 00 00 00 00 00 00 00 00 00 
       00014106 00 00 00 00 00 00 00 00 00 00 
       00014110 00 00 00 00 00 00 00 00 00 00 
       0001411A 00 00 00 00 00 00 00 00 00 00 
       00014124 00 00 00 00 00 00 00 00 00 00 
       0001412E 00 00 00 00 00 00 00 00 00 00 
       00014138 00 00 00 00 00 00 00 00 00 00 
       00014142 00 00 00 00 00 00 00 00 00 00 
       0001414C 00 00 00 00 00 00 00 00 00 00 
       00014156 00 00 00 00 00 00 00 00 00 00 
       00014160 00 00 00 00 00 00 00 00 00 00 
       0001416A 00 00 00 00 00 00 00 00 00 00 
       00014174 00 00 00 00 00 00 00 00 00 00 
       0001417E 00 00 00 00 00 00 00 00 00 00 
       00014188 00 00 00 00 00 00 00 00 00 00 
       00014192 00 00 00 00 00 00 00 00 00 00 
       0001419C 00 00 00 00 00 00 00 00 00 00 
       000141A6 00 00 00 00 00 00 00 00 00 00 
       000141B0 00 00 00 00 00 00 00 00 00 00 
       000141BA 00 00 00 00 00 00 00 00 00 00 
       000141C4 00 00 00 00 00 00 00 00 00 00 
       000141CE 00 00 00 00 00 00 00 00 00 00 
       000141D8 00 00 00 00 00 00 00 00 00 00 
       000141E2 00 00 00 00 00 00 00 00 00 00 
       000141EC 00 00 00 00 00 00 00 00 00 00 
       000141F6 00 00 00 00 00 00 00 00 00 00 
       00014200 00 00 00 00 00 00 00 00 00 00 
       0001420A 00 00 00 00 00 00 00 00 00 00 
       00014214 00 00 00 00 00 00 00 00 00 00 
       0001421E 00 00 00 00 00 00 00 00 00 00 
       00014228 00 00 00 00 00 00 00 00 00 00 
       00014232 00 00 00 00 00 00 00 00 00 00 
       0001423C 00 00 00 00 00 00 00 00 00 00 
       00014246 00 00 00 00 00 00 00 00 00 00 
       00014250 00 00 00 00 00 00 00 00 00 00 
       0001425A 00 00 00 00 00 00 00 00 00 00 
       00014264 00 00 00 00 00 00 00 00 00 00 
       0001426E 00 00 00 00 00 00 00 00 00 00 
       00014278 00 00 00 00 00 00 00 00 00 00 
       00014282 00 00 00 00 00 00 00 00 00 00 
       0001428C 00 00 00 00 00 00 00 00 00 00 
       00014296 00 00 00 00 00 00 00 00 00 00 
       000142A0 00 00 00 00 00 00 00 00 00 00 
       000142AA 00 00 00 00 00 00 00 00 00 00 
       000142B4 00 00 00 00 00 00 00 00 00 00 
       000142BE 00 00 00 00 00 00 00 00 00 00 
       000142C8 00 00 00 00 00 00 00 00 00 00 
       000142D2 00 00 00 00 00 00 00 00 00 00 
       000142DC 00 00 00 00 00 00 00 00 00 00 
       000142E6 00 00 00 00 00 00 00 00 00 00 
       000142F0 00 00 00 00 00 00 00 00 00 00 
       000142FA 00 00 00 00 00 00 00 00 00 00 
       00014304 00 00 00 00 00 00 00 00 00 00 
       0001430E 00 00 00 00 00 00 00 00 00 00 
       00014318 00 00 00 00 00 00 00 00 00 00 
       00014322 00 00 00 00 00 00 00 00 00 00 
       0001432C 00 00 00 00 00 00 00 00 00 00 
       00014336 00 00 00 00 00 00 00 00 00 00 
       00014340 00 00 00 00 00 00 00 00 00 00 
       0001434A 00 00 00 00 00 00 00 00 00 00 
       00014354 00 00 00 00 00 00 00 00 00 00 
       0001435E 00 00 00 00 00 00 00 00 00 00 
       00014368 00 00 00 00 00 00 00 00 00 00 
       00014372 00 00 00 00 00 00 00 00 00 00 
       0001437C 00 00 00 00 00 00 00 00 00 00 
       00014386 00 00 00 00 00 00 00 00 00 00 
       00014390 00 00 00 00 00 00 00 00 00 00 
       0001439A 00 00 00 00 00 00 00 00 00 00 
       000143A4 00 00 00 00 00 00 00 00 00 00 
       000143AE 00 00 00 00 00 00 00 00 00 00 
       000143B8 00 00 00 00 00 00 00 00 00 00 
       000143C2 00 00 00 00 00 00 00 00 00 00 
       000143CC 00 00 00 00 00 00 00 00 00 00 
       000143D6 00 00 00 00 00 00 00 00 00 00 
       000143E0 00 00 00 00 00 00 00 00 00 00 
       000143EA 00 00 00 00 00 00 00 00 00 00 
       000143F4 00 00 00 00 00 00 00 00 00 00 
       000143FE 00 00 00 00 00 00 00 00 00 00 
       00014408 00 00 00 00 00 00 00 00 00 00 
       00014412 00 00 00 00 00 00 00 00 00 00 
       0001441C 00 00 00 00 00 00 00 00 00 00 
       00014426 00 00 00 00 00 00 00 00 00 00 
       00014430 00 00 00 00 00 00 00 00 00 00 
       0001443A 00 00 00 00 00 00 00 00 00 00 
       00014444 00 00 00 00 00 00 00 00 00 00 
       0001444E 00 00 00 00 00 00 00 00 00 00 
       00014458 00 00 00 00 00 00 00 00 00 00 
       00014462 00 00 00 00 00 00 00 00 00 00 
       0001446C 00 00 00 00 00 00 00 00 00 00 
       00014476 00 00 00 00 00 00 00 00 00 00 
       00014480 00 00 00 00 00 00 00 00 00 00 
       0001448A 00 00 00 00 00 00 00 00 00 00 
       00014494 00 00 00 00 00 00 00 00 00 00 
       0001449E 00 00 00 00 00 00 00 00 00 00 
       000144A8 00 00 00 00 00 00 00 00 00 00 
       000144B2 00 00 00 00 00 00 00 00 00 00 
       000144BC 00 00 00 00 00 00 00 00 00 00 
       000144C6 00 00 00 00 00 00 00 00 00 00 
       000144D0 00 00 00 00 00 00 00 00 00 00 
       000144DA 00 00 00 00 00 00 00 00 00 00 
       000144E4 00 00 00 00 00 00 00 00 00 00 
       000144EE 00 00 00 00 00 00 00 00 00 00 
       000144F8 00 00 00 00 00 00 00 00 00 00 
       00014502 00 00 00 00 00 00 00 00 00 00 
       0001450C 00 00 00 00 00 00 00 00 00 00 
       00014516 00 00 00 00 00 00 00 00 00 00 
       00014520 00 00 00 00 00 00 00 00 00 00 
       0001452A 00 00 00 00 00 00 00 00 00 00 
       00014534 00 00 00 00 00 00 00 00 00 00 
       0001453E 00 00 00 00 00 00 00 00 00 00 
       00014548 00 00 00 00 00 00 00 00 00 00 
       00014552 00 00 00 00 00 00 00 00 00 00 
       0001455C 00 00 00 00 00 00 00 00 00 00 
       00014566 00 00 00 00 00 00 00 00 00 00 
       00014570 00 00 00 00 00 00 00 00 00 00 
       0001457A 00 00 00 00 00 00 00 00 00 00 
       00014584 00 00 00 00 00 00 00 00 00 00 
       0001458E 00 00 00 00 00 00 00 00 00 00 
       00014598 00 00 00 00 00 00 00 00 00 00 
       000145A2 00 00 00 00 00 00 00 00 00 00 
       000145AC 00 00 00 00 00 00 00 00 00 00 
       000145B6 00 00 00 00 00 00 00 00 00 00 
       000145C0 00 00 00 00 00 00 00 00 00 00 
       000145CA 00 00 00 00 00 00 00 00 00 00 
       000145D4 00 00 00 00 00 00 00 00 00 00 
       000145DE 00 00 00 00 00 00 00 00 00 00 
       000145E8 00 00 00 00 00 00 00 00 00 00 
       000145F2 00 00 00 00 00 00 00 00 00 00 
       000145FC 00 00 00 00 00 00 00 00 00 00 
       00014606 00 00 00 00 00 00 00 00 00 00 
       00014610 00 00 00 00 00 00 00 00 00 00 
       0001461A 00 00 00 00 00 00 00 00 00 00 
       00014624 00 00 00 00 00 00 00 00 00 00 
       0001462E 00 00 00 00 00 00 00 00 00 00 
       00014638 00 00 00 00 00 00 00 00 00 00 
       00014642 00 00 00 00 00 00 00 00 00 00 
       0001464C 00 00 00 00 00 00 00 00 00 00 
       00014656 00 00 00 00 00 00 00 00 00 00 
       00014660 00 00 00 00 00 00 00 00 00 00 
       0001466A 00 00 00 00 00 00 00 00 00 00 
       00014674 00 00 00 00 00 00 00 00 00 00 
       0001467E 00 00 00 00 00 00 00 00 00 00 
       00014688 00 00 00 00 00 00 00 00 00 00 
       00014692 00 00 00 00 00 00 00 00 00 00 
       0001469C 00 00 00 00 00 00 00 00 00 00 
       000146A6 00 00 00 00 00 00 00 00 00 00 
       000146B0 00 00 00 00 00 00 00 00 00 00 
       000146BA 00 00 00 00 00 00 00 00 00 00 
       000146C4 00 00 00 00 00 00 00 00 00 00 
       000146CE 00 00 00 00 00 00 00 00 00 00 
       000146D8 00 00 00 00 00 00 00 00 00 00 
       000146E2 00 00 00 00 00 00 00 00 00 00 
       000146EC 00 00 00 00 00 00 00 00 00 00 
       000146F6 00 00 00 00 00 00 00 00 00 00 
       00014700 00 00 00 00 00 00 00 00 00 00 
       0001470A 00 00 00 00 00 00 00 00 00 00 
       00014714 00 00 00 00 00 00 00 00 00 00 
       0001471E 00 00 00 00 00 00 00 00 00 00 
       00014728 00 00 00 00 00 00 00 00 00 00 
       00014732 00 00 00 00 00 00 00 00 00 00 
       0001473C 00 00 00 00 00 00 00 00 00 00 
       00014746 00 00 00 00 00 00 00 00 00 00 
       00014750 00 00 00 00 00 00 00 00 00 00 
       0001475A 00 00 00 00 00 00 00 00 00 00 
       00014764 00 00 00 00 00 00 00 00 00 00 
       0001476E 00 00 00 00 00 00 00 00 00 00 
       00014778 00 00 00 00 00 00 00 00 00 00 
       00014782 00 00 00 00 00 00 00 00 00 00 
       0001478C 00 00 00 00 00 00 00 00 00 00 
       00014796 00 00 00 00 00 00 00 00 00 00 
       000147A0 00 00 00 00 00 00 00 00 00 00 
       000147AA 00 00 00 00 00 00 00 00 00 00 
       000147B4 00 00 00 00 00 00 00 00 00 00 
       000147BE 00 00 00 00 00 00 00 00 00 00 
       000147C8 00 00 00 00 00 00 00 00 00 00 
       000147D2 00 00 00 00 00 00 00 00 00 00 
       000147DC 00 00 00 00 00 00 00 00 00 00 
       000147E6 00 00 00 00 00 00 00 00 00 00 
       000147F0 00 00 00 00 00 00 00 00 00 00 
       000147FA 00 00 00 00 00 00 00 00 00 00 
       00014804 00 00 00 00 00 00 00 00 00 00 
       0001480E 00 00 00 00 00 00 00 00 00 00 
       00014818 00 00 00 00 00 00 00 00 00 00 
       00014822 00 00 00 00 00 00 00 00 00 00 
       0001482C 00 00 00 00 00 00 00 00 00 00 
       00014836 00 00 00 00 00 00 00 00 00 00 
       00014840 00 00 00 00 00 00 00 00 00 00 
       0001484A 00 00 00 00 00 00 00 00 00 00 
       00014854 00 00 00 00 00 00 00 00 00 00 
       0001485E 00 00 00 00 00 00 00 00 00 00 
       00014868 00 00 00 00 00 00 00 00 00 00 
       00014872 00 00 00 00 00 00 00 00 00 00 
       0001487C 00 00 00 00 00 00 00 00 00 00 
       00014886 00 00 00 00 00 00 00 00 00 00 
       00014890 00 00 00 00 00 00 00 00 00 00 
       0001489A 00 00 00 00 00 00 00 00 00 00 
       000148A4 00 00 00 00 00 00 00 00 00 00 
       000148AE 00 00 00 00 00 00 00 00 00 00 
       000148B8 00 00 00 00 00 00 00 00 00 00 
       000148C2 00 00 00 00 00 00 00 00 00 00 
       000148CC 00 00 00 00 00 00 00 00 00 00 
       000148D6 00 00 00 00 00 00 00 00 00 00 
       000148E0 00 00 00 00 00 00 00 00 00 00 
       000148EA 00 00 00 00 00 00 00 00 00 00 
       000148F4 00 00 00 00 00 00 00 00 00 00 
       000148FE 00 00 00 00 00 00 00 00 00 00 
       00014908 00 00 00 00 00 00 00 00 00 00 
       00014912 00 00 00 00 00 00 00 00 00 00 
       0001491C 00 00 00 00 00 00 00 00 00 00 
       00014926 00 00 00 00 00 00 00 00 00 00 
       00014930 00 00 00 00 00 00 00 00 00 00 
       0001493A 00 00 00 00 00 00 00 00 00 00 
       00014944 00 00 00 00 00 00 00 00 00 00 
       0001494E 00 00 00 00 00 00 00 00 00 00 
       00014958 00 00 00 00 00 00 00 00 00 00 
       00014962 00 00 00 00 00 00 00 00 00 00 
       0001496C 00 00 00 00 00 00 00 00 00 00 
       00014976 00 00 00 00 00 00 00 00 00 00 
       00014980 00 00 00 00 00 00 00 00 00 00 
       0001498A 00 00 00 00 00 00 00 00 00 00 
       00014994 00 00 00 00 00 00 00 00 00 00 
       0001499E 00 00 00 00 00 00 00 00 00 00 
       000149A8 00 00 00 00 00 00 00 00 00 00 
       000149B2 00 00 00 00 00 00 00 00 00 00 
       000149BC 00 00 00 00 00 00 00 00 00 00 
       000149C6 00 00 00 00 00 00 00 00 00 00 
       000149D0 00 00 00 00 00 00 00 00 00 00 
       000149DA 00 00 00 00 00 00 00 00 00 00 
       000149E4 00 00 00 00 00 00 00 00 00 00 
       000149EE 00 00 00 00 00 00 00 00 00 00 
       000149F8 00 00 00 00 00 00 00 00 00 00 
       00014A02 00 00 00 00 00 00 00 00 00 00 
       00014A0C 00 00 00 00 00 00 00 00 00 00 
       00014A16 00 00 00 00 00 00 00 00 00 00 
       00014A20 00 00 00 00 00 00 00 00 00 00 
       00014A2A 00 00 00 00 00 00 00 00 00 00 
       00014A34 00 00 00 00 00 00 00 00 00 00 
       00014A3E 00 00 00 00 00 00 00 00 00 00 
       00014A48 00 00 00 00 00 00 00 00 00 00 
       00014A52 00 00 00 00 00 00 00 00 00 00 
       00014A5C 00 00 00 00 00 00 00 00 00 00 
       00014A66 00 00 00 00 00 00 00 00 00 00 
       00014A70 00 00 00 00 00 00 00 00 00 00 
       00014A7A 00 00 00 00 00 00 00 00 00 00 
       00014A84 00 00 00 00 00 00 00 00 00 00 
       00014A8E 00 00 00 00 00 00 00 00 00 00 
       00014A98 00 00 00 00 00 00 00 00 00 00 
       00014AA2 00 00 00 00 00 00 00 00 00 00 
       00014AAC 00 00 00 00 00 00 00 00 00 00 
       00014AB6 00 00 00 00 00 00 00 00 00 00 
       00014AC0 00 00 00 00 00 00 00 00 00 00 
       00014ACA 00 00 00 00 00 00 00 00 00 00 
       00014AD4 00 00 00 00 00 00 00 00 00 00 
       00014ADE 00 00 00 00 00 00 00 00 00 00 
       00014AE8 00 00 00 00 00 00 00 00 00 00 
       00014AF2 00 00 00 00 00 00 00 00 00 00 
       00014AFC 00 00 00 00 00 00 00 00 00 00 
       00014B06 00 00 00 00 00 00 00 00 00 00 
       00014B10 00 00 00 00 00 00 00 00 00 00 
       00014B1A 00 00 00 00 00 00 00 00 00 00 
       00014B24 00 00 00 00 00 00 00 00 00 00 
       00014B2E 00 00 00 00 00 00 00 00 00 00 
       00014B38 00 00 00 00 00 00 00 00 00 00 
       00014B42 00 00 00 00 00 00 00 00 00 00 
       00014B4C 00 00 00 00 00 00 00 00 00 00 
       00014B56 00 00 00 00 00 00 00 00 00 00 
       00014B60 00 00 00 00 00 00 00 00 00 00 
       00014B6A 00 00 00 00 00 00 00 00 00 00 
       00014B74 00 00 00 00 00 00 00 00 00 00 
       00014B7E 00 00 00 00 00 00 00 00 00 00 
       00014B88 00 00 00 00 00 00 00 00 00 00 
       00014B92 00 00 00 00 00 00 00 00 00 00 
       00014B9C 00 00 00 00 00 00 00 00 00 00 
       00014BA6 00 00 00 00 00 00 00 00 00 00 
       00014BB0 00 00 00 00 00 00 00 00 00 00 
       00014BBA 00 00 00 00 00 00 00 00 00 00 
       00014BC4 00 00 00 00 00 00 00 00 00 00 
       00014BCE 00 00 00 00 00 00 00 00 00 00 
       00014BD8 00 00 00 00 00 00 00 00 00 00 
       00014BE2 00 00 00 00 00 00 00 00 00 00 
       00014BEC 00 00 00 00 00 00 00 00 00 00 
       00014BF6 00 00 00 00 00 00 00 00 00 00 
       00014C00 00 00 00 00 00 00 00 00 00 00 
       00014C0A 00 00 00 00 00 00 00 00 00 00 
       00014C14 00 00 00 00 00 00 00 00 00 00 
       00014C1E 00 00 00 00 00 00 00 00 00 00 
       00014C28 00 00 00 00 00 00 00 00 00 00 
       00014C32 00 00 00 00 00 00 00 00 00 00 
       00014C3C 00 00 00 00 00 00 00 00 00 00 
       00014C46 00 00 00 00 00 00 00 00 00 00 
       00014C50 00 00 00 00 00 00 00 00 00 00 
       00014C5A 00 00 00 00 00 00 00 00 00 00 
       00014C64 00 00 00 00 00 00 00 00 00 00 
       00014C6E 00 00 00 00 00 00 00 00 00 00 
       00014C78 00 00 00 00 00 00 00 00 00 00 
       00014C82 00 00 00 00 00 00 00 00 00 00 
       00014C8C 00 00 00 00 00 00 00 00 00 00 
       00014C96 00 00 00 00 00 00 00 00 00 00 
       00014CA0 00 00 00 00 00 00 00 00 00 00 
       00014CAA 00 00 00 00 00 00 00 00 00 00 
       00014CB4 00 00 00 00 00 00 00 00 00 00 
       00014CBE 00 00 00 00 00 00 00 00 00 00 
       00014CC8 00 00 00 00 00 00 00 00 00 00 
       00014CD2 00 00 00 00 00 00 00 00 00 00 
       00014CDC 00 00 00 00 00 00 00 00 00 00 
       00014CE6 00 00 00 00 00 00 00 00 00 00 
       00014CF0 00 00 00 00 00 00 00 00 00 00 
       00014CFA 00 00 00 00 00 00 00 00 00 00 
       00014D04 00 00 00 00 00 00 00 00 00 00 
       00014D0E 00 00 00 00 00 00 00 00 00 00 
       00014D18 00 00 00 00 00 00 00 00 00 00 
       00014D22 00 00 00 00 00 00 00 00 00 00 
       00014D2C 00 00 00 00 00 00 00 00 00 00 
       00014D36 00 00 00 00 00 00 00 00 00 00 
       00014D40 00 00 00 00 00 00 00 00 00 00 
       00014D4A 00 00 00 00 00 00 00 00 00 00 
       00014D54 00 00 00 00 00 00 00 00 00 00 
       00014D5E 00 00 00 00 00 00 00 00 00 00 
       00014D68 00 00 00 00 00 00 00 00 00 00 
       00014D72 00 00 00 00 00 00 00 00 00 00 
       00014D7C 00 00 00 00 00 00 00 00 00 00 
       00014D86 00 00 00 00 00 00 00 00 00 00 
       00014D90 00 00 00 00 00 00 00 00 00 00 
       00014D9A 00 00 00 00 00 00 00 00 00 00 
       00014DA4 00 00 00 00 00 00 00 00 00 00 
       00014DAE 00 00 00 00 00 00 00 00 00 00 
       00014DB8 00 00 00 00 00 00 00 00 00 00 
       00014DC2 00 00 00 00 00 00 00 00 00 00 
       00014DCC 00 00 00 00 00 00 00 00 00 00 
       00014DD6 00 00 00 00 00 00 00 00 00 00 
       00014DE0 00 00 00 00 00 00 00 00 00 00 
       00014DEA 00 00 00 00 00 00 00 00 00 00 
       00014DF4 00 00 00 00 00 00 00 00 00 00 
       00014DFE 00 00 00 00 00 00 00 00 00 00 
       00014E08 00 00 00 00 00 00 00 00 00 00 
       00014E12 00 00 00 00 00 00 00 00 00 00 
       00014E1C 00 00 00 00 00 00 00 00 00 00 
       00014E26 00 00 00 00 00 00 00 00 00 00 
       00014E30 00 00 00 00 00 00 00 00 00 00 
       00014E3A 00 00 00 00 00 00 00 00 00 00 
       00014E44 00 00 00 00 00 00 00 00 00 00 
       00014E4E 00 00 00 00 00 00 00 00 00 00 
       00014E58 00 00 00 00 00 00 00 00 00 00 
       00014E62 00 00 00 00 00 00 00 00 00 00 
       00014E6C 00 00 00 00 00 00 00 00 00 00 
       00014E76 00 00 00 00 00 00 00 00 00 00 
       00014E80 00 00 00 00 00 00 00 00 00 00 
       00014E8A 00 00 00 00 00 00 00 00 00 00 
       00014E94 00 00 00 00 00 00 00 00 00 00 
       00014E9E 00 00 00 00 00 00 00 00 00 00 
       00014EA8 00 00 00 00 00 00 00 00 00 00 
       00014EB2 00 00 00 00 00 00 00 00 00 00 
       00014EBC 00 00 00 00 00 00 00 00 00 00 
       00014EC6 00 00 00 00 00 00 00 00 00 00 
       00014ED0 00 00 00 00 00 00 00 00 00 00 
       00014EDA 00 00 00 00 00 00 00 00 00 00 
       00014EE4 00 00 00 00 00 00 00 00 00 00 
       00014EEE 00 00 00 00 00 00 00 00 00 00 
       00014EF8 00 00 00 00 00 00 00 00 00 00 
       00014F02 00 00 00 00 00 00 00 00 00 00 
       00014F0C 00 00 00 00 00 00 00 00 00 00 
       00014F16 00 00 00 00 00 00 00 00 00 00 
       00014F20 00 00 00 00 00 00 00 00 00 00 
       00014F2A 00 00 00 00 00 00 00 00 00 00 
       00014F34 00 00 00 00 00 00 00 00 00 00 
       00014F3E 00 00 00 00 00 00 00 00 00 00 
       00014F48 00 00 00 00 00 00 00 00 00 00 
       00014F52 00 00 00 00 00 00 00 00 00 00 
       00014F5C 00 00 00 00 00 00 00 00 00 00 
       00014F66 00 00 00 00 00 00 00 00 00 00 
       00014F70 00 00 00 00 00 00 00 00 00 00 
       00014F7A 00 00 00 00 00 00 00 00 00 00 
       00014F84 00 00 00 00 00 00 00 00 00 00 
       00014F8E 00 00 00 00 00 00 00 00 00 00 
       00014F98 00 00 00 00 00 00 00 00 00 00 
       00014FA2 00 00 00 00 00 00 00 00 00 00 
       00014FAC 00 00 00 00 00 00 00 00 00 00 
       00014FB6 00 00 00 00 00 00 00 00 00 00 
       00014FC0 00 00 00 00 00 00 00 00 00 00 
       00014FCA 00 00 00 00 00 00 00 00 00 00 
       00014FD4 00 00 00 00 00 00 00 00 00 00 
       00014FDE 00 00 00 00 00 00 00 00 00 00 
       00014FE8 00 00 00 00 00 00 00 00 00 00 
       00014FF2 00 00 00 00 00 00 00 00 00 00 
       00014FFC 00 00 00 00 00 00 00 00 00 00 
       00015006 00 00 00 00 00 00 00 00 00 00 
       00015010 00 00 00 00 00 00 00 00 00 00 
       0001501A 00 00 00 00 00 00 00 00 00 00 
       00015024 00 00 00 00 00 00 00 00 00 00 
       0001502E 00 00 00 00 00 00 00 00 00 00 
       00015038 00 00 00 00 00 00 00 00 00 00 
       00015042 00 00 00 00 00 00 00 00 00 00 
       0001504C 00 00 00 00 00 00 00 00 00 00 
       00015056 00 00 00 00 00 00 00 00 00 00 
       00015060 00 00 00 00 00 00 00 00 00 00 
       0001506A 00 00 00 00 00 00 00 00 00 00 
       00015074 00 00 00 00 00 00 00 00 00 00 
       0001507E 00 00 00 00 00 00 00 00 00 00 
       00015088 00 00 00 00 00 00 00 00 00 00 
       00015092 00 00 00 00 00 00 00 00 00 00 
       0001509C 00 00 00 00 00 00 00 00 00 00 
       000150A6 00 00 00 00 00 00 00 00 00 00 
       000150B0 00 00 00 00 00 00 00 00 00 00 
       000150BA 00 00 00 00 00 00 00 00 00 00 
       000150C4 00 00 00 00 00 00 00 00 00 00 
       000150CE 00 00 00 00 00 00 00 00 00 00 
       000150D8 00 00 00 00 00 00 00 00 00 00 
       000150E2 00 00 00 00 00 00 00 00 00 00 
       000150EC 00 00 00 00 00 00 00 00 00 00 
       000150F6 00 00 00 00 00 00 00 00 00 00 
       00015100 00 00 00 00 00 00 00 00 00 00 
       0001510A 00 00 00 00 00 00 00 00 00 00 
       00015114 00 00 00 00 00 00 00 00 00 00 
       0001511E 00 00 00 00 00 00 00 00 00 00 
       00015128 00 00 00 00 00 00 00 00 00 00 
       00015132 00 00 00 00 00 00 00 00 00 00 
       0001513C 00 00 00 00 00 00 00 00 00 00 
       00015146 00 00 00 00 00 00 00 00 00 00 
       00015150 00 00 00 00 00 00 00 00 00 00 
       0001515A 00 00 00 00 00 00 00 00 00 00 
       00015164 00 00 00 00 00 00 00 00 00 00 
       0001516E 00 00 00 00 00 00 00 00 00 00 
       00015178 00 00 00 00 00 00 00 00 00 00 
       00015182 00 00 00 00 00 00 00 00 00 00 
       0001518C 00 00 00 00 00 00 00 00 00 00 
       00015196 00 00 00 00 00 00 00 00 00 00 
       000151A0 00 00 00 00 00 00 00 00 00 00 
       000151AA 00 00 00 00 00 00 00 00 00 00 
       000151B4 00 00 00 00 00 00 00 00 00 00 
       000151BE 00 00 00 00 00 00 00 00 00 00 
       000151C8 00 00 00 00 00 00 00 00 00 00 
       000151D2 00 00 00 00 00 00 00 00 00 00 
       000151DC 00 00 00 00 00 00 00 00 00 00 
       000151E6 00 00 00 00 00 00 00 00 00 00 
       000151F0 00 00 00 00 00 00 00 00 00 00 
       000151FA 00 00 00 00 00 00 00 00 00 00 
       00015204 00 00 00 00 00 00 00 00 00 00 
       0001520E 00 00 00 00 00 00 00 00 00 00 
       00015218 00 00 00 00 00 00 00 00 00 00 
       00015222 00 00 00 00 00 00 00 00 00 00 
       0001522C 00 00 00 00 00 00 00 00 00 00 
       00015236 00 00 00 00 00 00 00 00 00 00 
       00015240 00 00 00 00 00 00 00 00 00 00 
       0001524A 00 00 00 00 00 00 00 00 00 00 
       00015254 00 00 00 00 00 00 00 00 00 00 
       0001525E 00 00 00 00 00 00 00 00 00 00 
       00015268 00 00 00 00 00 00 00 00 00 00 
       00015272 00 00 00 00 00 00 00 00 00 00 
       0001527C 00 00 00 00 00 00 00 00 00 00 
       00015286 00 00 00 00 00 00 00 00 00 00 
       00015290 00 00 00 00 00 00 00 00 00 00 
       0001529A 00 00 00 00 00 00 00 00 00 00 
       000152A4 00 00 00 00 00 00 00 00 00 00 
       000152AE 00 00 00 00 00 00 00 00 00 00 
       000152B8 00 00 00 00 00 00 00 00 00 00 
       000152C2 00 00 00 00 00 00 00 00 00 00 
       000152CC 00 00 00 00 00 00 00 00 00 00 
       000152D6 00 00 00 00 00 00 00 00 00 00 
       000152E0 00 00 00 00 00 00 00 00 00 00 
       000152EA 00 00 00 00 00 00 00 00 00 00 
       000152F4 00 00 00 00 00 00 00 00 00 00 
       000152FE 00 00 00 00 00 00 00 00 00 00 
       00015308 00 00 00 00 00 00 00 00 00 00 
       00015312 00 00 00 00 00 00 00 00 00 00 
       0001531C 00 00 00 00 00 00 00 00 00 00 
       00015326 00 00 00 00 00 00 00 00 00 00 
       00015330 00 00 00 00 00 00 00 00 00 00 
       0001533A 00 00 00 00 00 00 00 00 00 00 
       00015344 00 00 00 00 00 00 00 00 00 00 
       0001534E 00 00 00 00 00 00 00 00 00 00 
       00015358 00 00 00 00 00 00 00 00 00 00 
       00015362 00 00 00 00 00 00 00 00 00 00 
       0001536C 00 00 00 00 00 00 00 00 00 00 
       00015376 00 00 00 00 00 00 00 00 00 00 
       00015380 00 00 00 00 00 00 00 00 00 00 
       0001538A 00 00 00 00 00 00 00 00 00 00 
       00015394 00 00 00 00 00 00 00 00 00 00 
       0001539E 00 00 00 00 00 00 00 00 00 00 
       000153A8 00 00 00 00 00 00 00 00 00 00 
       000153B2 00 00 00 00 00 00 00 00 00 00 
       000153BC 00 00 00 00 00 00 00 00 00 00 
       000153C6 00 00 00 00 00 00 00 00 00 00 
       000153D0 00 00 00 00 00 00 00 00 00 00 
       000153DA 00 00 00 00 00 00 00 00 00 00 
       000153E4 00 00 00 00 00 00 00 00 00 00 
       000153EE 00 00 00 00 00 00 00 00 00 00 
       000153F8 00 00 00 00 00 00 00 00 00 00 
       00015402 00 00 00 00 00 00 00 00 00 00 
       0001540C 00 00 00 00 00 00 00 00 00 00 
       00015416 00 00 00 00 00 00 00 00 00 00 
       00015420 00 00 00 00 00 00 00 00 00 00 
       0001542A 00 00 00 00 00 00 00 00 00 00 
       00015434 00 00 00 00 00 00 00 00 00 00 
       0001543E 00 00 00 00 00 00 00 00 00 00 
       00015448 00 00 00 00 00 00 00 00 00 00 
       00015452 00 00 00 00 00 00 00 00 00 00 
       0001545C 00 00 00 00 00 00 00 00 00 00 
       00015466 00 00 00 00 00 00 00 00 00 00 
       00015470 00 00 00 00 00 00 00 00 00 00 
       0001547A 00 00 00 00 00 00 00 00 00 00 
       00015484 00 00 00 00 00 00 00 00 00 00 
       0001548E 00 00 00 00 00 00 00 00 00 00 
       00015498 00 00 00 00 00 00 00 00 00 00 
       000154A2 00 00 00 00 00 00 00 00 00 00 
       000154AC 00 00 00 00 00 00 00 00 00 00 
       000154B6 00 00 00 00 00 00 00 00 00 00 
       000154C0 00 00 00 00 00 00 00 00 00 00 
       000154CA 00 00 00 00 00 00 00 00 00 00 
       000154D4 00 00 00 00 00 00 00 00 00 00 
       000154DE 00 00 00 00 00 00 00 00 00 00 
       000154E8 00 00 00 00 00 00 00 00 00 00 
       000154F2 00 00 00 00 00 00 00 00 00 00 
       000154FC 00 00 00 00 00 00 00 00 00 00 
       00015506 00 00 00 00 00 00 00 00 00 00 
       00015510 00 00 00 00 00 00 00 00 00 00 
       0001551A 00 00 00 00 00 00 00 00 00 00 
       00015524 00 00 00 00 00 00 00 00 00 00 
       0001552E 00 00 00 00 00 00 00 00 00 00 
       00015538 00 00 00 00 00 00 00 00 00 00 
       00015542 00 00 00 00 00 00 00 00 00 00 
       0001554C 00 00 00 00 00 00 00 00 00 00 
       00015556 00 00 00 00 00 00 00 00 00 00 
       00015560 00 00 00 00 00 00 00 00 00 00 
       0001556A 00 00 00 00 00 00 00 00 00 00 
       00015574 00 00 00 00 00 00 00 00 00 00 
       0001557E 00 00 00 00 00 00 00 00 00 00 
       00015588 00 00 00 00 00 00 00 00 00 00 
       00015592 00 00 00 00 00 00 00 00 00 00 
       0001559C 00 00 00 00 00 00 00 00 00 00 
       000155A6 00 00 00 00 00 00 00 00 00 00 
       000155B0 00 00 00 00 00 00 00 00 00 00 
       000155BA 00 00 00 00 00 00 00 00 00 00 
       000155C4 00 00 00 00 00 00 00 00 00 00 
       000155CE 00 00 00 00 00 00 00 00 00 00 
       000155D8 00 00 00 00 00 00 00 00 00 00 
       000155E2 00 00 00 00 00 00 00 00 00 00 
       000155EC 00 00 00 00 00 00 00 00 00 00 
       000155F6 00 00 00 00 00 00 00 00 00 00 
       00015600 00 00 00 00 00 00 00 00 00 00 
       0001560A 00 00 00 00 00 00 00 00 00 00 
       00015614 00 00 00 00 00 00 00 00 00 00 
       0001561E 00 00 00 00 00 00 00 00 00 00 
       00015628 00 00 00 00 00 00 00 00 00 00 
       00015632 00 00 00 00 00 00 00 00 00 00 
       0001563C 00 00 00 00 00 00 00 00 00 00 
       00015646 00 00 00 00 00 00 00 00 00 00 
       00015650 00 00 00 00 00 00 00 00 00 00 
       0001565A 00 00 00 00 00 00 00 00 00 00 
       00015664 00 00 00 00 00 00 00 00 00 00 
       0001566E 00 00 00 00 00 00 00 00 00 00 
       00015678 00 00 00 00 00 00 00 00 00 00 
       00015682 00 00 00 00 00 00 00 00 00 00 
       0001568C 00 00 00 00 00 00 00 00 00 00 
       00015696 00 00 00 00 00 00 00 00 00 00 
       000156A0 00 00 00 00 00 00 00 00 00 00 
       000156AA 00 00 00 00 00 00 00 00 00 00 
       000156B4 00 00 00 00 00 00 00 00 00 00 
       000156BE 00 00 00 00 00 00 00 00 00 00 
       000156C8 00 00 00 00 00 00 00 00 00 00 
       000156D2 00 00 00 00 00 00 00 00 00 00 
       000156DC 00 00 00 00 00 00 00 00 00 00 
       000156E6 00 00 00 00 00 00 00 00 00 00 
       000156F0 00 00 00 00 00 00 00 00 00 00 
       000156FA 00 00 00 00 00 00 00 00 00 00 
       00015704 00 00 00 00 00 00 00 00 00 00 
       0001570E 00 00 00 00 00 00 00 00 00 00 
       00015718 00 00 00 00 00 00 00 00 00 00 
       00015722 00 00 00 00 00 00 00 00 00 00 
       0001572C 00 00 00 00 00 00 00 00 00 00 
       00015736 00 00 00 00 00 00 00 00 00 00 
       00015740 00 00 00 00 00 00 00 00 00 00 
       0001574A 00 00 00 00 00 00 00 00 00 00 
       00015754 00 00 00 00 00 00 00 00 00 00 
       0001575E 00 00 00 00 00 00 00 00 00 00 
       00015768 00 00 00 00 00 00 00 00 00 00 
       00015772 00 00 00 00 00 00 00 00 00 00 
       0001577C 00 00 00 00 00 00 00 00 00 00 
       00015786 00 00 00 00 00 00 00 00 00 00 
       00015790 00 00 00 00 00 00 00 00 00 00 
       0001579A 00 00 00 00 00 00 00 00 00 00 
       000157A4 00 00 00 00 00 00 00 00 00 00 
       000157AE 00 00 00 00 00 00 00 00 00 00 
       000157B8 00 00 00 00 00 00 00 00 00 00 
       000157C2 00 00 00 00 00 00 00 00 00 00 
       000157CC 00 00 00 00 00 00 00 00 00 00 
       000157D6 00 00 00 00 00 00 00 00 00 00 
       000157E0 00 00 00 00 00 00 00 00 00 00 
       000157EA 00 00 00 00 00 00 00 00 00 00 
       000157F4 00 00 00 00 00 00 00 00 00 00 
       000157FE 00 00 00 00 00 00 00 00 00 00 
       00015808 00 00 00 00 00 00 00 00 00 00 
       00015812 00 00 00 00 00 00 00 00 00 00 
       0001581C 00 00 00 00 00 00 00 00 00 00 
       00015826 00 00 00 00 00 00 00 00 00 00 
       00015830 00 00 00 00 00 00 00 00 00 00 
       0001583A 00 00 00 00 00 00 00 00 00 00 
       00015844 00 00 00 00 00 00 00 00 00 00 
       0001584E 00 00 00 00 00 00 00 00 00 00 
       00015858 00 00 00 00 00 00 00 00 00 00 
       00015862 00 00 00 00 00 00 00 00 00 00 
       0001586C 00 00 00 00 00 00 00 00 00 00 
       00015876 00 00 00 00 00 00 00 00 00 00 
       00015880 00 00 00 00 00 00 00 00 00 00 
       0001588A 00 00 00 00 00 00 00 00 00 00 
       00015894 00 00 00 00 00 00 00 00 00 00 
       0001589E 00 00 00 00 00 00 00 00 00 00 
       000158A8 00 00 00 00 00 00 00 00 00 00 
       000158B2 00 00 00 00 00 00 00 00 00 00 
       000158BC 00 00 00 00 00 00 00 00 00 00 
       000158C6 00 00 00 00 00 00 00 00 00 00 
       000158D0 00 00 00 00 00 00 00 00 00 00 
       000158DA 00 00 00 00 00 00 00 00 00 00 
       000158E4 00 00 00 00 00 00 00 00 00 00 
       000158EE 00 00 00 00 00 00 00 00 00 00 
       000158F8 00 00 00 00 00 00 00 00 00 00 
       00015902 00 00 00 00 00 00 00 00 00 00 
       0001590C 00 00 00 00 00 00 00 00 00 00 
       00015916 00 00 00 00 00 00 00 00 00 00 
       00015920 00 00 00 00 00 00 00 00 00 00 
       0001592A 00 00 00 00 00 00 00 00 00 00 
       00015934 00 00 00 00 00 00 00 00 00 00 
       0001593E 00 00 00 00 00 00 00 00 00 00 
       00015948 00 00 00 00 00 00 00 00 00 00 
       00015952 00 00 00 00 00 00 00 00 00 00 
       0001595C 00 00 00 00 00 00 00 00 00 00 
       00015966 00 00 00 00 00 00 00 00 00 00 
       00015970 00 00 00 00 00 00 00 00 00 00 
       0001597A 00 00 00 00 00 00 00 00 00 00 
       00015984 00 00 00 00 00 00 00 00 00 00 
       0001598E 00 00 00 00 00 00 00 00 00 00 
       00015998 00 00 00 00 00 00 00 00 00 00 
       000159A2 00 00 00 00 00 00 00 00 00 00 
       000159AC 00 00 00 00 00 00 00 00 00 00 
       000159B6 00 00 00 00 00 00 00 00 00 00 
       000159C0 00 00 00 00 00 00 00 00 00 00 
       000159CA 00 00 00 00 00 00 00 00 00 00 
       000159D4 00 00 00 00 00 00 00 00 00 00 
       000159DE 00 00 00 00 00 00 00 00 00 00 
       000159E8 00 00 00 00 00 00 00 00 00 00 
       000159F2 00 00 00 00 00 00 00 00 00 00 
       000159FC 00 00 00 00 00 00 00 00 00 00 
       00015A06 00 00 00 00 00 00 00 00 00 00 
       00015A10 00 00 00 00 00 00 00 00 00 00 
       00015A1A 00 00 00 00 00 00 00 00 00 00 
       00015A24 00 00 00 00 00 00 00 00 00 00 
       00015A2E 00 00 00 00 00 00 00 00 00 00 
       00015A38 00 00 00 00 00 00 00 00 00 00 
       00015A42 00 00 00 00 00 00 00 00 00 00 
       00015A4C 00 00 00 00 00 00 00 00 00 00 
       00015A56 00 00 00 00 00 00 00 00 00 00 
       00015A60 00 00 00 00 00 00 00 00 00 00 
       00015A6A 00 00 00 00 00 00 00 00 00 00 
       00015A74 00 00 00 00 00 00 00 00 00 00 
       00015A7E 00 00 00 00 00 00 00 00 00 00 
       00015A88 00 00 00 00 00 00 00 00 00 00 
       00015A92 00 00 00 00 00 00 00 00 00 00 
       00015A9C 00 00 00 00 00 00 00 00 00 00 
       00015AA6 00 00 00 00 00 00 00 00 00 00 
       00015AB0 00 00 00 00 00 00 00 00 00 00 
       00015ABA 00 00 00 00 00 00 00 00 00 00 
       00015AC4 00 00 00 00 00 00 00 00 00 00 
       00015ACE 00 00 00 00 00 00 00 00 00 00 
       00015AD8 00 00 00 00 00 00 00 00 00 00 
       00015AE2 00 00 00 00 00 00 00 00 00 00 
       00015AEC 00 00 00 00 00 00 00 00 00 00 
       00015AF6 00 00 00 00 00 00 00 00 00 00 
       00015B00 00 00 00 00 00 00 00 00 00 00 
       00015B0A 00 00 00 00 00 00 00 00 00 00 
       00015B14 00 00 00 00 00 00 00 00 00 00 
       00015B1E 00 00 00 00 00 00 00 00 00 00 
       00015B28 00 00 00 00 00 00 00 00 00 00 
       00015B32 00 00 00 00 00 00 00 00 00 00 
       00015B3C 00 00 00 00 00 00 00 00 00 00 
       00015B46 00 00 00 00 00 00 00 00 00 00 
       00015B50 00 00 00 00 00 00 00 00 00 00 
       00015B5A 00 00 00 00 00 00 00 00 00 00 
       00015B64 00 00 00 00 00 00 00 00 00 00 
       00015B6E 00 00 00 00 00 00 00 00 00 00 
       00015B78 00 00 00 00 00 00 00 00 00 00 
       00015B82 00 00 00 00 00 00 00 00 00 00 
       00015B8C 00 00 00 00 00 00 00 00 00 00 
       00015B96 00 00 00 00 00 00 00 00 00 00 
       00015BA0 00 00 00 00 00 00 00 00 00 00 
       00015BAA 00 00 00 00 00 00 00 00 00 00 
       00015BB4 00 00 00 00 00 00 00 00 00 00 
       00015BBE 00 00 00 00 00 00 00 00 00 00 
       00015BC8 00 00 00 00 00 00 00 00 00 00 
       00015BD2 00 00 00 00 00 00 00 00 00 00 
       00015BDC 00 00 00 00 00 00 00 00 00 00 
       00015BE6 00 00 00 00 00 00 00 00 00 00 
       00015BF0 00 00 00 00 00 00 00 00 00 00 
       00015BFA 00 00 00 00 00 00 00 00 00 00 
       00015C04 00 00 00 00 00 00 00 00 00 00 
       00015C0E 00 00 00 00 00 00 00 00 00 00 
       00015C18 00 00 00 00 00 00 00 00 00 00 
       00015C22 00 00 00 00 00 00 00 00 00 00 
       00015C2C 00 00 00 00 00 00 00 00 00 00 
       00015C36 00 00 00 00 00 00 00 00 00 00 
       00015C40 00 00 00 00 00 00 00 00 00 00 
       00015C4A 00 00 00 00 00 00 00 00 00 00 
       00015C54 00 00 00 00 00 00 00 00 00 00 
       00015C5E 00 00 00 00 00 00 00 00 00 00 
       00015C68 00 00 00 00 00 00 00 00 00 00 
       00015C72 00 00 00 00 00 00 00 00 00 00 
       00015C7C 00 00 00 00 00 00 00 00 00 00 
       00015C86 00 00 00 00 00 00 00 00 00 00 
       00015C90 00 00 00 00 00 00 00 00 00 00 
       00015C9A 00 00 00 00 00 00 00 00 00 00 
       00015CA4 00 00 00 00 00 00 00 00 00 00 
       00015CAE 00 00 00 00 00 00 00 00 00 00 
       00015CB8 00 00 00 00 00 00 00 00 00 00 
       00015CC2 00 00 00 00 00 00 00 00 00 00 
       00015CCC 00 00 00 00 00 00 00 00 00 00 
       00015CD6 00 00 00 00 00 00 00 00 00 00 
       00015CE0 00 00 00 00 00 00 00 00 00 00 
       00015CEA 00 00 00 00 00 00 00 00 00 00 
       00015CF4 00 00 00 00 00 00 00 00 00 00 
       00015CFE 00 00 00 00 00 00 00 00 00 00 
       00015D08 00 00 00 00 00 00 00 00 00 00 
       00015D12 00 00 00 00 00 00 00 00 00 00 
       00015D1C 00 00 00 00 00 00 00 00 00 00 
       00015D26 00 00 00 00 00 00 00 00 00 00 
       00015D30 00 00 00 00 00 00 00 00 00 00 
       00015D3A 00 00 00 00 00 00 00 00 00 00 
       00015D44 00 00 00 00 00 00 00 00 00 00 
       00015D4E 00 00 00 00 00 00 00 00 00 00 
       00015D58 00 00 00 00 00 00 00 00 00 00 
       00015D62 00 00 00 00 00 00 00 00 00 00 
       00015D6C 00 00 00 00 00 00 00 00 00 00 
       00015D76 00 00 00 00 00 00 00 00 00 00 
       00015D80 00 00 00 00 00 00 00 00 00 00 
       00015D8A 00 00 00 00 00 00 00 00 00 00 
       00015D94 00 00 00 00 00 00 00 00 00 00 
       00015D9E 00 00 00 00 00 00 00 00 00 00 
       00015DA8 00 00 00 00 00 00 00 00 00 00 
       00015DB2 00 00 00 00 00 00 00 00 00 00 
       00015DBC 00 00 00 00 00 00 00 00 00 00 
       00015DC6 00 00 00 00 00 00 00 00 00 00 
       00015DD0 00 00 00 00 00 00 00 00 00 00 
       00015DDA 00 00 00 00 00 00 00 00 00 00 
       00015DE4 00 00 00 00 00 00 00 00 00 00 
       00015DEE 00 00 00 00 00 00 00 00 00 00 
       00015DF8 00 00 00 00 00 00 00 00 00 00 
       00015E02 00 00 00 00 00 00 00 00 00 00 
       00015E0C 00 00 00 00 00 00 00 00 00 00 
       00015E16 00 00 00 00 00 00 00 00 00 00 
       00015E20 00 00 00 00 00 00 00 00 00 00 
       00015E2A 00 00 00 00 00 00 00 00 00 00 
       00015E34 00 00 00 00 00 00 00 00 00 00 
       00015E3E 00 00 00 00 00 00 00 00 00 00 
       00015E48 00 00 00 00 00 00 00 00 00 00 
       00015E52 00 00 00 00 00 00 00 00 00 00 
       00015E5C 00 00 00 00 00 00 00 00 00 00 
       00015E66 00 00 00 00 00 00 00 00 00 00 
       00015E70 00 00 00 00 00 00 00 00 00 00 
       00015E7A 00 00 00 00 00 00 00 00 00 00 
       00015E84 00 00 00 00 00 00 00 00 00 00 
       00015E8E 00 00 00 00 00 00 00 00 00 00 
       00015E98 00 00 00 00 00 00 00 00 00 00 
       00015EA2 00 00 00 00 00 00 00 00 00 00 
       00015EAC 00 00 00 00 00 00 00 00 00 00 
       00015EB6 00 00 00 00 00 00 00 00 00 00 
       00015EC0 00 00 00 00 00 00 00 00 00 00 
       00015ECA 00 00 00 00 00 00 00 00 00 00 
       00015ED4 00 00 00 00 00 00 00 00 00 00 
       00015EDE 00 00 00 00 00 00 00 00 00 00 
       00015EE8 00 00 00 00 00 00 00 00 00 00 
       00015EF2 00 00 00 00 00 00 00 00 00 00 
       00015EFC 00 00 00 00 00 00 00 00 00 00 
       00015F06 00 00 00 00 00 00 00 00 00 00 
       00015F10 00 00 00 00 00 00 00 00 00 00 
       00015F1A 00 00 00 00 00 00 00 00 00 00 
       00015F24 00 00 00 00 00 00 00 00 00 00 
       00015F2E 00 00 00 00 00 00 00 00 00 00 
       00015F38 00 00 00 00 00 00 00 00 00 00 
       00015F42 00 00 00 00 00 00 00 00 00 00 
       00015F4C 00 00 00 00 00 00 00 00 00 00 
       00015F56 00 00 00 00 00 00 00 00 00 00 
       00015F60 00 00 00 00 00 00 00 00 00 00 
       00015F6A 00 00 00 00 00 00 00 00 00 00 
       00015F74 00 00 00 00 00 00 00 00 00 00 
       00015F7E 00 00 00 00 00 00 00 00 00 00 
       00015F88 00 00 00 00 00 00 00 00 00 00 
       00015F92 00 00 00 00 00 00 00 00 00 00 
       00015F9C 00 00 00 00 00 00 00 00 00 00 
       00015FA6 00 00 00 00 00 00 00 00 00 00 
       00015FB0 00 00 00 00 00 00 00 00 00 00 
       00015FBA 00 00 00 00 00 00 00 00 00 00 
       00015FC4 00 00 00 00 00 00 00 00 00 00 
       00015FCE 00 00 00 00 00 00 00 00 00 00 
       00015FD8 00 00 00 00 00 00 00 00 00 00 
       00015FE2 00 00 00 00 00 00 00 00 00 00 
       00015FEC 00 00 00 00 00 00 00 00 00 00 
       00015FF6 00 00 00 00 00 00 00 00 00 00 
       00016000 00 00 00 00 00 00 00 00 00 00 
       0001600A 00 00 00 00 00 00 00 00 00 00 
       00016014 00 00 00 00 00 00 00 00 00 00 
       0001601E 00 00 00 00 00 00 00 00 00 00 
       00016028 00 00 00 00 00 00 00 00 00 00 
       00016032 00 00 00 00 00 00 00 00 00 00 
       0001603C 00 00 00 00 00 00 00 00 00 00 
       00016046 00 00 00 00 00 00 00 00 00 00 
       00016050 00 00 00 00 00 00 00 00 00 00 
       0001605A 00 00 00 00 00 00 00 00 00 00 
       00016064 00 00 00 00 00 00 00 00 00 00 
       0001606E 00 00 00 00 00 00 00 00 00 00 
       00016078 00 00 00 00 00 00 00 00 00 00 
       00016082 00 00 00 00 00 00 00 00 00 00 
       0001608C 00 00 00 00 00 00 00 00 00 00 
       00016096 00 00 00 00 00 00 00 00 00 00 
       000160A0 00 00 00 00 00 00 00 00 00 00 
       000160AA 00 00 00 00 00 00 00 00 00 00 
       000160B4 00 00 00 00 00 00 00 00 00 00 
       000160BE 00 00 00 00 00 00 00 00 00 00 
       000160C8 00 00 00 00 00 00 00 00 00 00 
       000160D2 00 00 00 00 00 00 00 00 00 00 
       000160DC 00 00 00 00 00 00 00 00 00 00 
       000160E6 00 00 00 00 00 00 00 00 00 00 
       000160F0 00 00 00 00 00 00 00 00 00 00 
       000160FA 00 00 00 00 00 00 00 00 00 00 
       00016104 00 00 00 00 00 00 00 00 00 00 
       0001610E 00 00 00 00 00 00 00 00 00 00 
       00016118 00 00 00 00 00 00 00 00 00 00 
       00016122 00 00 00 00 00 00 00 00 00 00 
       0001612C 00 00 00 00 00 00 00 00 00 00 
       00016136 00 00 00 00 00 00 00 00 00 00 
       00016140 00 00 00 00 00 00 00 00 00 00 
       0001614A 00 00 00 00 00 00 00 00 00 00 
       00016154 00 00 00 00 00 00 00 00 00 00 
       0001615E 00 00 00 00 00 00 00 00 00 00 
       00016168 00 00 00 00 00 00 00 00 00 00 
       00016172 00 00 00 00 00 00 00 00 00 00 
       0001617C 00 00 00 00 00 00 00 00 00 00 
       00016186 00 00 00 00 00 00 00 00 00 00 
       00016190 00 00 00 00 00 00 00 00 00 00 
       0001619A 00 00 00 00 00 00 00 00 00 00 
       000161A4 00 00 00 00 00 00 00 00 00 00 
       000161AE 00 00 00 00 00 00 00 00 00 00 
       000161B8 00 00 00 00 00 00 00 00 00 00 
       000161C2 00 00 00 00 00 00 00 00 00 00 
       000161CC 00 00 00 00 00 00 00 00 00 00 
       000161D6 00 00 00 00 00 00 00 00 00 00 
       000161E0 00 00 00 00 00 00 00 00 00 00 
       000161EA 00 00 00 00 00 00 00 00 00 00 
       000161F4 00 00 00 00 00 00 00 00 00 00 
       000161FE 00 00 00 00 00 00 00 00 00 00 
       00016208 00 00 00 00 00 00 00 00 00 00 
       00016212 00 00 00 00 00 00 00 00 00 00 
       0001621C 00 00 00 00 00 00 00 00 00 00 
       00016226 00 00 00 00 00 00 00 00 00 00 
       00016230 00 00 00 00 00 00 00 00 00 00 
       0001623A 00 00 00 00 00 00 00 00 00 00 
       00016244 00 00 00 00 00 00 00 00 00 00 
       0001624E 00 00 00 00 00 00 00 00 00 00 
       00016258 00 00 00 00 00 00 00 00 00 00 
       00016262 00 00 00 00 00 00 00 00 00 00 
       0001626C 00 00 00 00 00 00 00 00 00 00 
       00016276 00 00 00 00 00 00 00 00 00 00 
       00016280 00 00 00 00 00 00 00 00 00 00 
       0001628A 00 00 00 00 00 00 00 00 00 00 
       00016294 00 00 00 00 00 00 00 00 00 00 
       0001629E 00 00 00 00 00 00 00 00 00 00 
       000162A8 00 00 00 00 00 00 00 00 00 00 
       000162B2 00 00 00 00 00 00 00 00 00 00 
       000162BC 00 00 00 00 00 00 00 00 00 00 
       000162C6 00 00 00 00 00 00 00 00 00 00 
       000162D0 00 00 00 00 00 00 00 00 00 00 
       000162DA 00 00 00 00 00 00 00 00 00 00 
       000162E4 00 00 00 00 00 00 00 00 00 00 
       000162EE 00 00 00 00 00 00 00 00 00 00 
       000162F8 00 00 00 00 00 00 00 00 00 00 
       00016302 00 00 00 00 00 00 00 00 00 00 
       0001630C 00 00 00 00 00 00 00 00 00 00 
       00016316 00 00 00 00 00 00 00 00 00 00 
       00016320 00 00 00 00 00 00 00 00 00 00 
       0001632A 00 00 00 00 00 00 00 00 00 00 
       00016334 00 00 00 00 00 00 00 00 00 00 
       0001633E 00 00 00 00 00 00 00 00 00 00 
       00016348 00 00 00 00 00 00 00 00 00 00 
       00016352 00 00 00 00 00 00 00 00 00 00 
       0001635C 00 00 00 00 00 00 00 00 00 00 
       00016366 00 00 00 00 00 00 00 00 00 00 
       00016370 00 00 00 00 00 00 00 00 00 00 
       0001637A 00 00 00 00 00 00 00 00 00 00 
       00016384 00 00 00 00 00 00 00 00 00 00 
       0001638E 00 00 00 00 00 00 00 00 00 00 
       00016398 00 00 00 00 00 00 00 00 00 00 
       000163A2 00 00 00 00 00 00 00 00 00 00 
       000163AC 00 00 00 00 00 00 00 00 00 00 
       000163B6 00 00 00 00 00 00 00 00 00 00 
       000163C0 00 00 00 00 00 00 00 00 00 00 
       000163CA 00 00 00 00 00 00 00 00 00 00 
       000163D4 00 00 00 00 00 00 00 00 00 00 
       000163DE 00 00 00 00 00 00 00 00 00 00 
       000163E8 00 00 00 00 00 00 00 00 00 00 
       000163F2 00 00 00 00 00 00 00 00 00 00 
       000163FC 00 00 00 00 00 00 00 00 00 00 
       00016406 00 00 00 00 00 00 00 00 00 00 
       00016410 00 00 00 00 00 00 00 00 00 00 
       0001641A 00 00 00 00 00 00 00 00 00 00 
       00016424 00 00 00 00 00 00 00 00 00 00 
       0001642E 00 00 00 00 00 00 00 00 00 00 
       00016438 00 00 00 00 00 00 00 00 00 00 
       00016442 00 00 00 00 00 00 00 00 00 00 
       0001644C 00 00 00 00 00 00 00 00 00 00 
       00016456 00 00 00 00 00 00 00 00 00 00 
       00016460 00 00 00 00 00 00 00 00 00 00 
       0001646A 00 00 00 00 00 00 00 00 00 00 
       00016474 00 00 00 00 00 00 00 00 00 00 
       0001647E 00 00 00 00 00 00 00 00 00 00 
       00016488 00 00 00 00 00 00 00 00 00 00 
       00016492 00 00 00 00 00 00 00 00 00 00 
       0001649C 00 00 00 00 00 00 00 00 00 00 
       000164A6 00 00 00 00 00 00 00 00 00 00 
       000164B0 00 00 00 00 00 00 00 00 00 00 
       000164BA 00 00 00 00 00 00 00 00 00 00 
       000164C4 00 00 00 00 00 00 00 00 00 00 
       000164CE 00 00 00 00 00 00 00 00 00 00 
       000164D8 00 00 00 00 00 00 00 00 00 00 
       000164E2 00 00 00 00 00 00 00 00 00 00 
       000164EC 00 00 00 00 00 00 00 00 00 00 
       000164F6 00 00 00 00 00 00 00 00 00 00 
       00016500 00 00 00 00 00 00 00 00 00 00 
       0001650A 00 00 00 00 00 00 00 00 00 00 
       00016514 00 00 00 00 00 00 00 00 00 00 
       0001651E 00 00 00 00 00 00 00 00 00 00 
       00016528 00 00 00 00 00 00 00 00 00 00 
       00016532 00 00 00 00 00 00 00 00 00 00 
       0001653C 00 00 00 00 00 00 00 00 00 00 
       00016546 00 00 00 00 00 00 00 00 00 00 
       00016550 00 00 00 00 00 00 00 00 00 00 
       0001655A 00 00 00 00 00 00 00 00 00 00 
       00016564 00 00 00 00 00 00 00 00 00 00 
       0001656E 00 00 00 00 00 00 00 00 00 00 
       00016578 00 00 00 00 00 00 00 00 00 00 
       00016582 00 00 00 00 00 00 00 00 00 00 
       0001658C 00 00 00 00 00 00 00 00 00 00 
       00016596 00 00 00 00 00 00 00 00 00 00 
       000165A0 00 00 00 00 00 00 00 00 00 00 
       000165AA 00 00 00 00 00 00 00 00 00 00 
       000165B4 00 00 00 00 00 00 00 00 00 00 
       000165BE 00 00 00 00 00 00 00 00 00 00 
       000165C8 00 00 00 00 00 00 00 00 00 00 
       000165D2 00 00 00 00 00 00 00 00 00 00 
       000165DC 00 00 00 00 00 00 00 00 00 00 
       000165E6 00 00 00 00 00 00 00 00 00 00 
       000165F0 00 00 00 00 00 00 00 00 00 00 
       000165FA 00 00 00 00 00 00 00 00 00 00 
       00016604 00 00 00 00 00 00 00 00 00 00 
       0001660E 00 00 00 00 00 00 00 00 00 00 
       00016618 00 00 00 00 00 00 00 00 00 00 
       00016622 00 00 00 00 00 00 00 00 00 00 
       0001662C 00 00 00 00 00 00 00 00 00 00 
       00016636 00 00 00 00 00 00 00 00 00 00 
       00016640 00 00 00 00 00 00 00 00 00 00 
       0001664A 00 00 00 00 00 00 00 00 00 00 
       00016654 00 00 00 00 00 00 00 00 00 00 
       0001665E 00 00 00 00 00 00 00 00 00 00 
       00016668 00 00 00 00 00 00 00 00 00 00 
       00016672 00 00 00 00 00 00 00 00 00 00 
       0001667C 00 00 00 00 00 00 00 00 00 00 
       00016686 00 00 00 00 00 00 00 00 00 00 
       00016690 00 00 00 00 00 00 00 00 00 00 
       0001669A 00 00 00 00 00 00 00 00 00 00 
       000166A4 00 00 00 00 00 00 00 00 00 00 
       000166AE 00 00 00 00 00 00 00 00 00 00 
       000166B8 00 00 00 00 00 00 00 00 00 00 
       000166C2 00 00 00 00 00 00 00 00 00 00 
       000166CC 00 00 00 00 00 00 00 00 00 00 
       000166D6 00 00 00 00 00 00 00 00 00 00 
       000166E0 00 00 00 00 00 00 00 00 00 00 
       000166EA 00 00 00 00 00 00 00 00 00 00 
       000166F4 00 00 00 00 00 00 00 00 00 00 
       000166FE 00 00 00 00 00 00 00 00 00 00 
       00016708 00 00 00 00 00 00 00 00 00 00 
       00016712 00 00 00 00 00 00 00 00 00 00 
       0001671C 00 00 00 00 00 00 00 00 00 00 
       00016726 00 00 00 00 00 00 00 00 00 00 
       00016730 00 00 00 00 00 00 00 00 00 00 
       0001673A 00 00 00 00 00 00 00 00 00 00 
       00016744 00 00 00 00 00 00 00 00 00 00 
       0001674E 00 00 00 00 00 00 00 00 00 00 
       00016758 00 00 00 00 00 00 00 00 00 00 
       00016762 00 00 00 00 00 00 00 00 00 00 
       0001676C 00 00 00 00 00 00 00 00 00 00 
       00016776 00 00 00 00 00 00 00 00 00 00 
       00016780 00 00 00 00 00 00 00 00 00 00 
       0001678A 00 00 00 00 00 00 00 00 00 00 
       00016794 00 00 00 00 00 00 00 00 00 00 
       0001679E 00 00 00 00 00 00 00 00 00 00 
       000167A8 00 00 00 00 00 00 00 00 00 00 
       000167B2 00 00 00 00 00 00 00 00 00 00 
       000167BC 00 00 00 00 00 00 00 00 00 00 
       000167C6 00 00 00 00 00 00 00 00 00 00 
       000167D0 00 00 00 00 00 00 00 00 00 00 
       000167DA 00 00 00 00 00 00 00 00 00 00 
       000167E4 00 00 00 00 00 00 00 00 00 00 
       000167EE 00 00 00 00 00 00 00 00 00 00 
       000167F8 00 00 00 00 00 00 00 00 00 00 
       00016802 00 00 00 00 00 00 00 00 00 00 
       0001680C 00 00 00 00 00 00 00 00 00 00 
       00016816 00 00 00 00 00 00 00 00 00 00 
       00016820 00 00 00 00 00 00 00 00 00 00 
       0001682A 00 00 00 00 00 00 00 00 00 00 
       00016834 00 00 00 00 00 00 00 00 00 00 
       0001683E 00 00 00 00 00 00 00 00 00 00 
       00016848 00 00 00 00 00 00 00 00 00 00 
       00016852 00 00 00 00 00 00 00 00 00 00 
       0001685C 00 00 00 00 00 00 00 00 00 00 
       00016866 00 00 00 00 00 00 00 00 00 00 
       00016870 00 00 00 00 00 00 00 00 00 00 
       0001687A 00 00 00 00 00 00 00 00 00 00 
       00016884 00 00 00 00 00 00 00 00 00 00 
       0001688E 00 00 00 00 00 00 00 00 00 00 
       00016898 00 00 00 00 00 00 00 00 00 00 
       000168A2 00 00 00 00 00 00 00 00 00 00 
       000168AC 00 00 00 00 00 00 00 00 00 00 
       000168B6 00 00 00 00 00 00 00 00 00 00 
       000168C0 00 00 00 00 00 00 00 00 00 00 
       000168CA 00 00 00 00 00 00 00 00 00 00 
       000168D4 00 00 00 00 00 00 00 00 00 00 
       000168DE 00 00 00 00 00 00 00 00 00 00 
       000168E8 00 00 00 00 00 00 00 00 00 00 
       000168F2 00 00 00 00 00 00 00 00 00 00 
       000168FC 00 00 00 00 00 00 00 00 00 00 
       00016906 00 00 00 00 00 00 00 00 00 00 
       00016910 00 00 00 00 00 00 00 00 00 00 
       0001691A 00 00 00 00 00 00 00 00 00 00 
       00016924 00 00 00 00 00 00 00 00 00 00 
       0001692E 00 00 00 00 00 00 00 00 00 00 
       00016938 00 00 00 00 00 00 00 00 00 00 
       00016942 00 00 00 00 00 00 00 00 00 00 
       0001694C 00 00 00 00 00 00 00 00 00 00 
       00016956 00 00 00 00 00 00 00 00 00 00 
       00016960 00 00 00 00 00 00 00 00 00 00 
       0001696A 00 00 00 00 00 00 00 00 00 00 
       00016974 00 00 00 00 00 00 00 00 00 00 
       0001697E 00 00 00 00 00 00 00 00 00 00 
       00016988 00 00 00 00 00 00 00 00 00 00 
       00016992 00 00 00 00 00 00 00 00 00 00 
       0001699C 00 00 00 00 00 00 00 00 00 00 
       000169A6 00 00 00 00 00 00 00 00 00 00 
       000169B0 00 00 00 00 00 00 00 00 00 00 
       000169BA 00 00 00 00 00 00 00 00 00 00 
       000169C4 00 00 00 00 00 00 00 00 00 00 
       000169CE 00 00 00 00 00 00 00 00 00 00 
       000169D8 00 00 00 00 00 00 00 00 00 00 
       000169E2 00 00 00 00 00 00 00 00 00 00 
       000169EC 00 00 00 00 00 00 00 00 00 00 
       000169F6 00 00 00 00 00 00 00 00 00 00 
       00016A00 00 00 00 00 00 00 00 00 00 00 
       00016A0A 00 00 00 00 00 00 00 00 00 00 
       00016A14 00 00 00 00 00 00 00 00 00 00 
       00016A1E 00 00 00 00 00 00 00 00 00 00 
       00016A28 00 00 00 00 00 00 00 00 00 00 
       00016A32 00 00 00 00 00 00 00 00 00 00 
       00016A3C 00 00 00 00 00 00 00 00 00 00 
       00016A46 00 00 00 00 00 00 00 00 00 00 
       00016A50 00 00 00 00 00 00 00 00 00 00 
       00016A5A 00 00 00 00 00 00 00 00 00 00 
       00016A64 00 00 00 00 00 00 00 00 00 00 
       00016A6E 00 00 00 00 00 00 00 00 00 00 
       00016A78 00 00 00 00 00 00 00 00 00 00 
       00016A82 00 00 00 00 00 00 00 00 00 00 
       00016A8C 00 00 00 00 00 00 00 00 00 00 
       00016A96 00 00 00 00 00 00 00 00 00 00 
       00016AA0 00 00 00 00 00 00 00 00 00 00 
       00016AAA 00 00 00 00 00 00 00 00 00 00 
       00016AB4 00 00 00 00 00 00 00 00 00 00 
       00016ABE 00 00 00 00 00 00 00 00 00 00 
       00016AC8 00 00 00 00 00 00 00 00 00 00 
       00016AD2 00 00 00 00 00 00 00 00 00 00 
       00016ADC 00 00 00 00 00 00 00 00 00 00 
       00016AE6 00 00 00 00 00 00 00 00 00 00 
       00016AF0 00 00 00 00 00 00 00 00 00 00 
       00016AFA 00 00 00 00 00 00 00 00 00 00 
       00016B04 00 00 00 00 00 00 00 00 00 00 
       00016B0E 00 00 00 00 00 00 00 00 00 00 
       00016B18 00 00 00 00 00 00 00 00 00 00 
       00016B22 00 00 00 00 00 00 00 00 00 00 
       00016B2C 00 00 00 00 00 00 00 00 00 00 
       00016B36 00 00 00 00 00 00 00 00 00 00 
       00016B40 00 00 00 00 00 00 00 00 00 00 
       00016B4A 00 00 00 00 00 00 00 00 00 00 
       00016B54 00 00 00 00 00 00 00 00 00 00 
       00016B5E 00 00 00 00 00 00 00 00 00 00 
       00016B68 00 00 00 00 00 00 00 00 00 00 
       00016B72 00 00 00 00 00 00 00 00 00 00 
       00016B7C 00 00 00 00 00 00 00 00 00 00 
       00016B86 00 00 00 00 00 00 00 00 00 00 
       00016B90 00 00 00 00 00 00 00 00 00 00 
       00016B9A 00 00 00 00 00 00 00 00 00 00 
       00016BA4 00 00 00 00 00 00 00 00 00 00 
       00016BAE 00 00 00 00 00 00 00 00 00 00 
       00016BB8 00 00 00 00 00 00 00 00 00 00 
       00016BC2 00 00 00 00 00 00 00 00 00 00 
       00016BCC 00 00 00 00 00 00 00 00 00 00 
       00016BD6 00 00 00 00 00 00 00 00 00 00 
       00016BE0 00 00 00 00 00 00 00 00 00 00 
       00016BEA 00 00 00 00 00 00 00 00 00 00 
       00016BF4 00 00 00 00 00 00 00 00 00 00 
       00016BFE 00 00 00 00 00 00 00 00 00 00 
       00016C08 00 00 00 00 00 00 00 00 00 00 
       00016C12 00 00 00 00 00 00 00 00 00 00 
       00016C1C 00 00 00 00 00 00 00 00 00 00 
       00016C26 00 00 00 00 00 00 00 00 00 00 
       00016C30 00 00 00 00 00 00 00 00 00 00 
       00016C3A 00 00 00 00 00 00 00 00 00 00 
       00016C44 00 00 00 00 00 00 00 00 00 00 
       00016C4E 00 00 00 00 00 00 00 00 00 00 
       00016C58 00 00 00 00 00 00 00 00 00 00 
       00016C62 00 00 00 00 00 00 00 00 00 00 
       00016C6C 00 00 00 00 00 00 00 00 00 00 
       00016C76 00 00 00 00 00 00 00 00 00 00 
       00016C80 00 00 00 00 00 00 00 00 00 00 
       00016C8A 00 00 00 00 00 00 00 00 00 00 
       00016C94 00 00 00 00 00 00 00 00 00 00 
       00016C9E 00 00 00 00 00 00 00 00 00 00 
       00016CA8 00 00 00 00 00 00 00 00 00 00 
       00016CB2 00 00 00 00 00 00 00 00 00 00 
       00016CBC 00 00 00 00 00 00 00 00 00 00 
       00016CC6 00 00 00 00 00 00 00 00 00 00 
       00016CD0 00 00 00 00 00 00 00 00 00 00 
       00016CDA 00 00 00 00 00 00 00 00 00 00 
       00016CE4 00 00 00 00 00 00 00 00 00 00 
       00016CEE 00 00 00 00 00 00 00 00 00 00 
       00016CF8 00 00 00 00 00 00 00 00 00 00 
       00016D02 00 00 00 00 00 00 00 00 00 00 
       00016D0C 00 00 00 00 00 00 00 00 00 00 
       00016D16 00 00 00 00 00 00 00 00 00 00 
       00016D20 00 00 00 00 00 00 00 00 00 00 
       00016D2A 00 00 00 00 00 00 00 00 00 00 
       00016D34 00 00 00 00 00 00 00 00 00 00 
       00016D3E 00 00 00 00 00 00 00 00 00 00 
       00016D48 00 00 00 00 00 00 00 00 00 00 
       00016D52 00 00 00 00 00 00 00 00 00 00 
       00016D5C 00 00 00 00 00 00 00 00 00 00 
       00016D66 00 00 00 00 00 00 00 00 00 00 
       00016D70 00 00 00 00 00 00 00 00 00 00 
       00016D7A 00 00 00 00 00 00 00 00 00 00 
       00016D84 00 00 00 00 00 00 00 00 00 00 
       00016D8E 00 00 00 00 00 00 00 00 00 00 
       00016D98 00 00 00 00 00 00 00 00 00 00 
       00016DA2 00 00 00 00 00 00 00 00 00 00 
       00016DAC 00 00 00 00 00 00 00 00 00 00 
       00016DB6 00 00 00 00 00 00 00 00 00 00 
       00016DC0 00 00 00 00 00 00 00 00 00 00 
       00016DCA 00 00 00 00 00 00 00 00 00 00 
       00016DD4 00 00 00 00 00 00 00 00 00 00 
       00016DDE 00 00 00 00 00 00 00 00 00 00 
       00016DE8 00 00 00 00 00 00 00 00 00 00 
       00016DF2 00 00 00 00 00 00 00 00 00 00 
       00016DFC 00 00 00 00 00 00 00 00 00 00 
       00016E06 00 00 00 00 00 00 00 00 00 00 
       00016E10 00 00 00 00 00 00 00 00 00 00 
       00016E1A 00 00 00 00 00 00 00 00 00 00 
       00016E24 00 00 00 00 00 00 00 00 00 00 
       00016E2E 00 00 00 00 00 00 00 00 00 00 
       00016E38 00 00 00 00 00 00 00 00 00 00 
       00016E42 00 00 00 00 00 00 00 00 00 00 
       00016E4C 00 00 00 00 00 00 00 00 00 00 
       00016E56 00 00 00 00 00 00 00 00 00 00 
       00016E60 00 00 00 00 00 00 00 00 00 00 
       00016E6A 00 00 00 00 00 00 00 00 00 00 
       00016E74 00 00 00 00 00 00 00 00 00 00 
       00016E7E 00 00 00 00 00 00 00 00 00 00 
       00016E88 00 00 00 00 00 00 00 00 00 00 
       00016E92 00 00 00 00 00 00 00 00 00 00 
       00016E9C 00 00 00 00 00 00 00 00 00 00 
       00016EA6 00 00 00 00 00 00 00 00 00 00 
       00016EB0 00 00 00 00 00 00 00 00 00 00 
       00016EBA 00 00 00 00 00 00 00 00 00 00 
       00016EC4 00 00 00 00 00 00 00 00 00 00 
       00016ECE 00 00 00 00 00 00 00 00 00 00 
       00016ED8 00 00 00 00 00 00 00 00 00 00 
       00016EE2 00 00 00 00 00 00 00 00 00 00 
       00016EEC 00 00 00 00 00 00 00 00 00 00 
       00016EF6 00 00 00 00 00 00 00 00 00 00 
       00016F00 00 00 00 00 00 00 00 00 00 00 
       00016F0A 00 00 00 00 00 00 00 00 00 00 
       00016F14 00 00 00 00 00 00 00 00 00 00 
       00016F1E 00 00 00 00 00 00 00 00 00 00 
       00016F28 00 00 00 00 00 00 00 00 00 00 
       00016F32 00 00 00 00 00 00 00 00 00 00 
       00016F3C 00 00 00 00 00 00 00 00 00 00 
       00016F46 00 00 00 00 00 00 00 00 00 00 
       00016F50 00 00 00 00 00 00 00 00 00 00 
       00016F5A 00 00 00 00 00 00 00 00 00 00 
       00016F64 00 00 00 00 00 00 00 00 00 00 
       00016F6E 00 00 00 00 00 00 00 00 00 00 
       00016F78 00 00 00 00 00 00 00 00 00 00 
       00016F82 00 00 00 00 00 00 00 00 00 00 
       00016F8C 00 00 00 00 00 00 00 00 00 00 
       00016F96 00 00 00 00 00 00 00 00 00 00 
       00016FA0 00 00 00 00 00 00 00 00 00 00 
       00016FAA 00 00 00 00 00 00 00 00 00 00 
       00016FB4 00 00 00 00 00 00 00 00 00 00 
       00016FBE 00 00 00 00 00 00 00 00 00 00 
       00016FC8 00 00 00 00 00 00 00 00 00 00 
       00016FD2 00 00 00 00 00 00 00 00 00 00 
       00016FDC 00 00 00 00 00 00 00 00 00 00 
       00016FE6 00 00 00 00 00 00 00 00 00 00 
       00016FF0 00 00 00 00 00 00 00 00 00 00 
       00016FFA 00 00 00 00 00 00 00 00 00 00 
       00017004 00 00 00 00 00 00 00 00 00 00 
       0001700E 00 00 00 00 00 00 00 00 00 00 
       00017018 00 00 00 00 00 00 00 00 00 00 
       00017022 00 00 00 00 00 00 00 00 00 00 
       0001702C 00 00 00 00 00 00 00 00 00 00 
       00017036 00 00 00 00 00 00 00 00 00 00 
       00017040 00 00 00 00 00 00 00 00 00 00 
       0001704A 00 00 00 00 00 00 00 00 00 00 
       00017054 00 00 00 00 00 00 00 00 00 00 
       0001705E 00 00 00 00 00 00 00 00 00 00 
       00017068 00 00 00 00 00 00 00 00 00 00 
       00017072 00 00 00 00 00 00 00 00 00 00 
       0001707C 00 00 00 00 00 00 00 00 00 00 
       00017086 00 00 00 00 00 00 00 00 00 00 
       00017090 00 00 00 00 00 00 00 00 00 00 
       0001709A 00 00 00 00 00 00 00 00 00 00 
       000170A4 00 00 00 00 00 00 00 00 00 00 
       000170AE 00 00 00 00 00 00 00 00 00 00 
       000170B8 00 00 00 00 00 00 00 00 00 00 
       000170C2 00 00 00 00 00 00 00 00 00 00 
       000170CC 00 00 00 00 00 00 00 00 00 00 
       000170D6 00 00 00 00 00 00 00 00 00 00 
       000170E0 00 00 00 00 00 00 00 00 00 00 
       000170EA 00 00 00 00 00 00 00 00 00 00 
       000170F4 00 00 00 00 00 00 00 00 00 00 
       000170FE 00 00 00 00 00 00 00 00 00 00 
       00017108 00 00 00 00 00 00 00 00 00 00 
       00017112 00 00 00 00 00 00 00 00 00 00 
       0001711C 00 00 00 00 00 00 00 00 00 00 
       00017126 00 00 00 00 00 00 00 00 00 00 
       00017130 00 00 00 00 00 00 00 00 00 00 
       0001713A 00 00 00 00 00 00 00 00 00 00 
       00017144 00 00 00 00 00 00 00 00 00 00 
       0001714E 00 00 00 00 00 00 00 00 00 00 
       00017158 00 00 00 00 00 00 00 00 00 00 
       00017162 00 00 00 00 00 00 00 00 00 00 
       0001716C 00 00 00 00 00 00 00 00 00 00 
       00017176 00 00 00 00 00 00 00 00 00 00 
       00017180 00 00 00 00 00 00 00 00 00 00 
       0001718A 00 00 00 00 00 00 00 00 00 00 
       00017194 00 00 00 00 00 00 00 00 00 00 
       0001719E 00 00 00 00 00 00 00 00 00 00 
       000171A8 00 00 00 00 00 00 00 00 00 00 
       000171B2 00 00 00 00 00 00 00 00 00 00 
       000171BC 00 00 00 00 00 00 00 00 00 00 
       000171C6 00 00 00 00 00 00 00 00 00 00 
       000171D0 00 00 00 00 00 00 00 00 00 00 
       000171DA 00 00 00 00 00 00 00 00 00 00 
       000171E4 00 00 00 00 00 00 00 00 00 00 
       000171EE 00 00 00 00 00 00 00 00 00 00 
       000171F8 00 00 00 00 00 00 00 00 00 00 
       00017202 00 00 00 00 00 00 00 00 00 00 
       0001720C 00 00 00 00 00 00 00 00 00 00 
       00017216 00 00 00 00 00 00 00 00 00 00 
       00017220 00 00 00 00 00 00 00 00 00 00 
       0001722A 00 00 00 00 00 00 00 00 00 00 
       00017234 00 00 00 00 00 00 00 00 00 00 
       0001723E 00 00 00 00 00 00 00 00 00 00 
       00017248 00 00 00 00 00 00 00 00 00 00 
       00017252 00 00 00 00 00 00 00 00 00 00 
       0001725C 00 00 00 00 00 00 00 00 00 00 
       00017266 00 00 00 00 00 00 00 00 00 00 
       00017270 00 00 00 00 00 00 00 00 00 00 
       0001727A 00 00 00 00 00 00 00 00 00 00 
       00017284 00 00 00 00 00 00 00 00 00 00 
       0001728E 00 00 00 00 00 00 00 00 00 00 
       00017298 00 00 00 00 00 00 00 00 00 00 
       000172A2 00 00 00 00 00 00 00 00 00 00 
       000172AC 00 00 00 00 00 00 00 00 00 00 
       000172B6 00 00 00 00 00 00 00 00 00 00 
       000172C0 00 00 00 00 00 00 00 00 00 00 
       000172CA 00 00 00 00 00 00 00 00 00 00 
       000172D4 00 00 00 00 00 00 00 00 00 00 
       000172DE 00 00 00 00 00 00 00 00 00 00 
       000172E8 00 00 00 00 00 00 00 00 00 00 
       000172F2 00 00 00 00 00 00 00 00 00 00 
       000172FC 00 00 00 00 00 00 00 00 00 00 
       00017306 00 00 00 00 00 00 00 00 00 00 
       00017310 00 00 00 00 00 00 00 00 00 00 
       0001731A 00 00 00 00 00 00 00 00 00 00 
       00017324 00 00 00 00 00 00 00 00 00 00 
       0001732E 00 00 00 00 00 00 00 00 00 00 
       00017338 00 00 00 00 00 00 00 00 00 00 
       00017342 00 00 00 00 00 00 00 00 00 00 
       0001734C 00 00 00 00 00 00 00 00 00 00 
       00017356 00 00 00 00 00 00 00 00 00 00 
       00017360 00 00 00 00 00 00 00 00 00 00 
       0001736A 00 00 00 00 00 00 00 00 00 00 
       00017374 00 00 00 00 00 00 00 00 00 00 
       0001737E 00 00 00 00 00 00 00 00 00 00 
       00017388 00 00 00 00 00 00 00 00 00 00 
       00017392 00 00 00 00 00 00 00 00 00 00 
       0001739C 00 00 00 00 00 00 00 00 00 00 
       000173A6 00 00 00 00 00 00 00 00 00 00 
       000173B0 00 00 00 00 00 00 00 00 00 00 
       000173BA 00 00 00 00 00 00 00 00 00 00 
       000173C4 00 00 00 00 00 00 00 00 00 00 
       000173CE 00 00 00 00 00 00 00 00 00 00 
       000173D8 00 00 00 00 00 00 00 00 00 00 
       000173E2 00 00 00 00 00 00 00 00 00 00 
       000173EC 00 00 00 00 00 00 00 00 00 00 
       000173F6 00 00 00 00 00 00 00 00 00 00 
       00017400 00 00 00 00 00 00 00 00 00 00 
       0001740A 00 00 00 00 00 00 00 00 00 00 
       00017414 00 00 00 00 00 00 00 00 00 00 
       0001741E 00 00 00 00 00 00 00 00 00 00 
       00017428 00 00 00 00 00 00 00 00 00 00 
       00017432 00 00 00 00 00 00 00 00 00 00 
       0001743C 00 00 00 00 00 00 00 00 00 00 
       00017446 00 00 00 00 00 00 00 00 00 00 
       00017450 00 00 00 00 00 00 00 00 00 00 
       0001745A 00 00 00 00 00 00 00 00 00 00 
       00017464 00 00 00 00 00 00 00 00 00 00 
       0001746E 00 00 00 00 00 00 00 00 00 00 
       00017478 00 00 00 00 00 00 00 00 00 00 
       00017482 00 00 00 00 00 00 00 00 00 00 
       0001748C 00 00 00 00 00 00 00 00 00 00 
       00017496 00 00 00 00 00 00 00 00 00 00 
       000174A0 00 00 00 00 00 00 00 00 00 00 
       000174AA 00 00 00 00 00 00 00 00 00 00 
       000174B4 00 00 00 00 00 00 00 00 00 00 
       000174BE 00 00 00 00 00 00 00 00 00 00 
       000174C8 00 00 00 00 00 00 00 00 00 00 
       000174D2 00 00 00 00 00 00 00 00 00 00 
       000174DC 00 00 00 00 00 00 00 00 00 00 
       000174E6 00 00 00 00 00 00 00 00 00 00 
       000174F0 00 00 00 00 00 00 00 00 00 00 
       000174FA 00 00 00 00 00 00 00 00 00 00 
       00017504 00 00 00 00 00 00 00 00 00 00 
       0001750E 00 00 00 00 00 00 00 00 00 00 
       00017518 00 00 00 00 00 00 00 00 00 00 
       00017522 00 00 00 00 00 00 00 00 00 00 
       0001752C 00 00 00 00 00 00 00 00 00 00 
       00017536 00 00 00 00 00 00 00 00 00 00 
       00017540 00 00 00 00 00 00 00 00 00 00 
       0001754A 00 00 00 00 00 00 00 00 00 00 
       00017554 00 00 00 00 00 00 00 00 00 00 
       0001755E 00 00 00 00 00 00 00 00 00 00 
       00017568 00 00 00 00 00 00 00 00 00 00 
       00017572 00 00 00 00 00 00 00 00 00 00 
       0001757C 00 00 00 00 00 00 00 00 00 00 
       00017586 00 00 00 00 00 00 00 00 00 00 
       00017590 00 00 00 00 00 00 00 00 00 00 
       0001759A 00 00 00 00 00 00 00 00 00 00 
       000175A4 00 00 00 00 00 00 00 00 00 00 
       000175AE 00 00 00 00 00 00 00 00 00 00 
       000175B8 00 00 00 00 00 00 00 00 00 00 
       000175C2 00 00 00 00 00 00 00 00 00 00 
       000175CC 00 00 00 00 00 00 00 00 00 00 
       000175D6 00 00 00 00 00 00 00 00 00 00 
       000175E0 00 00 00 00 00 00 00 00 00 00 
       000175EA 00 00 00 00 00 00 00 00 00 00 
       000175F4 00 00 00 00 00 00 00 00 00 00 
       000175FE 00 00 00 00 00 00 00 00 00 00 
       00017608 00 00 00 00 00 00 00 00 00 00 
       00017612 00 00 00 00 00 00 00 00 00 00 
       0001761C 00 00 00 00 00 00 00 00 00 00 
       00017626 00 00 00 00 00 00 00 00 00 00 
       00017630 00 00 00 00 00 00 00 00 00 00 
       0001763A 00 00 00 00 00 00 00 00 00 00 
       00017644 00 00 00 00 00 00 00 00 00 00 
       0001764E 00 00 00 00 00 00 00 00 00 00 
       00017658 00 00 00 00 00 00 00 00 00 00 
       00017662 00 00 00 00 00 00 00 00 00 00 
       0001766C 00 00 00 00 00 00 00 00 00 00 
       00017676 00 00 00 00 00 00 00 00 00 00 
       00017680 00 00 00 00 00 00 00 00 00 00 
       0001768A 00 00 00 00 00 00 00 00 00 00 
       00017694 00 00 00 00 00 00 00 00 00 00 
       0001769E 00 00 00 00 00 00 00 00 00 00 
       000176A8 00 00 00 00 00 00 00 00 00 00 
       000176B2 00 00 00 00 00 00 00 00 00 00 
       000176BC 00 00 00 00 00 00 00 00 00 00 
       000176C6 00 00 00 00 00 00 00 00 00 00 
       000176D0 00 00 00 00 00 00 00 00 00 00 
       000176DA 00 00 00 00 00 00 00 00 00 00 
       000176E4 00 00 00 00 00 00 00 00 00 00 
       000176EE 00 00 00 00 00 00 00 00 00 00 
       000176F8 00 00 00 00 00 00 00 00 00 00 
       00017702 00 00 00 00 00 00 00 00 00 00 
       0001770C 00 00 00 00 00 00 00 00 00 00 
       00017716 00 00 00 00 00 00 00 00 00 00 
       00017720 00 00 00 00 00 00 00 00 00 00 
       0001772A 00 00 00 00 00 00 00 00 00 00 
       00017734 00 00 00 00 00 00 00 00 00 00 
       0001773E 00 00 00 00 00 00 00 00 00 00 
       00017748 00 00 00 00 00 00 00 00 00 00 
       00017752 00 00 00 00 00 00 00 00 00 00 
       0001775C 00 00 00 00 00 00 00 00 00 00 
       00017766 00 00 00 00 00 00 00 00 00 00 
       00017770 00 00 00 00 00 00 00 00 00 00 
       0001777A 00 00 00 00 00 00 00 00 00 00 
       00017784 00 00 00 00 00 00 00 00 00 00 
       0001778E 00 00 00 00 00 00 00 00 00 00 
       00017798 00 00 00 00 00 00 00 00 00 00 
       000177A2 00 00 00 00 00 00 00 00 00 00 
       000177AC 00 00 00 00 00 00 00 00 00 00 
       000177B6 00 00 00 00 00 00 00 00 00 00 
       000177C0 00 00 00 00 00 00 00 00 00 00 
       000177CA 00 00 00 00 00 00 00 00 00 00 
       000177D4 00 00 00 00 00 00 00 00 00 00 
       000177DE 00 00 00 00 00 00 00 00 00 00 
       000177E8 00 00 00 00 00 00 00 00 00 00 
       000177F2 00 00 00 00 00 00 00 00 00 00 
       000177FC 00 00 00 00 00 00 00 00 00 00 
       00017806 00 00 00 00 00 00 00 00 00 00 
       00017810 00 00 00 00 00 00 00 00 00 00 
       0001781A 00 00 00 00 00 00 00 00 00 00 
       00017824 00 00 00 00 00 00 00 00 00 00 
       0001782E 00 00 00 00 00 00 00 00 00 00 
       00017838 00 00 00 00 00 00 00 00 00 00 
       00017842 00 00 00 00 00 00 00 00 00 00 
       0001784C 00 00 00 00 00 00 00 00 00 00 
       00017856 00 00 00 00 00 00 00 00 00 00 
       00017860 00 00 00 00 00 00 00 00 00 00 
       0001786A 00 00 00 00 00 00 00 00 00 00 
       00017874 00 00 00 00 00 00 00 00 00 00 
       0001787E 00 00 00 00 00 00 00 00 00 00 
       00017888 00 00 00 00 00 00 00 00 00 00 
       00017892 00 00 00 00 00 00 00 00 00 00 
       0001789C 00 00 00 00 00 00 00 00 00 00 
       000178A6 00 00 00 00 00 00 00 00 00 00 
       000178B0 00 00 00 00 00 00 00 00 00 00 
       000178BA 00 00 00 00 00 00 00 00 00 00 
       000178C4 00 00 00 00 00 00 00 00 00 00 
       000178CE 00 00 00 00 00 00 00 00 00 00 
       000178D8 00 00 00 00 00 00 00 00 00 00 
       000178E2 00 00 00 00 00 00 00 00 00 00 
       000178EC 00 00 00 00 00 00 00 00 00 00 
       000178F6 00 00 00 00 00 00 00 00 00 00 
       00017900 00 00 00 00 00 00 00 00 00 00 
       0001790A 00 00 00 00 00 00 00 00 00 00 
       00017914 00 00 00 00 00 00 00 00 00 00 
       0001791E 00 00 00 00 00 00 00 00 00 00 
       00017928 00 00 00 00 00 00 00 00 00 00 
       00017932 00 00 00 00 00 00 00 00 00 00 
       0001793C 00 00 00 00 00 00 00 00 00 00 
       00017946 00 00 00 00 00 00 00 00 00 00 
       00017950 00 00 00 00 00 00 00 00 00 00 
       0001795A 00 00 00 00 00 00 00 00 00 00 
       00017964 00 00 00 00 00 00 00 00 00 00 
       0001796E 00 00 00 00 00 00 00 00 00 00 
       00017978 00 00 00 00 00 00 00 00 00 00 
       00017982 00 00 00 00 00 00 00 00 00 00 
       0001798C 00 00 00 00 00 00 00 00 00 00 
       00017996 00 00 00 00 00 00 00 00 00 00 
       000179A0 00 00 00 00 00 00 00 00 00 00 
       000179AA 00 00 00 00 00 00 00 00 00 00 
       000179B4 00 00 00 00 00 00 00 00 00 00 
       000179BE 00 00 00 00 00 00 00 00 00 00 
       000179C8 00 00 00 00 00 00 00 00 00 00 
       000179D2 00 00 00 00 00 00 00 00 00 00 
       000179DC 00 00 00 00 00 00 00 00 00 00 
       000179E6 00 00 00 00 00 00 00 00 00 00 
       000179F0 00 00 00 00 00 00 00 00 00 00 
       000179FA 00 00 00 00 00 00 00 00 00 00 
       00017A04 00 00 00 00 00 00 00 00 00 00 
       00017A0E 00 00 00 00 00 00 00 00 00 00 
       00017A18 00 00 00 00 00 00 00 00 00 00 
       00017A22 00 00 00 00 00 00 00 00 00 00 
       00017A2C 00 00 00 00 00 00 00 00 00 00 
       00017A36 00 00 00 00 00 00 00 00 00 00 
       00017A40 00 00 00 00 00 00 00 00 00 00 
       00017A4A 00 00 00 00 00 00 00 00 00 00 
       00017A54 00 00 00 00 00 00 00 00 00 00 
       00017A5E 00 00 00 00 00 00 00 00 00 00 
       00017A68 00 00 00 00 00 00 00 00 00 00 
       00017A72 00 00 00 00 00 00 00 00 00 00 
       00017A7C 00 00 00 00 00 00 00 00 00 00 
       00017A86 00 00 00 00 00 00 00 00 00 00 
       00017A90 00 00 00 00 00 00 00 00 00 00 
       00017A9A 00 00 00 00 00 00 00 00 00 00 
       00017AA4 00 00 00 00 00 00 00 00 00 00 
       00017AAE 00 00 00 00 00 00 00 00 00 00 
       00017AB8 00 00 00 00 00 00 00 00 00 00 
       00017AC2 00 00 00 00 00 00 00 00 00 00 
       00017ACC 00 00 00 00 00 00 00 00 00 00 
       00017AD6 00 00 00 00 00 00 00 00 00 00 
       00017AE0 00 00 00 00 00 00 00 00 00 00 
       00017AEA 00 00 00 00 00 00 00 00 00 00 
       00017AF4 00 00 00 00 00 00 00 00 00 00 
       00017AFE 00 00 00 00 00 00 00 00 00 00 
       00017B08 00 00 00 00 00 00 00 00 00 00 
       00017B12 00 00 00 00 00 00 00 00 00 00 
       00017B1C 00 00 00 00 00 00 00 00 00 00 
       00017B26 00 00 00 00 00 00 00 00 00 00 
       00017B30 00 00 00 00 00 00 00 00 00 00 
       00017B3A 00 00 00 00 00 00 00 00 00 00 
       00017B44 00 00 00 00 00 00 00 00 00 00 
       00017B4E 00 00 00 00 00 00 00 00 00 00 
       00017B58 00 00 00 00 00 00 00 00 00 00 
       00017B62 00 00 00 00 00 00 00 00 00 00 
       00017B6C 00 00 00 00 00 00 00 00 00 00 
       00017B76 00 00 00 00 00 00 00 00 00 00 
       00017B80 00 00 00 00 00 00 00 00 00 00 
       00017B8A 00 00 00 00 00 00 00 00 00 00 
       00017B94 00 00 00 00 00 00 00 00 00 00 
       00017B9E 00 00 00 00 00 00 00 00 00 00 
       00017BA8 00 00 00 00 00 00 00 00 00 00 
       00017BB2 00 00 00 00 00 00 00 00 00 00 
       00017BBC 00 00 00 00 00 00 00 00 00 00 
       00017BC6 00 00 00 00 00 00 00 00 00 00 
       00017BD0 00 00 00 00 00 00 00 00 00 00 
       00017BDA 00 00 00 00 00 00 00 00 00 00 
       00017BE4 00 00 00 00 00 00 00 00 00 00 
       00017BEE 00 00 00 00 00 00 00 00 00 00 
       00017BF8 00 00 00 00 00 00 00 00 00 00 
       00017C02 00 00 00 00 00 00 00 00 00 00 
       00017C0C 00 00 00 00 00 00 00 00 00 00 
       00017C16 00 00 00 00 00 00 00 00 00 00 
       00017C20 00 00 00 00 00 00 00 00 00 00 
       00017C2A 00 00 00 00 00 00 00 00 00 00 
       00017C34 00 00 00 00 00 00 00 00 00 00 
       00017C3E 00 00 00 00 00 00 00 00 00 00 
       00017C48 00 00 00 00 00 00 00 00 00 00 
       00017C52 00 00 00 00 00 00 00 00 00 00 
       00017C5C 00 00 00 00 00 00 00 00 00 00 
       00017C66 00 00 00 00 00 00 00 00 00 00 
       00017C70 00 00 00 00 00 00 00 00 00 00 
       00017C7A 00 00 00 00 00 00 00 00 00 00 
       00017C84 00 00 00 00 00 00 00 00 00 00 
       00017C8E 00 00 00 00 00 00 00 00 00 00 
       00017C98 00 00 00 00 00 00 00 00 00 00 
       00017CA2 00 00 00 00 00 00 00 00 00 00 
       00017CAC 00 00 00 00 00 00 00 00 00 00 
       00017CB6 00 00 00 00 00 00 00 00 00 00 
       00017CC0 00 00 00 00 00 00 00 00 00 00 
       00017CCA 00 00 00 00 00 00 00 00 00 00 
       00017CD4 00 00 00 00 00 00 00 00 00 00 
       00017CDE 00 00 00 00 00 00 00 00 00 00 
       00017CE8 00 00 00 00 00 00 00 00 00 00 
       00017CF2 00 00 00 00 00 00 00 00 00 00 
       00017CFC 00 00 00 00 00 00 00 00 00 00 
       00017D06 00 00 00 00 00 00 00 00 00 00 
       00017D10 00 00 00 00 00 00 00 00 00 00 
       00017D1A 00 00 00 00 00 00 00 00 00 00 
       00017D24 00 00 00 00 00 00 00 00 00 00 
       00017D2E 00 00 00 00 00 00 00 00 00 00 
       00017D38 00 00 00 00 00 00 00 00 00 00 
       00017D42 00 00 00 00 00 00 00 00 00 00 
       00017D4C 00 00 00 00 00 00 00 00 00 00 
       00017D56 00 00 00 00 00 00 00 00 00 00 
       00017D60 00 00 00 00 00 00 00 00 00 00 
       00017D6A 00 00 00 00 00 00 00 00 00 00 
       00017D74 00 00 00 00 00 00 00 00 00 00 
       00017D7E 00 00 00 00 00 00 00 00 00 00 
       00017D88 00 00 00 00 00 00 00 00 00 00 
       00017D92 00 00 00 00 00 00 00 00 00 00 
       00017D9C 00 00 00 00 00 00 00 00 00 00 
       00017DA6 00 00 00 00 00 00 00 00 00 00 
       00017DB0 00 00 00 00 00 00 00 00 00 00 
       00017DBA 00 00 00 00 00 00 00 00 00 00 
       00017DC4 00 00 00 00 00 00 00 00 00 00 
       00017DCE 00 00 00 00 00 00 00 00 00 00 
       00017DD8 00 00 00 00 00 00 00 00 00 00 
       00017DE2 00 00 00 00 00 00 00 00 00 00 
       00017DEC 00 00 00 00 00 00 00 00 00 00 
       00017DF6 00 00 00 00 00 00 00 00 00 00 
       00017E00 00 00 00 00 00 00 00 00 00 00 
       00017E0A 00 00 00 00 00 00 00 00 00 00 
       00017E14 00 00 00 00 00 00 00 00 00 00 
       00017E1E 00 00 00 00 00 00 00 00 00 00 
       00017E28 00 00 00 00 00 00 00 00 00 00 
       00017E32 00 00 00 00 00 00 00 00 00 00 
       00017E3C 00 00 00 00 00 00 00 00 00 00 
       00017E46 00 00 00 00 00 00 00 00 00 00 
       00017E50 00 00 00 00 00 00 00 00 00 00 
       00017E5A 00 00 00 00 00 00 00 00 00 00 
       00017E64 00 00 00 00 00 00 00 00 00 00 
       00017E6E 00 00 00 00 00 00 00 00 00 00 
       00017E78 00 00 00 00 00 00 00 00 00 00 
       00017E82 00 00 00 00 00 00 00 00 00 00 
       00017E8C 00 00 00 00 00 00 00 00 00 00 
       00017E96 00 00 00 00 00 00 00 00 00 00 
       00017EA0 00 00 00 00 00 00 00 00 00 00 
       00017EAA 00 00 00 00 00 00 00 00 00 00 
       00017EB4 00 00 00 00 00 00 00 00 00 00 
       00017EBE 00 00 00 00 00 00 00 00 00 00 
       00017EC8 00 00 00 00 00 00 00 00 00 00 
       00017ED2 00 00 00 00 00 00 00 00 00 00 
       00017EDC 00 00 00 00 00 00 00 00 00 00 
       00017EE6 00 00 00 00 00 00 00 00 00 00 
       00017EF0 00 00 00 00 00 00 00 00 00 00 
       00017EFA 00 00 00 00 00 00 00 00 00 00 
       00017F04 00 00 00 00 00 00 00 00 00 00 
       00017F0E 00 00 00 00 00 00 00 00 00 00 
       00017F18 00 00 00 00 00 00 00 00 00 00 
       00017F22 00 00 00 00 00 00 00 00 00 00 
       00017F2C 00 00 00 00 00 00 00 00 00 00 
       00017F36 00 00 00 00 00 00 00 00 00 00 
       00017F40 00 00 00 00 00 00 00 00 00 00 
       00017F4A 00 00 00 00 00 00 00 00 00 00 
       00017F54 00 00 00 00 00 00 00 00 00 00 
       00017F5E 00 00 00 00 00 00 00 00 00 00 
       00017F68 00 00 00 00 00 00 00 00 00 00 
       00017F72 00 00 00 00 00 00 00 00 00 00 
       00017F7C 00 00 00 00 00 00 00 00 00 00 
       00017F86 00 00 00 00 00 00 00 00 00 00 
       00017F90 00 00 00 00 00 00 00 00 00 00 
       00017F9A 00 00 00 00 00 00 00 00 00 00 
       00017FA4 00 00 00 00 00 00 00 00 00 00 
       00017FAE 00 00 00 00 00 00 00 00 00 00 
       00017FB8 00 00 00 00 00 00 00 00 00 00 
       00017FC2 00 00 00 00 00 00 00 00 00 00 
       00017FCC 00 00 00 00 00 00 00 00 00 00 
       00017FD6 00 00 00 00 00 00 00 00 00 00 
       00017FE0 00 00 00 00 00 00 00 00 00 00 
       00017FEA 00 00 00 00 00 00 00 00 00 00 
       00017FF4 00 00 00 00 00 00 00 00 00 00 
       00017FFE 00 00 00 00 00 00 00 00 00 00 
       00018008 00 00 00 00 00 00 00 00 00 00 
       00018012 00 00 00 00 00 00 00 00 00 00 
       0001801C 00 00 00 00 00 00 00 00 00 00 
       00018026 00 00 00 00 00 00 00 00 00 00 
       00018030 00 00 00 00 00 00 00 00 00 00 
       0001803A 00 00 00 00 00 00 00 00 00 00 
       00018044 00 00 00 00 00 00 00 00 00 00 
       0001804E 00 00 00 00 00 00 00 00 00 00 
       00018058 00 00 00 00 00 00 00 00 00 00 
       00018062 00 00 00 00 00 00 00 00 00 00 
       0001806C 00 00 00 00 00 00 00 00 00 00 
       00018076 00 00 00 00 00 00 00 00 00 00 
       00018080 00 00 00 00 00 00 00 00 00 00 
       0001808A 00 00 00 00 00 00 00 00 00 00 
       00018094 00 00 00 00 00 00 00 00 00 00 
       0001809E 00 00 00 00 00 00 00 00 00 00 
       000180A8 00 00 00 00 00 00 00 00 00 00 
       000180B2 00 00 00 00 00 00 00 00 00 00 
       000180BC 00 00 00 00 00 00 00 00 00 00 
       000180C6 00 00 00 00 00 00 00 00 00 00 
       000180D0 00 00 00 00 00 00 00 00 00 00 
       000180DA 00 00 00 00 00 00 00 00 00 00 
       000180E4 00 00 00 00 00 00 00 00 00 00 
       000180EE 00 00 00 00 00 00 00 00 00 00 
       000180F8 00 00 00 00 00 00 00 00 00 00 
       00018102 00 00 00 00 00 00 00 00 00 00 
       0001810C 00 00 00 00 00 00 00 00 00 00 
       00018116 00 00 00 00 00 00 00 00 00 00 
       00018120 00 00 00 00 00 00 00 00 00 00 
       0001812A 00 00 00 00 00 00 00 00 00 00 
       00018134 00 00 00 00 00 00 00 00 00 00 
       0001813E 00 00 00 00 00 00 00 00 00 00 
       00018148 00 00 00 00 00 00 00 00 00 00 
       00018152 00 00 00 00 00 00 00 00 00 00 
       0001815C 00 00 00 00 00 00 00 00 00 00 
       00018166 00 00 00 00 00 00 00 00 00 00 
       00018170 00 00 00 00 00 00 00 00 00 00 
       0001817A 00 00 00 00 00 00 00 00 00 00 
       00018184 00 00 00 00 00 00 00 00 00 00 
       0001818E 00 00 00 00 00 00 00 00 00 00 
       00018198 00 00 00 00 00 00 00 00 00 00 
       000181A2 00 00 00 00 00 00 00 00 00 00 
       000181AC 00 00 00 00 00 00 00 00 00 00 
       000181B6 00 00 00 00 00 00 00 00 00 00 
       000181C0 00 00 00 00 00 00 00 00 00 00 
       000181CA 00 00 00 00 00 00 00 00 00 00 
       000181D4 00 00 00 00 00 00 00 00 00 00 
       000181DE 00 00 00 00 00 00 00 00 00 00 
       000181E8 00 00 00 00 00 00 00 00 00 00 
       000181F2 00 00 00 00 00 00 00 00 00 00 
       000181FC 00 00 00 00 00 00 00 00 00 00 
       00018206 00 00 00 00 00 00 00 00 00 00 
       00018210 00 00 00 00 00 00 00 00 00 00 
       0001821A 00 00 00 00 00 00 00 00 00 00 
       00018224 00 00 00 00 00 00 00 00 00 00 
       0001822E 00 00 00 00 00 00 00 00 00 00 
       00018238 00 00 00 00 00 00 00 00 00 00 
       00018242 00 00 00 00 00 00 00 00 00 00 
       0001824C 00 00 00 00 00 00 00 00 00 00 
       00018256 00 00 00 00 00 00 00 00 00 00 
       00018260 00 00 00 00 00 00 00 00 00 00 
       0001826A 00 00 00 00 00 00 00 00 00 00 
       00018274 00 00 00 00 00 00 00 00 00 00 
       0001827E 00 00 00 00 00 00 00 00 00 00 
       00018288 00 00 00 00 00 00 00 00 00 00 
       00018292 00 00 00 00 00 00 00 00 00 00 
       0001829C 00 00 00 00 00 00 00 00 00 00 
       000182A6 00 00 00 00 00 00 00 00 00 00 
       000182B0 00 00 00 00 00 00 00 00 00 00 
       000182BA 00 00 00 00 00 00 00 00 00 00 
       000182C4 00 00 00 00 00 00 00 00 00 00 
       000182CE 00 00 00 00 00 00 00 00 00 00 
       000182D8 00 00 00 00 00 00 00 00 00 00 
       000182E2 00 00 00 00 00 00 00 00 00 00 
       000182EC 00 00 00 00 00 00 00 00 00 00 
       000182F6 00 00 00 00 00 00 00 00 00 00 
       00018300 00 00 00 00 00 00 00 00 00 00 
       0001830A 00 00 00 00 00 00 00 00 00 00 
       00018314 00 00 00 00 00 00 00 00 00 00 
       0001831E 00 00 00 00 00 00 00 00 00 00 
       00018328 00 00 00 00 00 00 00 00 00 00 
       00018332 00 00 00 00 00 00 00 00 00 00 
       0001833C 00 00 00 00 00 00 00 00 00 00 
       00018346 00 00 00 00 00 00 00 00 00 00 
       00018350 00 00 00 00 00 00 00 00 00 00 
       0001835A 00 00 00 00 00 00 00 00 00 00 
       00018364 00 00 00 00 00 00 00 00 00 00 
       0001836E 00 00 00 00 00 00 00 00 00 00 
       00018378 00 00 00 00 00 00 00 00 00 00 
       00018382 00 00 00 00 00 00 00 00 00 00 
       0001838C 00 00 00 00 00 00 00 00 00 00 
       00018396 00 00 00 00 00 00 00 00 00 00 
       000183A0 00 00 00 00 00 00 00 00 00 00 
       000183AA 00 00 00 00 00 00 00 00 00 00 
       000183B4 00 00 00 00 00 00 00 00 00 00 
       000183BE 00 00 00 00 00 00 00 00 00 00 
       000183C8 00 00 00 00 00 00 00 00 00 00 
       000183D2 00 00 00 00 00 00 00 00 00 00 
       000183DC 00 00 00 00 00 00 00 00 00 00 
       000183E6 00 00 00 00 00 00 00 00 00 00 
       000183F0 00 00 00 00 00 00 00 00 00 00 
       000183FA 00 00 00 00 00 00 00 00 00 00 
       00018404 00 00 00 00 00 00 00 00 00 00 
       0001840E 00 00 00 00 00 00 00 00 00 00 
       00018418 00 00 00 00 00 00 00 00 00 00 
       00018422 00 00 00 00 00 00 00 00 00 00 
       0001842C 00 00 00 00 00 00 00 00 00 00 
       00018436 00 00 00 00 00 00 00 00 00 00 
       00018440 00 00 00 00 00 00 00 00 00 00 
       0001844A 00 00 00 00 00 00 00 00 00 00 
       00018454 00 00 00 00 00 00 00 00 00 00 
       0001845E 00 00 00 00 00 00 00 00 00 00 
       00018468 00 00 00 00 00 00 00 00 00 00 
       00018472 00 00 00 00 00 00 00 00 00 00 
       0001847C 00 00 00 00 00 00 00 00 00 00 
       00018486 00 00 00 00 00 00 00 00 00 00 
       00018490 00 00 00 00 00 00 00 00 00 00 
       0001849A 00 00 00 00 00 00 00 00 00 00 
       000184A4 00 00 00 00 00 00 00 00 00 00 
       000184AE 00 00 00 00 00 00 00 00 00 00 
       000184B8 00 00 00 00 00 00 00 00 00 00 
       000184C2 00 00 00 00 00 00 00 00 00 00 
       000184CC 00 00 00 00 00 00 00 00 00 00 
       000184D6 00 00 00 00 00 00 00 00 00 00 
       000184E0 00 00 00 00 00 00 00 00 00 00 
       000184EA 00 00 00 00 00 00 00 00 00 00 
       000184F4 00 00 00 00 00 00 00 00 00 00 
       000184FE 00 00 00 00 00 00 00 00 00 00 
       00018508 00 00 00 00 00 00 00 00 00 00 
       00018512 00 00 00 00 00 00 00 00 00 00 
       0001851C 00 00 00 00 00 00 00 00 00 00 
       00018526 00 00 00 00 00 00 00 00 00 00 
       00018530 00 00 00 00 00 00 00 00 00 00 
       0001853A 00 00 00 00 00 00 00 00 00 00 
       00018544 00 00 00 00 00 00 00 00 00 00 
       0001854E 00 00 00 00 00 00 00 00 00 00 
       00018558 00 00 00 00 00 00 00 00 00 00 
       00018562 00 00 00 00 00 00 00 00 00 00 
       0001856C 00 00 00 00 00 00 00 00 00 00 
       00018576 00 00 00 00 00 00 00 00 00 00 
       00018580 00 00 00 00 00 00 00 00 00 00 
       0001858A 00 00 00 00 00 00 00 00 00 00 
       00018594 00 00 00 00 00 00 00 00 00 00 
       0001859E 00 00 00 00 00 00 00 00 00 00 
       000185A8 00 00 00 00 00 00 00 00 00 00 
       000185B2 00 00 00 00 00 00 00 00 00 00 
       000185BC 00 00 00 00 00 00 00 00 00 00 
       000185C6 00 00 00 00 00 00 00 00 00 00 
       000185D0 00 00 00 00 00 00 00 00 00 00 
       000185DA 00 00 00 00 00 00 00 00 00 00 
       000185E4 00 00 00 00 00 00 00 00 00 00 
       000185EE 00 00 00 00 00 00 00 00 00 00 
       000185F8 00 00 00 00 00 00 00 00 00 00 
       00018602 00 00 00 00 00 00 00 00 00 00 
       0001860C 00 00 00 00 00 00 00 00 00 00 
       00018616 00 00 00 00 00 00 00 00 00 00 
       00018620 00 00 00 00 00 00 00 00 00 00 
       0001862A 00 00 00 00 00 00 00 00 00 00 
       00018634 00 00 00 00 00 00 00 00 00 00 
       0001863E 00 00 00 00 00 00 00 00 00 00 
       00018648 00 00 00 00 00 00 00 00 00 00 
       00018652 00 00 00 00 00 00 00 00 00 00 
       0001865C 00 00 00 00 00 00 00 00 00 00 
       00018666 00 00 00 00 00 00 00 00 00 00 
       00018670 00 00 00 00 00 00 00 00 00 00 
       0001867A 00 00 00 00 00 00 00 00 00 00 
       00018684 00 00 00 00 00 00 00 00 00 00 
       0001868E 00 00 00 00 00 00 00 00 00 00 
       00018698 00 00 00 00 00 00 00 00 00 00 
       000186A2 00 00 00 00 00 00 00 00 00 00 
       000186AC 00 00 00 00 00 00 00 00 00 00 
       000186B6 00 00 00 00 00 00 00 00 00 00 
       000186C0 00 00 00 00 00 00 00 00 00 00 
       000186CA 00 00 00 00 00 00 00 00 00 00 
       000186D4 00 00 00 00 00 00 00 00 00 00 
       000186DE 00 00 00 00 00 00 00 00 00 00 
       000186E8 00 00 00 00 00 00 00 00 00 00 
       000186F2 00 00 00 00 00 00 00 00 00 00 
       000186FC 00 00 00 00 00 00 00 00 00 00 
       00018706 00 00 00 00 00 00 00 00 00 00 
       00018710 00 00 00 00 00 00 00 00 00 00 
       0001871A 00 00 00 00 00 00 00 00 00 00 
       00018724 00 00 00 00 00 00 00 00 00 00 
       0001872E 00 00 00 00 00 00 00 00 00 00 
       00018738 00 00 00 00 00 00 00 00 00 00 
       00018742 00 00 00 00 00 00 00 00 00 00 
       0001874C 00 00 00 00 00 00 00 00 00 00 
       00018756 00 00 00 00 00 00 00 00 00 00 
       00018760 00 00 00 00 00 00 00 00 00 00 
       0001876A 00 00 00 00 00 00 00 00 00 00 
       00018774 00 00 00 00 00 00 00 00 00 00 
       0001877E 00 00 00 00 00 00 00 00 00 00 
       00018788 00 00 00 00 00 00 00 00 00 00 
       00018792 00 00 00 00 00 00 00 00 00 00 
       0001879C 00 00 00 00 00 00 00 00 00 00 
       000187A6 00 00 00 00 00 00 00 00 00 00 
       000187B0 00 00 00 00 00 00 00 00 00 00 
       000187BA 00 00 00 00 00 00 00 00 00 00 
       000187C4 00 00 00 00 00 00 00 00 00 00 
       000187CE 00 00 00 00 00 00 00 00 00 00 
       000187D8 00 00 00 00 00 00 00 00 00 00 
       000187E2 00 00 00 00 00 00 00 00 00 00 
       000187EC 00 00 00 00 00 00 00 00 00 00 
       000187F6 00 00 00 00 00 00 00 00 00 00 
       00018800 00 00 00 00 00 00 00 00 00 00 
       0001880A 00 00 00 00 00 00 00 00 00 00 
       00018814 00 00 00 00 00 00 00 00 00 00 
       0001881E 00 00 00 00 00 00 00 00 00 00 
       00018828 00 00 00 00 00 00 00 00 00 00 
       00018832 00 00 00 00 00 00 00 00 00 00 
       0001883C 00 00 00 00 00 00 00 00 00 00 
       00018846 00 00 00 00 00 00 00 00 00 00 
       00018850 00 00 00 00 00 00 00 00 00 00 
       0001885A 00 00 00 00 00 00 00 00 00 00 
       00018864 00 00 00 00 00 00 00 00 00 00 
       0001886E 00 00 00 00 00 00 00 00 00 00 
       00018878 00 00 00 00 00 00 00 00 00 00 
       00018882 00 00 00 00 00 00 00 00 00 00 
       0001888C 00 00 00 00 00 00 00 00 00 00 
       00018896 00 00 00 00 00 00 00 00 00 00 
       000188A0 00 00 00 00 00 00 00 00 00 00 
       000188AA 00 00 00 00 00 00 00 00 00 00 
       000188B4 00 00 00 00 00 00 00 00 00 00 
       000188BE 00 00 00 00 00 00 00 00 00 00 
       000188C8 00 00 00 00 00 00 00 00 00 00 
       000188D2 00 00 00 00 00 00 00 00 00 00 
       000188DC 00 00 00 00 00 00 00 00 00 00 
       000188E6 00 00 00 00 00 00 00 00 00 00 
       000188F0 00 00 00 00 00 00 00 00 00 00 
       000188FA 00 00 00 00 00 00 00 00 00 00 
       00018904 00 00 00 00 00 00 00 00 00 00 
       0001890E 00 00 00 00 00 00 00 00 00 00 
       00018918 00 00 00 00 00 00 00 00 00 00 
       00018922 00 00 00 00 00 00 00 00 00 00 
       0001892C 00 00 00 00 00 00 00 00 00 00 
       00018936 00 00 00 00 00 00 00 00 00 00 
       00018940 00 00 00 00 00 00 00 00 00 00 
       0001894A 00 00 00 00 00 00 00 00 00 00 
       00018954 00 00 00 00 00 00 00 00 00 00 
       0001895E 00 00 00 00 00 00 00 00 00 00 
       00018968 00 00 00 00 00 00 00 00 00 00 
       00018972 00 00 00 00 00 00 00 00 00 00 
       0001897C 00 00 00 00 00 00 00 00 00 00 
       00018986 00 00 00 00 00 00 00 00 00 00 
       00018990 00 00 00 00 00 00 00 00 00 00 
       0001899A 00 00 00 00 00 00 00 00 00 00 
       000189A4 00 00 00 00 00 00 00 00 00 00 
       000189AE 00 00 00 00 00 00 00 00 00 00 
       000189B8 00 00 00 00 00 00 00 00 00 00 
       000189C2 00 00 00 00 00 00 00 00 00 00 
       000189CC 00 00 00 00 00 00 00 00 00 00 
       000189D6 00 00 00 00 00 00 00 00 00 00 
       000189E0 00 00 00 00 00 00 00 00 00 00 
       000189EA 00 00 00 00 00 00 00 00 00 00 
       000189F4 00 00 00 00 00 00 00 00 00 00 
       000189FE 00 00 00 00 00 00 00 00 00 00 
       00018A08 00 00 00 00 00 00 00 00 00 00 
       00018A12 00 00 00 00 00 00 00 00 00 00 
       00018A1C 00 00 00 00 00 00 00 00 00 00 
       00018A26 00 00 00 00 00 00 00 00 00 00 
       00018A30 00 00 00 00 00 00 00 00 00 00 
       00018A3A 00 00 00 00 00 00 00 00 00 00 
       00018A44 00 00 00 00 00 00 00 00 00 00 
       00018A4E 00 00 00 00 00 00 00 00 00 00 
       00018A58 00 00 00 00 00 00 00 00 00 00 
       00018A62 00 00 00 00 00 00 00 00 00 00 
       00018A6C 00 00 00 00 00 00 00 00 00 00 
       00018A76 00 00 00 00 00 00 00 00 00 00 
       00018A80 00 00 00 00 00 00 00 00 00 00 
       00018A8A 00 00 00 00 00 00 00 00 00 00 
       00018A94 00 00 00 00 00 00 00 00 00 00 
       00018A9E 00 00 00 00 00 00 00 00 00 00 
       00018AA8 00 00 00 00 00 00 00 00 00 00 
       00018AB2 00 00 00 00 00 00 00 00 00 00 
       00018ABC 00 00 00 00 00 00 00 00 00 00 
       00018AC6 00 00 00 00 00 00 00 00 00 00 
       00018AD0 00 00 00 00 00 00 00 00 00 00 
       00018ADA 00 00 00 00 00 00 00 00 00 00 
       00018AE4 00 00 00 00 00 00 00 00 00 00 
       00018AEE 00 00 00 00 00 00 00 00 00 00 
       00018AF8 00 00 00 00 00 00 00 00 00 00 
       00018B02 00 00 00 00 00 00 00 00 00 00 
       00018B0C 00 00 00 00 00 00 00 00 00 00 
       00018B16 00 00 00 00 00 00 00 00 00 00 
       00018B20 00 00 00 00 00 00 00 00 00 00 
       00018B2A 00 00 00 00 00 00 00 00 00 00 
       00018B34 00 00 00 00 00 00 00 00 00 00 
       00018B3E 00 00 00 00 00 00 00 00 00 00 
       00018B48 00 00 00 00 00 00 00 00 00 00 
       00018B52 00 00 00 00 00 00 00 00 00 00 
       00018B5C 00 00 00 00 00 00 00 00 00 00 
       00018B66 00 00 00 00 00 00 00 00 00 00 
       00018B70 00 00 00 00 00 00 00 00 00 00 
       00018B7A 00 00 00 00 00 00 00 00 00 00 
       00018B84 00 00 00 00 00 00 00 00 00 00 
       00018B8E 00 00 00 00 00 00 00 00 00 00 
       00018B98 00 00 00 00 00 00 00 00 00 00 
       00018BA2 00 00 00 00 00 00 00 00 00 00 
       00018BAC 00 00 00 00 00 00 00 00 00 00 
       00018BB6 00 00 00 00 00 00 00 00 00 00 
       00018BC0 00 00 00 00 00 00 00 00 00 00 
       00018BCA 00 00 00 00 00 00 00 00 00 00 
       00018BD4 00 00 00 00 00 00 00 00 00 00 
       00018BDE 00 00 00 00 00 00 00 00 00 00 
       00018BE8 00 00 00 00 00 00 00 00 00 00 
       00018BF2 00 00 00 00 00 00 00 00 00 00 
       00018BFC 00 00 00 00 00 00 00 00 00 00 
       00018C06 00 00 00 00 00 00 00 00 00 00 
       00018C10 00 00 00 00 00 00 00 00 00 00 
       00018C1A 00 00 00 00 00 00 00 00 00 00 
       00018C24 00 00 00 00 00 00 00 00 00 00 
       00018C2E 00 00 00 00 00 00 00 00 00 00 
       00018C38 00 00 00 00 00 00 00 00 00 00 
       00018C42 00 00 00 00 00 00 00 00 00 00 
       00018C4C 00 00 00 00 00 00 00 00 00 00 
       00018C56 00 00 00 00 00 00 00 00 00 00 
       00018C60 00 00 00 00 00 00 00 00 00 00 
       00018C6A 00 00 00 00 00 00 00 00 00 00 
       00018C74 00 00 00 00 00 00 00 00 00 00 
       00018C7E 00 00 00 00 00 00 00 00 00 00 
       00018C88 00 00 00 00 00 00 00 00 00 00 
       00018C92 00 00 00 00 00 00 00 00 00 00 
       00018C9C 00 00 00 00 00 00 00 00 00 00 
       00018CA6 00 00 00 00 00 00 00 00 00 00 
       00018CB0 00 00 00 00 00 00 00 00 00 00 
       00018CBA 00 00 00 00 00 00 00 00 00 00 
       00018CC4 00 00 00 00 00 00 00 00 00 00 
       00018CCE 00 00 00 00 00 00 00 00 00 00 
       00018CD8 00 00 00 00 00 00 00 00 00 00 
       00018CE2 00 00 00 00 00 00 00 00 00 00 
       00018CEC 00 00 00 00 00 00 00 00 00 00 
       00018CF6 00 00 00 00 00 00 00 00 00 00 
       00018D00 00 00 00 00 00 00 00 00 00 00 
       00018D0A 00 00 00 00 00 00 00 00 00 00 
       00018D14 00 00 00 00 00 00 00 00 00 00 
       00018D1E 00 00 00 00 00 00 00 00 00 00 
       00018D28 00 00 00 00 00 00 00 00 00 00 
       00018D32 00 00 00 00 00 00 00 00 00 00 
       00018D3C 00 00 00 00 00 00 00 00 00 00 
       00018D46 00 00 00 00 00 00 00 00 00 00 
       00018D50 00 00 00 00 00 00 00 00 00 00 
       00018D5A 00 00 00 00 00 00 00 00 00 00 
       00018D64 00 00 00 00 00 00 00 00 00 00 
       00018D6E 00 00 00 00 00 00 00 00 00 00 
       00018D78 00 00 00 00 00 00 00 00 00 00 
       00018D82 00 00 00 00 00 00 00 00 00 00 
       00018D8C 00 00 00 00 00 00 00 00 00 00 
       00018D96 00 00 00 00 00 00 00 00 00 00 
       00018DA0 00 00 00 00 00 00 00 00 00 00 
       00018DAA 00 00 00 00 00 00 00 00 00 00 
       00018DB4 00 00 00 00 00 00 00 00 00 00 
       00018DBE 00 00 00 00 00 00 00 00 00 00 
       00018DC8 00 00 00 00 00 00 00 00 00 00 
       00018DD2 00 00 00 00 00 00 00 00 00 00 
       00018DDC 00 00 00 00 00 00 00 00 00 00 
       00018DE6 00 00 00 00 00 00 00 00 00 00 
       00018DF0 00 00 00 00 00 00 00 00 00 00 
       00018DFA 00 00 00 00 00 00 00 00 00 00 
       00018E04 00 00 00 00 00 00 00 00 00 00 
       00018E0E 00 00 00 00 00 00 00 00 00 00 
       00018E18 00 00 00 00 00 00 00 00 00 00 
       00018E22 00 00 00 00 00 00 00 00 00 00 
       00018E2C 00 00 00 00 00 00 00 00 00 00 
       00018E36 00 00 00 00 00 00 00 00 00 00 
       00018E40 00 00 00 00 00 00 00 00 00 00 
       00018E4A 00 00 00 00 00 00 00 00 00 00 
       00018E54 00 00 00 00 00 00 00 00 00 00 
       00018E5E 00 00 00 00 00 00 00 00 00 00 
       00018E68 00 00 00 00 00 00 00 00 00 00 
       00018E72 00 00 00 00 00 00 00 00 00 00 
       00018E7C 00 00 00 00 00 00 00 00 00 00 
       00018E86 00 00 00 00 00 00 00 00 00 00 
       00018E90 00 00 00 00 00 00 00 00 00 00 
       00018E9A 00 00 00 00 00 00 00 00 00 00 
       00018EA4 00 00 00 00 00 00 00 00 00 00 
       00018EAE 00 00 00 00 00 00 00 00 00 00 
       00018EB8 00 00 00 00 00 00 00 00 00 00 
       00018EC2 00 00 00 00 00 00 00 00 00 00 
       00018ECC 00 00 00 00 00 00 00 00 00 00 
       00018ED6 00 00 00 00 00 00 00 00 00 00 
       00018EE0 00 00 00 00 00 00 00 00 00 00 
       00018EEA 00 00 00 00 00 00 00 00 00 00 
       00018EF4 00 00 00 00 00 00 00 00 00 00 
       00018EFE 00 00 00 00 00 00 00 00 00 00 
       00018F08 00 00 00 00 00 00 00 00 00 00 
       00018F12 00 00 00 00 00 00 00 00 00 00 
       00018F1C 00 00 00 00 00 00 00 00 00 00 
       00018F26 00 00 00 00 00 00 00 00 00 00 
       00018F30 00 00 00 00 00 00 00 00 00 00 
       00018F3A 00 00 00 00 00 00 00 00 00 00 
       00018F44 00 00 00 00 00 00 00 00 00 00 
       00018F4E 00 00 00 00 00 00 00 00 00 00 
       00018F58 00 00 00 00 00 00 00 00 00 00 
       00018F62 00 00 00 00 00 00 00 00 00 00 
       00018F6C 00 00 00 00 00 00 00 00 00 00 
       00018F76 00 00 00 00 00 00 00 00 00 00 
       00018F80 00 00 00 00 00 00 00 00 00 00 
       00018F8A 00 00 00 00 00 00 00 00 00 00 
       00018F94 00 00 00 00 00 00 00 00 00 00 
       00018F9E 00 00 00 00 00 00 00 00 00 00 
       00018FA8 00 00 00 00 00 00 00 00 00 00 
       00018FB2 00 00 00 00 00 00 00 00 00 00 
       00018FBC 00 00 00 00 00 00 00 00 00 00 
       00018FC6 00 00 00 00 00 00 00 00 00 00 
       00018FD0 00 00 00 00 00 00 00 00 00 00 
       00018FDA 00 00 00 00 00 00 00 00 00 00 
       00018FE4 00 00 00 00 00 00 00 00 00 00 
       00018FEE 00 00 00 00 00 00 00 00 00 00 
       00018FF8 00 00 00 00 00 00 00 00 00 00 
       00019002 00 00 00 00 00 00 00 00 00 00 
       0001900C 00 00 00 00 00 00 00 00 00 00 
       00019016 00 00 00 00 00 00 00 00 00 00 
       00019020 00 00 00 00 00 00 00 00 00 00 
       0001902A 00 00 00 00 00 00 00 00 00 00 
       00019034 00 00 00 00 00 00 00 00 00 00 
       0001903E 00 00 00 00 00 00 00 00 00 00 
       00019048 00 00 00 00 00 00 00 00 00 00 
       00019052 00 00 00 00 00 00 00 00 00 00 
       0001905C 00 00 00 00 00 00 00 00 00 00 
       00019066 00 00 00 00 00 00 00 00 00 00 
       00019070 00 00 00 00 00 00 00 00 00 00 
       0001907A 00 00 00 00 00 00 00 00 00 00 
       00019084 00 00 00 00 00 00 00 00 00 00 
       0001908E 00 00 00 00 00 00 00 00 00 00 
       00019098 00 00 00 00 00 00 00 00 00 00 
       000190A2 00 00 00 00 00 00 00 00 00 00 
       000190AC 00 00 00 00 00 00 00 00 00 00 
       000190B6 00 00 00 00 00 00 00 00 00 00 
       000190C0 00 00 00 00 00 00 00 00 00 00 
       000190CA 00 00 00 00 00 00 00 00 00 00 
       000190D4 00 00 00 00 00 00 00 00 00 00 
       000190DE 00 00 00 00 00 00 00 00 00 00 
       000190E8 00 00 00 00 00 00 00 00 00 00 
       000190F2 00 00 00 00 00 00 00 00 00 00 
       000190FC 00 00 00 00 00 00 00 00 00 00 
       00019106 00 00 00 00 00 00 00 00 00 00 
       00019110 00 00 00 00 00 00 00 00 00 00 
       0001911A 00 00 00 00 00 00 00 00 00 00 
       00019124 00 00 00 00 00 00 00 00 00 00 
       0001912E 00 00 00 00 00 00 00 00 00 00 
       00019138 00 00 00 00 00 00 00 00 00 00 
       00019142 00 00 00 00 00 00 00 00 00 00 
       0001914C 00 00 00 00 00 00 00 00 00 00 
       00019156 00 00 00 00 00 00 00 00 00 00 
       00019160 00 00 00 00 00 00 00 00 00 00 
       0001916A 00 00 00 00 00 00 00 00 00 00 
       00019174 00 00 00 00 00 00 00 00 00 00 
       0001917E 00 00 00 00 00 00 00 00 00 00 
       00019188 00 00 00 00 00 00 00 00 00 00 
       00019192 00 00 00 00 00 00 00 00 00 00 
       0001919C 00 00 00 00 00 00 00 00 00 00 
       000191A6 00 00 00 00 00 00 00 00 00 00 
       000191B0 00 00 00 00 00 00 00 00 00 00 
       000191BA 00 00 00 00 00 00 00 00 00 00 
       000191C4 00 00 00 00 00 00 00 00 00 00 
       000191CE 00 00 00 00 00 00 00 00 00 00 
       000191D8 00 00 00 00 00 00 00 00 00 00 
       000191E2 00 00 00 00 00 00 00 00 00 00 
       000191EC 00 00 00 00 00 00 00 00 00 00 
       000191F6 00 00 00 00 00 00 00 00 00 00 
       00019200 00 00 00 00 00 00 00 00 00 00 
       0001920A 00 00 00 00 00 00 00 00 00 00 
       00019214 00 00 00 00 00 00 00 00 00 00 
       0001921E 00 00 00 00 00 00 00 00 00 00 
       00019228 00 00 00 00 00 00 00 00 00 00 
       00019232 00 00 00 00 00 00 00 00 00 00 
       0001923C 00 00 00 00 00 00 00 00 00 00 
       00019246 00 00 00 00 00 00 00 00 00 00 
       00019250 00 00 00 00 00 00 00 00 00 00 
       0001925A 00 00 00 00 00 00 00 00 00 00 
       00019264 00 00 00 00 00 00 00 00 00 00 
       0001926E 00 00 00 00 00 00 00 00 00 00 
       00019278 00 00 00 00 00 00 00 00 00 00 
       00019282 00 00 00 00 00 00 00 00 00 00 
       0001928C 00 00 00 00 00 00 00 00 00 00 
       00019296 00 00 00 00 00 00 00 00 00 00 
       000192A0 00 00 00 00 00 00 00 00 00 00 
       000192AA 00 00 00 00 00 00 00 00 00 00 
       000192B4 00 00 00 00 00 00 00 00 00 00 
       000192BE 00 00 00 00 00 00 00 00 00 00 
       000192C8 00 00 00 00 00 00 00 00 00 00 
       000192D2 00 00 00 00 00 00 00 00 00 00 
       000192DC 00 00 00 00 00 00 00 00 00 00 
       000192E6 00 00 00 00 00 00 00 00 00 00 
       000192F0 00 00 00 00 00 00 00 00 00 00 
       000192FA 00 00 00 00 00 00 00 00 00 00 
       00019304 00 00 00 00 00 00 00 00 00 00 
       0001930E 00 00 00 00 00 00 00 00 00 00 
       00019318 00 00 00 00 00 00 00 00 00 00 
       00019322 00 00 00 00 00 00 00 00 00 00 
       0001932C 00 00 00 00 00 00 00 00 00 00 
       00019336 00 00 00 00 00 00 00 00 00 00 
       00019340 00 00 00 00 00 00 00 00 00 00 
       0001934A 00 00 00 00 00 00 00 00 00 00 
       00019354 00 00 00 00 00 00 00 00 00 00 
       0001935E 00 00 00 00 00 00 00 00 00 00 
       00019368 00 00 00 00 00 00 00 00 00 00 
       00019372 00 00 00 00 00 00 00 00 00 00 
       0001937C 00 00 00 00 00 00 00 00 00 00 
       00019386 00 00 00 00 00 00 00 00 00 00 
       00019390 00 00 00 00 00 00 00 00 00 00 
       0001939A 00 00 00 00 00 00 00 00 00 00 
       000193A4 00 00 00 00 00 00 00 00 00 00 
       000193AE 00 00 00 00 00 00 00 00 00 00 
       000193B8 00 00 00 00 00 00 00 00 00 00 
       000193C2 00 00 00 00 00 00 00 00 00 00 
       000193CC 00 00 00 00 00 00 00 00 00 00 
       000193D6 00 00 00 00 00 00 00 00 00 00 
       000193E0 00 00 00 00 00 00 00 00 00 00 
       000193EA 00 00 00 00 00 00 00 00 00 00 
       000193F4 00 00 00 00 00 00 00 00 00 00 
       000193FE 00 00 00 00 00 00 00 00 00 00 
       00019408 00 00 00 00 00 00 00 00 00 00 
       00019412 00 00 00 00 00 00 00 00 00 00 
       0001941C 00 00 00 00 00 00 00 00 00 00 
       00019426 00 00 00 00 00 00 00 00 00 00 
       00019430 00 00 00 00 00 00 00 00 00 00 
       0001943A 00 00 00 00 00 00 00 00 00 00 
       00019444 00 00 00 00 00 00 00 00 00 00 
       0001944E 00 00 00 00 00 00 00 00 00 00 
       00019458 00 00 00 00 00 00 00 00 00 00 
       00019462 00 00 00 00 00 00 00 00 00 00 
       0001946C 00 00 00 00 00 00 00 00 00 00 
       00019476 00 00 00 00 00 00 00 00 00 00 
       00019480 00 00 00 00 00 00 00 00 00 00 
       0001948A 00 00 00 00 00 00 00 00 00 00 
       00019494 00 00 00 00 00 00 00 00 00 00 
       0001949E 00 00 00 00 00 00 00 00 00 00 
       000194A8 00 00 00 00 00 00 00 00 00 00 
       000194B2 00 00 00 00 00 00 00 00 00 00 
       000194BC 00 00 00 00 00 00 00 00 00 00 
       000194C6 00 00 00 00 00 00 00 00 00 00 
       000194D0 00 00 00 00 00 00 00 00 00 00 
       000194DA 00 00 00 00 00 00 00 00 00 00 
       000194E4 00 00 00 00 00 00 00 00 00 00 
       000194EE 00 00 00 00 00 00 00 00 00 00 
       000194F8 00 00 00 00 00 00 00 00 00 00 
       00019502 00 00 00 00 00 00 00 00 00 00 
       0001950C 00 00 00 00 00 00 00 00 00 00 
       00019516 00 00 00 00 00 00 00 00 00 00 
       00019520 00 00 00 00 00 00 00 00 00 00 
       0001952A 00 00 00 00 00 00 00 00 00 00 
       00019534 00 00 00 00 00 00 00 00 00 00 
       0001953E 00 00 00 00 00 00 00 00 00 00 
       00019548 00 00 00 00 00 00 00 00 00 00 
       00019552 00 00 00 00 00 00 00 00 00 00 
       0001955C 00 00 00 00 00 00 00 00 00 00 
       00019566 00 00 00 00 00 00 00 00 00 00 
       00019570 00 00 00 00 00 00 00 00 00 00 
       0001957A 00 00 00 00 00 00 00 00 00 00 
       00019584 00 00 00 00 00 00 00 00 00 00 
       0001958E 00 00 00 00 00 00 00 00 00 00 
       00019598 00 00 00 00 00 00 00 00 00 00 
       000195A2 00 00 00 00 00 00 00 00 00 00 
       000195AC 00 00 00 00 00 00 00 00 00 00 
       000195B6 00 00 00 00 00 00 00 00 00 00 
       000195C0 00 00 00 00 00 00 00 00 00 00 
       000195CA 00 00 00 00 00 00 00 00 00 00 
       000195D4 00 00 00 00 00 00 00 00 00 00 
       000195DE 00 00 00 00 00 00 00 00 00 00 
       000195E8 00 00 00 00 00 00 00 00 00 00 
       000195F2 00 00 00 00 00 00 00 00 00 00 
       000195FC 00 00 00 00 00 00 00 00 00 00 
       00019606 00 00 00 00 00 00 00 00 00 00 
       00019610 00 00 00 00 00 00 00 00 00 00 
       0001961A 00 00 00 00 00 00 00 00 00 00 
       00019624 00 00 00 00 00 00 00 00 00 00 
       0001962E 00 00 00 00 00 00 00 00 00 00 
       00019638 00 00 00 00 00 00 00 00 00 00 
       00019642 00 00 00 00 00 00 00 00 00 00 
       0001964C 00 00 00 00 00 00 00 00 00 00 
       00019656 00 00 00 00 00 00 00 00 00 00 
       00019660 00 00 00 00 00 00 00 00 00 00 
       0001966A 00 00 00 00 00 00 00 00 00 00 
       00019674 00 00 00 00 00 00 00 00 00 00 
       0001967E 00 00 00 00 00 00 00 00 00 00 
       00019688 00 00 00 00 00 00 00 00 00 00 
       00019692 00 00 00 00 00 00 00 00 00 00 
       0001969C 00 00 00 00 00 00 00 00 00 00 
       000196A6 00 00 00 00 00 00 00 00 00 00 
       000196B0 00 00 00 00 00 00 00 00 00 00 
       000196BA 00 00 00 00 00 00 00 00 00 00 
       000196C4 00 00 00 00 00 00 00 00 00 00 
       000196CE 00 00 00 00 00 00 00 00 00 00 
       000196D8 00 00 00 00 00 00 00 00 00 00 
       000196E2 00 00 00 00 00 00 00 00 00 00 
       000196EC 00 00 00 00 00 00 00 00 00 00 
       000196F6 00 00 00 00 00 00 00 00 00 00 
       00019700 00 00 00 00 00 00 00 00 00 00 
       0001970A 00 00 00 00 00 00 00 00 00 00 
       00019714 00 00 00 00 00 00 00 00 00 00 
       0001971E 00 00 00 00 00 00 00 00 00 00 
       00019728 00 00 00 00 00 00 00 00 00 00 
       00019732 00 00 00 00 00 00 00 00 00 00 
       0001973C 00 00 00 00 00 00 00 00 00 00 
       00019746 00 00 00 00 00 00 00 00 00 00 
       00019750 00 00 00 00 00 00 00 00 00 00 
       0001975A 00 00 00 00 00 00 00 00 00 00 
       00019764 00 00 00 00 00 00 00 00 00 00 
       0001976E 00 00 00 00 00 00 00 00 00 00 
       00019778 00 00 00 00 00 00 00 00 00 00 
       00019782 00 00 00 00 00 00 00 00 00 00 
       0001978C 00 00 00 00 00 00 00 00 00 00 
       00019796 00 00 00 00 00 00 00 00 00 00 
       000197A0 00 00 00 00 00 00 00 00 00 00 
       000197AA 00 00 00 00 00 00 00 00 00 00 
       000197B4 00 00 00 00 00 00 00 00 00 00 
       000197BE 00 00 00 00 00 00 00 00 00 00 
       000197C8 00 00 00 00 00 00 00 00 00 00 
       000197D2 00 00 00 00 00 00 00 00 00 00 
       000197DC 00 00 00 00 00 00 00 00 00 00 
       000197E6 00 00 00 00 00 00 00 00 00 00 
       000197F0 00 00 00 00 00 00 00 00 00 00 
       000197FA 00 00 00 00 00 00 00 00 00 00 
       00019804 00 00 00 00 00 00 00 00 00 00 
       0001980E 00 00 00 00 00 00 00 00 00 00 
       00019818 00 00 00 00 00 00 00 00 00 00 
       00019822 00 00 00 00 00 00 00 00 00 00 
       0001982C 00 00 00 00 00 00 00 00 00 00 
       00019836 00 00 00 00 00 00 00 00 00 00 
       00019840 00 00 00 00 00 00 00 00 00 00 
       0001984A 00 00 00 00 00 00 00 00 00 00 
       00019854 00 00 00 00 00 00 00 00 00 00 
       0001985E 00 00 00 00 00 00 00 00 00 00 
       00019868 00 00 00 00 00 00 00 00 00 00 
       00019872 00 00 00 00 00 00 00 00 00 00 
       0001987C 00 00 00 00 00 00 00 00 00 00 
       00019886 00 00 00 00 00 00 00 00 00 00 
       00019890 00 00 00 00 00 00 00 00 00 00 
       0001989A 00 00 00 00 00 00 00 00 00 00 
       000198A4 00 00 00 00 00 00 00 00 00 00 
       000198AE 00 00 00 00 00 00 00 00 00 00 
       000198B8 00 00 00 00 00 00 00 00 00 00 
       000198C2 00 00 00 00 00 00 00 00 00 00 
       000198CC 00 00 00 00 00 00 00 00 00 00 
       000198D6 00 00 00 00 00 00 00 00 00 00 
       000198E0 00 00 00 00 00 00 00 00 00 00 
       000198EA 00 00 00 00 00 00 00 00 00 00 
       000198F4 00 00 00 00 00 00 00 00 00 00 
       000198FE 00 00 00 00 00 00 00 00 00 00 
       00019908 00 00 00 00 00 00 00 00 00 00 
       00019912 00 00 00 00 00 00 00 00 00 00 
       0001991C 00 00 00 00 00 00 00 00 00 00 
       00019926 00 00 00 00 00 00 00 00 00 00 
       00019930 00 00 00 00 00 00 00 00 00 00 
       0001993A 00 00 00 00 00 00 00 00 00 00 
       00019944 00 00 00 00 00 00 00 00 00 00 
       0001994E 00 00 00 00 00 00 00 00 00 00 
       00019958 00 00 00 00 00 00 00 00 00 00 
       00019962 00 00 00 00 00 00 00 00 00 00 
       0001996C 00 00 00 00 00 00 00 00 00 00 
       00019976 00 00 00 00 00 00 00 00 00 00 
       00019980 00 00 00 00 00 00 00 00 00 00 
       0001998A 00 00 00 00 00 00 00 00 00 00 
       00019994 00 00 00 00 00 00 00 00 00 00 
       0001999E 00 00 00 00 00 00 00 00 00 00 
       000199A8 00 00 00 00 00 00 00 00 00 00 
       000199B2 00 00 00 00 00 00 00 00 00 00 
       000199BC 00 00 00 00 00 00 00 00 00 00 
       000199C6 00 00 00 00 00 00 00 00 00 00 
       000199D0 00 00 00 00 00 00 00 00 00 00 
       000199DA 00 00 00 00 00 00 00 00 00 00 
       000199E4 00 00 00 00 00 00 00 00 00 00 
       000199EE 00 00 00 00 00 00 00 00 00 00 
       000199F8 00 00 00 00 00 00 00 00 00 00 
       00019A02 00 00 00 00 00 00 00 00 00 00 
       00019A0C 00 00 00 00 00 00 00 00 00 00 
       00019A16 00 00 00 00 00 00 00 00 00 00 
       00019A20 00 00 00 00 00 00 00 00 00 00 
       00019A2A 00 00 00 00 00 00 00 00 00 00 
       00019A34 00 00 00 00 00 00 00 00 00 00 
       00019A3E 00 00 00 00 00 00 00 00 00 00 
       00019A48 00 00 00 00 00 00 00 00 00 00 
       00019A52 00 00 00 00 00 00 00 00 00 00 
       00019A5C 00 00 00 00 00 00 00 00 00 00 
       00019A66 00 00 00 00 00 00 00 00 00 00 
       00019A70 00 00 00 00 00 00 00 00 00 00 
       00019A7A 00 00 00 00 00 00 00 00 00 00 
       00019A84 00 00 00 00 00 00 00 00 00 00 
       00019A8E 00 00 00 00 00 00 00 00 00 00 
       00019A98 00 00 00 00 00 00 00 00 00 00 
       00019AA2 00 00 00 00 00 00 00 00 00 00 
       00019AAC 00 00 00 00 00 00 00 00 00 00 
       00019AB6 00 00 00 00 00 00 00 00 00 00 
       00019AC0 00 00 00 00 00 00 00 00 00 00 
       00019ACA 00 00 00 00 00 00 00 00 00 00 
       00019AD4 00 00 00 00 00 00 00 00 00 00 
       00019ADE 00 00 00 00 00 00 00 00 00 00 
       00019AE8 00 00 00 00 00 00 00 00 00 00 
       00019AF2 00 00 00 00 00 00 00 00 00 00 
       00019AFC 00 00 00 00 00 00 00 00 00 00 
       00019B06 00 00 00 00 00 00 00 00 00 00 
       00019B10 00 00 00 00 00 00 00 00 00 00 
       00019B1A 00 00 00 00 00 00 00 00 00 00 
       00019B24 00 00 00 00 00 00 00 00 00 00 
       00019B2E 00 00 00 00 00 00 00 00 00 00 
       00019B38 00 00 00 00 00 00 00 00 00 00 
       00019B42 00 00 00 00 00 00 00 00 00 00 
       00019B4C 00 00 00 00 00 00 00 00 00 00 
       00019B56 00 00 00 00 00 00 00 00 00 00 
       00019B60 00 00 00 00 00 00 00 00 00 00 
       00019B6A 00 00 00 00 00 00 00 00 00 00 
       00019B74 00 00 00 00 00 00 00 00 00 00 
       00019B7E 00 00 00 00 00 00 00 00 00 00 
       00019B88 00 00 00 00 00 00 00 00 00 00 
       00019B92 00 00 00 00 00 00 00 00 00 00 
       00019B9C 00 00 00 00 00 00 00 00 00 00 
       00019BA6 00 00 00 00 00 00 00 00 00 00 
       00019BB0 00 00 00 00 00 00 00 00 00 00 
       00019BBA 00 00 00 00 00 00 00 00 00 00 
       00019BC4 00 00 00 00 00 00 00 00 00 00 
       00019BCE 00 00 00 00 00 00 00 00 00 00 
       00019BD8 00 00 00 00 00 00 00 00 00 00 
       00019BE2 00 00 00 00 00 00 00 00 00 00 
       00019BEC 00 00 00 00 00 00 00 00 00 00 
       00019BF6 00 00 00 00 00 00 00 00 00 00 
       00019C00 00 00 00 00 00 00 00 00 00 00 
       00019C0A 00 00 00 00 00 00 00 00 00 00 
       00019C14 00 00 00 00 00 00 00 00 00 00 
       00019C1E 00 00 00 00 00 00 00 00 00 00 
       00019C28 00 00 00 00 00 00 00 00 00 00 
       00019C32 00 00 00 00 00 00 00 00 00 00 
       00019C3C 00 00 00 00 00 00 00 00 00 00 
       00019C46 00 00 00 00 00 00 00 00 00 00 
       00019C50 00 00 00 00 00 00 00 00 00 00 
       00019C5A 00 00 00 00 00 00 00 00 00 00 
       00019C64 00 00 00 00 00 00 00 00 00 00 
       00019C6E 00 00 00 00 00 00 00 00 00 00 
       00019C78 00 00 00 00 00 00 00 00 00 00 
       00019C82 00 00 00 00 00 00 00 00 00 00 
       00019C8C 00 00 00 00 00 00 00 00 00 00 
       00019C96 00 00 00 00 00 00 00 00 00 00 
       00019CA0 00 00 00 00 00 00 00 00 00 00 
       00019CAA 00 00 00 00 00 00 00 00 00 00 
       00019CB4 00 00 00 00 00 00 00 00 00 00 
       00019CBE 00 00 00 00 00 00 00 00 00 00 
       00019CC8 00 00 00 00 00 00 00 00 00 00 
       00019CD2 00 00 00 00 00 00 00 00 00 00 
       00019CDC 00 00 00 00 00 00 00 00 00 00 
       00019CE6 00 00 00 00 00 00 00 00 00 00 
       00019CF0 00 00 00 00 00 00 00 00 00 00 
       00019CFA 00 00 00 00 00 00 00 00 00 00 
       00019D04 00 00 00 00 00 00 00 00 00 00 
       00019D0E 00 00 00 00 00 00 00 00 00 00 
       00019D18 00 00 00 00 00 00 00 00 00 00 
       00019D22 00 00 00 00 00 00 00 00 00 00 
       00019D2C 00 00 00 00 00 00 00 00 00 00 
       00019D36 00 00 00 00 00 00 00 00 00 00 
       00019D40 00 00 00 00 00 00 00 00 00 00 
       00019D4A 00 00 00 00 00 00 00 00 00 00 
       00019D54 00 00 00 00 00 00 00 00 00 00 
       00019D5E 00 00 00 00 00 00 00 00 00 00 
       00019D68 00 00 00 00 00 00 00 00 00 00 
       00019D72 00 00 00 00 00 00 00 00 00 00 
       00019D7C 00 00 00 00 00 00 00 00 00 00 
       00019D86 00 00 00 00 00 00 00 00 00 00 
       00019D90 00 00 00 00 00 00 00 00 00 00 
       00019D9A 00 00 00 00 00 00 00 00 00 00 
       00019DA4 00 00 00 00 00 00 00 00 00 00 
       00019DAE 00 00 00 00 00 00 00 00 00 00 
       00019DB8 00 00 00 00 00 00 00 00 00 00 
       00019DC2 00 00 00 00 00 00 00 00 00 00 
       00019DCC 00 00 00 00 00 00 00 00 00 00 
       00019DD6 00 00 00 00 00 00 00 00 00 00 
       00019DE0 00 00 00 00 00 00 00 00 00 00 
       00019DEA 00 00 00 00 00 00 00 00 00 00 
       00019DF4 00 00 00 00 00 00 00 00 00 00 
       00019DFE 00 00 00 00 00 00 00 00 00 00 
       00019E08 00 00 00 00 00 00 00 00 00 00 
       00019E12 00 00 00 00 00 00 00 00 00 00 
       00019E1C 00 00 00 00 00 00 00 00 00 00 
       00019E26 00 00 00 00 00 00 00 00 00 00 
       00019E30 00 00 00 00 00 00 00 00 00 00 
       00019E3A 00 00 00 00 00 00 00 00 00 00 
       00019E44 00 00 00 00 00 00 00 00 00 00 
       00019E4E 00 00 00 00 00 00 00 00 00 00 
       00019E58 00 00 00 00 00 00 00 00 00 00 
       00019E62 00 00 00 00 00 00 00 00 00 00 
       00019E6C 00 00 00 00 00 00 00 00 00 00 
       00019E76 00 00 00 00 00 00 00 00 00 00 
       00019E80 00 00 00 00 00 00 00 00 00 00 
       00019E8A 00 00 00 00 00 00 00 00 00 00 
       00019E94 00 00 00 00 00 00 00 00 00 00 
       00019E9E 00 00 00 00 00 00 00 00 00 00 
       00019EA8 00 00 00 00 00 00 00 00 00 00 
       00019EB2 00 00 00 00 00 00 00 00 00 00 
       00019EBC 00 00 00 00 00 00 00 00 00 00 
       00019EC6 00 00 00 00 00 00 00 00 00 00 
       00019ED0 00 00 00 00 00 00 00 00 00 00 
       00019EDA 00 00 00 00 00 00 00 00 00 00 
       00019EE4 00 00 00 00 00 00 00 00 00 00 
       00019EEE 00 00 00 00 00 00 00 00 00 00 
       00019EF8 00 00 00 00 00 00 00 00 00 00 
       00019F02 00 00 00 00 00 00 00 00 00 00 
       00019F0C 00 00 00 00 00 00 00 00 00 00 
       00019F16 00 00 00 00 00 00 00 00 00 00 
       00019F20 00 00 00 00 00 00 00 00 00 00 
       00019F2A 00 00 00 00 00 00 00 00 00 00 
       00019F34 00 00 00 00 00 00 00 00 00 00 
       00019F3E 00 00 00 00 00 00 00 00 00 00 
       00019F48 00 00 00 00 00 00 00 00 00 00 
       00019F52 00 00 00 00 00 00 00 00 00 00 
       00019F5C 00 00 00 00 00 00 00 00 00 00 
       00019F66 00 00 00 00 00 00 00 00 00 00 
       00019F70 00 00 00 00 00 00 00 00 00 00 
       00019F7A 00 00 00 00 00 00 00 00 00 00 
       00019F84 00 00 00 00 00 00 00 00 00 00 
       00019F8E 00 00 00 00 00 00 00 00 00 00 
       00019F98 00 00 00 00 00 00 00 00 00 00 
       00019FA2 00 00 00 00 00 00 00 00 00 00 
       00019FAC 00 00 00 00 00 00 00 00 00 00 
       00019FB6 00 00 00 00 00 00 00 00 00 00 
       00019FC0 00 00 00 00 00 00 00 00 00 00 
       00019FCA 00 00 00 00 00 00 00 00 00 00 
       00019FD4 00 00 00 00 00 00 00 00 00 00 
       00019FDE 00 00 00 00 00 00 00 00 00 00 
       00019FE8 00 00 00 00 00 00 00 00 00 00 
       00019FF2 00 00 00 00 00 00 00 00 00 00 
       00019FFC 00 00 00 00 00 00 00 00 00 00 
       0001A006 00 00 00 00 00 00 00 00 00 00 
       0001A010 00 00 00 00 00 00 00 00 00 00 
       0001A01A 00 00 00 00 00 00 00 00 00 00 
       0001A024 00 00 00 00 00 00 00 00 00 00 
       0001A02E 00 00 00 00 00 00 00 00 00 00 
       0001A038 00 00 00 00 00 00 00 00 00 00 
       0001A042 00 00 00 00 00 00 00 00 00 00 
       0001A04C 00 00 00 00 00 00 00 00 00 00 
       0001A056 00 00 00 00 00 00 00 00 00 00 
       0001A060 00 00 00 00 00 00 00 00 00 00 
       0001A06A 00 00 00 00 00 00 00 00 00 00 
       0001A074 00 00 00 00 00 00 00 00 00 00 
       0001A07E 00 00 00 00 00 00 00 00 00 00 
       0001A088 00 00 00 00 00 00 00 00 00 00 
       0001A092 00 00 00 00 00 00 00 00 00 00 
       0001A09C 00 00 00 00 00 00 00 00 00 00 
       0001A0A6 00 00 00 00 00 00 00 00 00 00 
       0001A0B0 00 00 00 00 00 00 00 00 00 00 
       0001A0BA 00 00 00 00 00 00 00 00 00 00 
       0001A0C4 00 00 00 00 00 00 00 00 00 00 
       0001A0CE 00 00 00 00 00 00 00 00 00 00 
       0001A0D8 00 00 00 00 00 00 00 00 00 00 
       0001A0E2 00 00 00 00 00 00 00 00 00 00 
       0001A0EC 00 00 00 00 00 00 00 00 00 00 
       0001A0F6 00 00 00 00 00 00 00 00 00 00 
       0001A100 00 00 00 00 00 00 00 00 00 00 
       0001A10A 00 00 00 00 00 00 00 00 00 00 
       0001A114 00 00 00 00 00 00 00 00 00 00 
       0001A11E 00 00 00 00 00 00 00 00 00 00 
       0001A128 00 00 00 00 00 00 00 00 00 00 
       0001A132 00 00 00 00 00 00 00 00 00 00 
       0001A13C 00 00 00 00 00 00 00 00 00 00 
       0001A146 00 00 00 00 00 00 00 00 00 00 
       0001A150 00 00 00 00 00 00 00 00 00 00 
       0001A15A 00 00 00 00 00 00 00 00 00 00 
       0001A164 00 00 00 00 00 00 00 00 00 00 
       0001A16E 00 00 00 00 00 00 00 00 00 00 
       0001A178 00 00 00 00 00 00 00 00 00 00 
       0001A182 00 00 00 00 00 00 00 00 00 00 
       0001A18C 00 00 00 00 00 00 00 00 00 00 
       0001A196 00 00 00 00 00 00 00 00 00 00 
       0001A1A0 00 00 00 00 00 00 00 00 00 00 
       0001A1AA 00 00 00 00 00 00 00 00 00 00 
       0001A1B4 00 00 00 00 00 00 00 00 00 00 
       0001A1BE 00 00 00 00 00 00 00 00 00 00 
       0001A1C8 00 00 00 00 00 00 00 00 00 00 
       0001A1D2 00 00 00 00 00 00 00 00 00 00 
       0001A1DC 00 00 00 00 00 00 00 00 00 00 
       0001A1E6 00 00 00 00 00 00 00 00 00 00 
       0001A1F0 00 00 00 00 00 00 00 00 00 00 
       0001A1FA 00 00 00 00 00 00 00 00 00 00 
       0001A204 00 00 00 00 00 00 00 00 00 00 
       0001A20E 00 00 00 00 00 00 00 00 00 00 
       0001A218 00 00 00 00 00 00 00 00 00 00 
       0001A222 00 00 00 00 00 00 00 00 00 00 
       0001A22C 00 00 00 00 00 00 00 00 00 00 
       0001A236 00 00 00 00 00 00 00 00 00 00 
       0001A240 00 00 00 00 00 00 00 00 00 00 
       0001A24A 00 00 00 00 00 00 00 00 00 00 
       0001A254 00 00 00 00 00 00 00 00 00 00 
       0001A25E 00 00 00 00 00 00 00 00 00 00 
       0001A268 00 00 00 00 00 00 00 00 00 00 
       0001A272 00 00 00 00 00 00 00 00 00 00 
       0001A27C 00 00 00 00 00 00 00 00 00 00 
       0001A286 00 00 00 00 00 00 00 00 00 00 
       0001A290 00 00 00 00 00 00 00 00 00 00 
       0001A29A 00 00 00 00 00 00 00 00 00 00 
       0001A2A4 00 00 00 00 00 00 00 00 00 00 
       0001A2AE 00 00 00 00 00 00 00 00 00 00 
       0001A2B8 00 00 00 00 00 00 00 00 00 00 
       0001A2C2 00 00 00 00 00 00 00 00 00 00 
       0001A2CC 00 00 00 00 00 00 00 00 00 00 
       0001A2D6 00 00 00 00 00 00 00 00 00 00 
       0001A2E0 00 00 00 00 00 00 00 00 00 00 
       0001A2EA 00 00 00 00 00 00 00 00 00 00 
       0001A2F4 00 00 00 00 00 00 00 00 00 00 
       0001A2FE 00 00 00 00 00 00 00 00 00 00 
       0001A308 00 00 00 00 00 00 00 00 00 00 
       0001A312 00 00 00 00 00 00 00 00 00 00 
       0001A31C 00 00 00 00 00 00 00 00 00 00 
       0001A326 00 00 00 00 00 00 00 00 00 00 
       0001A330 00 00 00 00 00 00 00 00 00 00 
       0001A33A 00 00 00 00 00 00 00 00 00 00 
       0001A344 00 00 00 00 00 00 00 00 00 00 
       0001A34E 00 00 00 00 00 00 00 00 00 00 
       0001A358 00 00 00 00 00 00 00 00 00 00 
       0001A362 00 00 00 00 00 00 00 00 00 00 
       0001A36C 00 00 00 00 00 00 00 00 00 00 
       0001A376 00 00 00 00 00 00 00 00 00 00 
       0001A380 00 00 00 00 00 00 00 00 00 00 
       0001A38A 00 00 00 00 00 00 00 00 00 00 
       0001A394 00 00 00 00 00 00 00 00 00 00 
       0001A39E 00 00 00 00 00 00 00 00 00 00 
       0001A3A8 00 00 00 00 00 00 00 00 00 00 
       0001A3B2 00 00 00 00 00 00 00 00 00 00 
       0001A3BC 00 00 00 00 00 00 00 00 00 00 
       0001A3C6 00 00 00 00 00 00 00 00 00 00 
       0001A3D0 00 00 00 00 00 00 00 00 00 00 
       0001A3DA 00 00 00 00 00 00 00 00 00 00 
       0001A3E4 00 00 00 00 00 00 00 00 00 00 
       0001A3EE 00 00 00 00 00 00 00 00 00 00 
       0001A3F8 00 00 00 00 00 00 00 00 00 00 
       0001A402 00 00 00 00 00 00 00 00 00 00 
       0001A40C 00 00 00 00 00 00 00 00 00 00 
       0001A416 00 00 00 00 00 00 00 00 00 00 
       0001A420 00 00 00 00 00 00 00 00 00 00 
       0001A42A 00 00 00 00 00 00 00 00 00 00 
       0001A434 00 00 00 00 00 00 00 00 00 00 
       0001A43E 00 00 00 00 00 00 00 00 00 00 
       0001A448 00 00 00 00 00 00 00 00 00 00 
       0001A452 00 00 00 00 00 00 00 00 00 00 
       0001A45C 00 00 00 00 00 00 00 00 00 00 
       0001A466 00 00 00 00 00 00 00 00 00 00 
       0001A470 00 00 00 00 00 00 00 00 00 00 
       0001A47A 00 00 00 00 00 00 00 00 00 00 
       0001A484 00 00 00 00 00 00 00 00 00 00 
       0001A48E 00 00 00 00 00 00 00 00 00 00 
       0001A498 00 00 00 00 00 00 00 00 00 00 
       0001A4A2 00 00 00 00 00 00 00 00 00 00 
       0001A4AC 00 00 00 00 00 00 00 00 00 00 
       0001A4B6 00 00 00 00 00 00 00 00 00 00 
       0001A4C0 00 00 00 00 00 00 00 00 00 00 
       0001A4CA 00 00 00 00 00 00 00 00 00 00 
       0001A4D4 00 00 00 00 00 00 00 00 00 00 
       0001A4DE 00 00 00 00 00 00 00 00 00 00 
       0001A4E8 00 00 00 00 00 00 00 00 00 00 
       0001A4F2 00 00 00 00 00 00 00 00 00 00 
       0001A4FC 00 00 00 00 00 00 00 00 00 00 
       0001A506 00 00 00 00 00 00 00 00 00 00 
       0001A510 00 00 00 00 00 00 00 00 00 00 
       0001A51A 00 00 00 00 00 00 00 00 00 00 
       0001A524 00 00 00 00 00 00 00 00 00 00 
       0001A52E 00 00 00 00 00 00 00 00 00 00 
       0001A538 00 00 00 00 00 00 00 00 00 00 
       0001A542 00 00 00 00 00 00 00 00 00 00 
       0001A54C 00 00 00 00 00 00 00 00 00 00 
       0001A556 00 00 00 00 00 00 00 00 00 00 
       0001A560 00 00 00 00 00 00 00 00 00 00 
       0001A56A 00 00 00 00 00 00 00 00 00 00 
       0001A574 00 00 00 00 00 00 00 00 00 00 
       0001A57E 00 00 00 00 00 00 00 00 00 00 
       0001A588 00 00 00 00 00 00 00 00 00 00 
       0001A592 00 00 00 00 00 00 00 00 00 00 
       0001A59C 00 00 00 00 00 00 00 00 00 00 
       0001A5A6 00 00 00 00 00 00 00 00 00 00 
       0001A5B0 00 00 00 00 00 00 00 00 00 00 
       0001A5BA 00 00 00 00 00 00 00 00 00 00 
       0001A5C4 00 00 00 00 00 00 00 00 00 00 
       0001A5CE 00 00 00 00 00 00 00 00 00 00 
       0001A5D8 00 00 00 00 00 00 00 00 00 00 
       0001A5E2 00 00 00 00 00 00 00 00 00 00 
       0001A5EC 00 00 00 00 00 00 00 00 00 00 
       0001A5F6 00 00 00 00 00 00 00 00 00 00 
       0001A600 00 00 00 00 00 00 00 00 00 00 
       0001A60A 00 00 00 00 00 00 00 00 00 00 
       0001A614 00 00 00 00 00 00 00 00 00 00 
       0001A61E 00 00 00 00 00 00 00 00 00 00 
       0001A628 00 00 00 00 00 00 00 00 00 00 
       0001A632 00 00 00 00 00 00 00 00 00 00 
       0001A63C 00 00 00 00 00 00 00 00 00 00 
       0001A646 00 00 00 00 00 00 00 00 00 00 
       0001A650 00 00 00 00 00 00 00 00 00 00 
       0001A65A 00 00 00 00 00 00 00 00 00 00 
       0001A664 00 00 00 00 00 00 00 00 00 00 
       0001A66E 00 00 00 00 00 00 00 00 00 00 
       0001A678 00 00 00 00 00 00 00 00 00 00 
       0001A682 00 00 00 00 00 00 00 00 00 00 
       0001A68C 00 00 00 00 00 00 00 00 00 00 
       0001A696 00 00 00 00 00 00 00 00 00 00 
       0001A6A0 00 00 00 00 00 00 00 00 00 00 
       0001A6AA 00 00 00 00 00 00 00 00 00 00 
       0001A6B4 00 00 00 00 00 00 00 00 00 00 
       0001A6BE 00 00 00 00 00 00 00 00 00 00 
       0001A6C8 00 00 00 00 00 00 00 00 00 00 
       0001A6D2 00 00 00 00 00 00 00 00 00 00 
       0001A6DC 00 00 00 00 00 00 00 00 00 00 
       0001A6E6 00 00 00 00 00 00 00 00 00 00 
       0001A6F0 00 00 00 00 00 00 00 00 00 00 
       0001A6FA 00 00 00 00 00 00 00 00 00 00 
       0001A704 00 00 00 00 00 00 00 00 00 00 
       0001A70E 00 00 00 00 00 00 00 00 00 00 
       0001A718 00 00 00 00 00 00 00 00 00 00 
       0001A722 00 00 00 00 00 00 00 00 00 00 
       0001A72C 00 00 00 00 00 00 00 00 00 00 
       0001A736 00 00 00 00 00 00 00 00 00 00 
       0001A740 00 00 00 00 00 00 00 00 00 00 
       0001A74A 00 00 00 00 00 00 00 00 00 00 
       0001A754 00 00 00 00 00 00 00 00 00 00 
       0001A75E 00 00 00 00 00 00 00 00 00 00 
       0001A768 00 00 00 00 00 00 00 00 00 00 
       0001A772 00 00 00 00 00 00 00 00 00 00 
       0001A77C 00 00 00 00 00 00 00 00 00 00 
       0001A786 00 00 00 00 00 00 00 00 00 00 
       0001A790 00 00 00 00 00 00 00 00 00 00 
       0001A79A 00 00 00 00 00 00 00 00 00 00 
       0001A7A4 00 00 00 00 00 00 00 00 00 00 
       0001A7AE 00 00 00 00 00 00 00 00 00 00 
       0001A7B8 00 00 00 00 00 00 00 00 00 00 
       0001A7C2 00 00 00 00 00 00 00 00 00 00 
       0001A7CC 00 00 00 00 00 00 00 00 00 00 
       0001A7D6 00 00 00 00 00 00 00 00 00 00 
       0001A7E0 00 00 00 00 00 00 00 00 00 00 
       0001A7EA 00 00 00 00 00 00 00 00 00 00 
       0001A7F4 00 00 00 00 00 00 00 00 00 00 
       0001A7FE 00 00 00 00 00 00 00 00 00 00 
       0001A808 00 00 00 00 00 00 00 00 00 00 
       0001A812 00 00 00 00 00 00 00 00 00 00 
       0001A81C 00 00 00 00 00 00 00 00 00 00 
       0001A826 00 00 00 00 00 00 00 00 00 00 
       0001A830 00 00 00 00 00 00 00 00 00 00 
       0001A83A 00 00 00 00 00 00 00 00 00 00 
       0001A844 00 00 00 00 00 00 00 00 00 00 
       0001A84E 00 00 00 00 00 00 00 00 00 00 
       0001A858 00 00 00 00 00 00 00 00 00 00 
       0001A862 00 00 00 00 00 00 00 00 00 00 
       0001A86C 00 00 00 00 00 00 00 00 00 00 
       0001A876 00 00 00 00 00 00 00 00 00 00 
       0001A880 00 00 00 00 00 00 00 00 00 00 
       0001A88A 00 00 00 00 00 00 00 00 00 00 
       0001A894 00 00 00 00 00 00 00 00 00 00 
       0001A89E 00 00 00 00 00 00 00 00 00 00 
       0001A8A8 00 00 00 00 00 00 00 00 00 00 
       0001A8B2 00 00 00 00 00 00 00 00 00 00 
       0001A8BC 00 00 00 00 00 00 00 00 00 00 
       0001A8C6 00 00 00 00 00 00 00 00 00 00 
       0001A8D0 00 00 00 00 00 00 00 00 00 00 
       0001A8DA 00 00 00 00 00 00 00 00 00 00 
       0001A8E4 00 00 00 00 00 00 00 00 00 00 
       0001A8EE 00 00 00 00 00 00 00 00 00 00 
       0001A8F8 00 00 00 00 00 00 00 00 00 00 
       0001A902 00 00 00 00 00 00 00 00 00 00 
       0001A90C 00 00 00 00 00 00 00 00 00 00 
       0001A916 00 00 00 00 00 00 00 00 00 00 
       0001A920 00 00 00 00 00 00 00 00 00 00 
       0001A92A 00 00 00 00 00 00 00 00 00 00 
       0001A934 00 00 00 00 00 00 00 00 00 00 
       0001A93E 00 00 00 00 00 00 00 00 00 00 
       0001A948 00 00 00 00 00 00 00 00 00 00 
       0001A952 00 00 00 00 00 00 00 00 00 00 
       0001A95C 00 00 00 00 00 00 00 00 00 00 
       0001A966 00 00 00 00 00 00 00 00 00 00 
       0001A970 00 00 00 00 00 00 00 00 00 00 
       0001A97A 00 00 00 00 00 00 00 00 00 00 
       0001A984 00 00 00 00 00 00 00 00 00 00 
       0001A98E 00 00 00 00 00 00 00 00 00 00 
       0001A998 00 00 00 00 00 00 00 00 00 00 
       0001A9A2 00 00 00 00 00 00 00 00 00 00 
       0001A9AC 00 00 00 00 00 00 00 00 00 00 
       0001A9B6 00 00 00 00 00 00 00 00 00 00 
       0001A9C0 00 00 00 00 00 00 00 00 00 00 
       0001A9CA 00 00 00 00 00 00 00 00 00 00 
       0001A9D4 00 00 00 00 00 00 00 00 00 00 
       0001A9DE 00 00 00 00 00 00 00 00 00 00 
       0001A9E8 00 00 00 00 00 00 00 00 00 00 
       0001A9F2 00 00 00 00 00 00 00 00 00 00 
       0001A9FC 00 00 00 00 00 00 00 00 00 00 
       0001AA06 00 00 00 00 00 00 00 00 00 00 
       0001AA10 00 00 00 00 00 00 00 00 00 00 
       0001AA1A 00 00 00 00 00 00 00 00 00 00 
       0001AA24 00 00 00 00 00 00 00 00 00 00 
       0001AA2E 00 00 00 00 00 00 00 00 00 00 
       0001AA38 00 00 00 00 00 00 00 00 00 00 
       0001AA42 00 00 00 00 00 00 00 00 00 00 
       0001AA4C 00 00 00 00 00 00 00 00 00 00 
       0001AA56 00 00 00 00 00 00 00 00 00 00 
       0001AA60 00 00 00 00 00 00 00 00 00 00 
       0001AA6A 00 00 00 00 00 00 00 00 00 00 
       0001AA74 00 00 00 00 00 00 00 00 00 00 
       0001AA7E 00 00 00 00 00 00 00 00 00 00 
       0001AA88 00 00 00 00 00 00 00 00 00 00 
       0001AA92 00 00 00 00 00 00 00 00 00 00 
       0001AA9C 00 00 00 00 00 00 00 00 00 00 
       0001AAA6 00 00 00 00 00 00 00 00 00 00 
       0001AAB0 00 00 00 00 00 00 00 00 00 00 
       0001AABA 00 00 00 00 00 00 00 00 00 00 
       0001AAC4 00 00 00 00 00 00 00 00 00 00 
       0001AACE 00 00 00 00 00 00 00 00 00 00 
       0001AAD8 00 00 00 00 00 00 00 00 00 00 
       0001AAE2 00 00 00 00 00 00 00 00 00 00 
       0001AAEC 00 00 00 00 00 00 00 00 00 00 
       0001AAF6 00 00 00 00 00 00 00 00 00 00 
       0001AB00 00 00 00 00 00 00 00 00 00 00 
       0001AB0A 00 00 00 00 00 00 00 00 00 00 
       0001AB14 00 00 00 00 00 00 00 00 00 00 
       0001AB1E 00 00 00 00 00 00 00 00 00 00 
       0001AB28 00 00 00 00 00 00 00 00 00 00 
       0001AB32 00 00 00 00 00 00 00 00 00 00 
       0001AB3C 00 00 00 00 00 00 00 00 00 00 
       0001AB46 00 00 00 00 00 00 00 00 00 00 
       0001AB50 00 00 00 00 00 00 00 00 00 00 
       0001AB5A 00 00 00 00 00 00 00 00 00 00 
       0001AB64 00 00 00 00 00 00 00 00 00 00 
       0001AB6E 00 00 00 00 00 00 00 00 00 00 
       0001AB78 00 00 00 00 00 00 00 00 00 00 
       0001AB82 00 00 00 00 00 00 00 00 00 00 
       0001AB8C 00 00 00 00 00 00 00 00 00 00 
       0001AB96 00 00 00 00 00 00 00 00 00 00 
       0001ABA0 00 00 00 00 00 00 00 00 00 00 
       0001ABAA 00 00 00 00 00 00 00 00 00 00 
       0001ABB4 00 00 00 00 00 00 00 00 00 00 
       0001ABBE 00 00 00 00 00 00 00 00 00 00 
       0001ABC8 00 00 00 00 00 00 00 00 00 00 
       0001ABD2 00 00 00 00 00 00 00 00 00 00 
       0001ABDC 00 00 00 00 00 00 00 00 00 00 
       0001ABE6 00 00 00 00 00 00 00 00 00 00 
       0001ABF0 00 00 00 00 00 00 00 00 00 00 
       0001ABFA 00 00 00 00 00 00 00 00 00 00 
       0001AC04 00 00 00 00 00 00 00 00 00 00 
       0001AC0E 00 00 00 00 00 00 00 00 00 00 
       0001AC18 00 00 00 00 00 00 00 00 00 00 
       0001AC22 00 00 00 00 00 00 00 00 00 00 
       0001AC2C 00 00 00 00 00 00 00 00 00 00 
       0001AC36 00 00 00 00 00 00 00 00 00 00 
       0001AC40 00 00 00 00 00 00 00 00 00 00 
       0001AC4A 00 00 00 00 00 00 00 00 00 00 
       0001AC54 00 00 00 00 00 00 00 00 00 00 
       0001AC5E 00 00 00 00 00 00 00 00 00 00 
       0001AC68 00 00 00 00 00 00 00 00 00 00 
       0001AC72 00 00 00 00 00 00 00 00 00 00 
       0001AC7C 00 00 00 00 00 00 00 00 00 00 
       0001AC86 00 00 00 00 00 00 00 00 00 00 
       0001AC90 00 00 00 00 00 00 00 00 00 00 
       0001AC9A 00 00 00 00 00 00 00 00 00 00 
       0001ACA4 00 00 00 00 00 00 00 00 00 00 
       0001ACAE 00 00 00 00 00 00 00 00 00 00 
       0001ACB8 00 00 00 00 00 00 00 00 00 00 
       0001ACC2 00 00 00 00 00 00 00 00 00 00 
       0001ACCC 00 00 00 00 00 00 00 00 00 00 
       0001ACD6 00 00 00 00 00 00 00 00 00 00 
       0001ACE0 00 00 00 00 00 00 00 00 00 00 
       0001ACEA 00 00 00 00 00 00 00 00 00 00 
       0001ACF4 00 00 00 00 00 00 00 00 00 00 
       0001ACFE 00 00 00 00 00 00 00 00 00 00 
       0001AD08 00 00 00 00 00 00 00 00 00 00 
       0001AD12 00 00 00 00 00 00 00 00 00 00 
       0001AD1C 00 00 00 00 00 00 00 00 00 00 
       0001AD26 00 00 00 00 00 00 00 00 00 00 
       0001AD30 00 00 00 00 00 00 00 00 00 00 
       0001AD3A 00 00 00 00 00 00 00 00 00 00 
       0001AD44 00 00 00 00 00 00 00 00 00 00 
       0001AD4E 00 00 00 00 00 00 00 00 00 00 
       0001AD58 00 00 00 00 00 00 00 00 00 00 
       0001AD62 00 00 00 00 00 00 00 00 00 00 
       0001AD6C 00 00 00 00 00 00 00 00 00 00 
       0001AD76 00 00 00 00 00 00 00 00 00 00 
       0001AD80 00 00 00 00 00 00 00 00 00 00 
       0001AD8A 00 00 00 00 00 00 00 00 00 00 
       0001AD94 00 00 00 00 00 00 00 00 00 00 
       0001AD9E 00 00 00 00 00 00 00 00 00 00 
       0001ADA8 00 00 00 00 00 00 00 00 00 00 
       0001ADB2 00 00 00 00 00 00 00 00 00 00 
       0001ADBC 00 00 00 00 00 00 00 00 00 00 
       0001ADC6 00 00 00 00 00 00 00 00 00 00 
       0001ADD0 00 00 00 00 00 00 00 00 00 00 
       0001ADDA 00 00 00 00 00 00 00 00 00 00 
       0001ADE4 00 00 00 00 00 00 00 00 00 00 
       0001ADEE 00 00 00 00 00 00 00 00 00 00 
       0001ADF8 00 00 00 00 00 00 00 00 00 00 
       0001AE02 00 00 00 00 00 00 00 00 00 00 
       0001AE0C 00 00 00 00 00 00 00 00 00 00 
       0001AE16 00 00 00 00 00 00 00 00 00 00 
       0001AE20 00 00 00 00 00 00 00 00 00 00 
       0001AE2A 00 00 00 00 00 00 00 00 00 00 
       0001AE34 00 00 00 00 00 00 00 00 00 00 
       0001AE3E 00 00 00 00 00 00 00 00 00 00 
       0001AE48 00 00 00 00 00 00 00 00 00 00 
       0001AE52 00 00 00 00 00 00 00 00 00 00 
       0001AE5C 00 00 00 00 00 00 00 00 00 00 
       0001AE66 00 00 00 00 00 00 00 00 00 00 
       0001AE70 00 00 00 00 00 00 00 00 00 00 
       0001AE7A 00 00 00 00 00 00 00 00 00 00 
       0001AE84 00 00 00 00 00 00 00 00 00 00 
       0001AE8E 00 00 00 00 00 00 00 00 00 00 
       0001AE98 00 00 00 00 00 00 00 00 00 00 
       0001AEA2 00 00 00 00 00 00 00 00 00 00 
       0001AEAC 00 00 00 00 00 00 00 00 00 00 
       0001AEB6 00 00 00 00 00 00 00 00 00 00 
       0001AEC0 00 00 00 00 00 00 00 00 00 00 
       0001AECA 00 00 00 00 00 00 00 00 00 00 
       0001AED4 00 00 00 00 00 00 00 00 00 00 
       0001AEDE 00 00 00 00 00 00 00 00 00 00 
       0001AEE8 00 00 00 00 00 00 00 00 00 00 
       0001AEF2 00 00 00 00 00 00 00 00 00 00 
       0001AEFC 00 00 00 00 00 00 00 00 00 00 
       0001AF06 00 00 00 00 00 00 00 00 00 00 
       0001AF10 00 00 00 00 00 00 00 00 00 00 
       0001AF1A 00 00 00 00 00 00 00 00 00 00 
       0001AF24 00 00 00 00 00 00 00 00 00 00 
       0001AF2E 00 00 00 00 00 00 00 00 00 00 
       0001AF38 00 00 00 00 00 00 00 00 00 00 
       0001AF42 00 00 00 00 00 00 00 00 00 00 
       0001AF4C 00 00 00 00 00 00 00 00 00 00 
       0001AF56 00 00 00 00 00 00 00 00 00 00 
       0001AF60 00 00 00 00 00 00 00 00 00 00 
       0001AF6A 00 00 00 00 00 00 00 00 00 00 
       0001AF74 00 00 00 00 00 00 00 00 00 00 
       0001AF7E 00 00 00 00 00 00 00 00 00 00 
       0001AF88 00 00 00 00 00 00 00 00 00 00 
       0001AF92 00 00 00 00 00 00 00 00 00 00 
       0001AF9C 00 00 00 00 00 00 00 00 00 00 
       0001AFA6 00 00 00 00 00 00 00 00 00 00 
       0001AFB0 00 00 00 00 00 00 00 00 00 00 
       0001AFBA 00 00 00 00 00 00 00 00 00 00 
       0001AFC4 00 00 00 00 00 00 00 00 00 00 
       0001AFCE 00 00 00 00 00 00 00 00 00 00 
       0001AFD8 00 00 00 00 00 00 00 00 00 00 
       0001AFE2 00 00 00 00 00 00 00 00 00 00 
       0001AFEC 00 00 00 00 00 00 00 00 00 00 
       0001AFF6 00 00 00 00 00 00 00 00 00 00 
       0001B000 00 00 00 00 00 00 00 00 00 00 
       0001B00A 00 00 00 00 00 00 00 00 00 00 
       0001B014 00 00 00 00 00 00 00 00 00 00 
       0001B01E 00 00 00 00 00 00 00 00 00 00 
       0001B028 00 00 00 00 00 00 00 00 00 00 
       0001B032 00 00 00 00 00 00 00 00 00 00 
       0001B03C 00 00 00 00 00 00 00 00 00 00 
       0001B046 00 00 00 00 00 00 00 00 00 00 
       0001B050 00 00 00 00 00 00 00 00 00 00 
       0001B05A 00 00 00 00 00 00 00 00 00 00 
       0001B064 00 00 00 00 00 00 00 00 00 00 
       0001B06E 00 00 00 00 00 00 00 00 00 00 
       0001B078 00 00 00 00 00 00 00 00 00 00 
       0001B082 00 00 00 00 00 00 00 00 00 00 
       0001B08C 00 00 00 00 00 00 00 00 00 00 
       0001B096 00 00 00 00 00 00 00 00 00 00 
       0001B0A0 00 00 00 00 00 00 00 00 00 00 
       0001B0AA 00 00 00 00 00 00 00 00 00 00 
       0001B0B4 00 00 00 00 00 00 00 00 00 00 
       0001B0BE 00 00 00 00 00 00 00 00 00 00 
       0001B0C8 00 00 00 00 00 00 00 00 00 00 
       0001B0D2 00 00 00 00 00 00 00 00 00 00 
       0001B0DC 00 00 00 00 00 00 00 00 00 00 
       0001B0E6 00 00 00 00 00 00 00 00 00 00 
       0001B0F0 00 00 00 00 00 00 00 00 00 00 
       0001B0FA 00 00 00 00 00 00 00 00 00 00 
       0001B104 00 00 00 00 00 00 00 00 00 00 
       0001B10E 00 00 00 00 00 00 00 00 00 00 
       0001B118 00 00 00 00 00 00 00 00 00 00 
       0001B122 00 00 00 00 00 00 00 00 00 00 
       0001B12C 00 00 00 00 00 00 00 00 00 00 
       0001B136 00 00 00 00 00 00 00 00 00 00 
       0001B140 00 00 00 00 00 00 00 00 00 00 
       0001B14A 00 00 00 00 00 00 00 00 00 00 
       0001B154 00 00 00 00 00 00 00 00 00 00 
       0001B15E 00 00 00 00 00 00 00 00 00 00 
       0001B168 00 00 00 00 00 00 00 00 00 00 
       0001B172 00 00 00 00 00 00 00 00 00 00 
       0001B17C 00 00 00 00 00 00 00 00 00 00 
       0001B186 00 00 00 00 00 00 00 00 00 00 
       0001B190 00 00 00 00 00 00 00 00 00 00 
       0001B19A 00 00 00 00 00 00 00 00 00 00 
       0001B1A4 00 00 00 00 00 00 00 00 00 00 
       0001B1AE 00 00 00 00 00 00 00 00 00 00 
       0001B1B8 00 00 00 00 00 00 00 00 00 00 
       0001B1C2 00 00 00 00 00 00 00 00 00 00 
       0001B1CC 00 00 00 00 00 00 00 00 00 00 
       0001B1D6 00 00 00 00 00 00 00 00 00 00 
       0001B1E0 00 00 00 00 00 00 00 00 00 00 
       0001B1EA 00 00 00 00 00 00 00 00 00 00 
       0001B1F4 00 00 00 00 00 00 00 00 00 00 
       0001B1FE 00 00 00 00 00 00 00 00 00 00 
       0001B208 00 00 00 00 00 00 00 00 00 00 
       0001B212 00 00 00 00 00 00 00 00 00 00 
       0001B21C 00 00 00 00 00 00 00 00 00 00 
       0001B226 00 00 00 00 00 00 00 00 00 00 
       0001B230 00 00 00 00 00 00 00 00 00 00 
       0001B23A 00 00 00 00 00 00 00 00 00 00 
       0001B244 00 00 00 00 00 00 00 00 00 00 
       0001B24E 00 00 00 00 00 00 00 00 00 00 
       0001B258 00 00 00 00 00 00 00 00 00 00 
       0001B262 00 00 00 00 00 00 00 00 00 00 
       0001B26C 00 00 00 00 00 00 00 00 00 00 
       0001B276 00 00 00 00 00 00 00 00 00 00 
       0001B280 00 00 00 00 00 00 00 00 00 00 
       0001B28A 00 00 00 00 00 00 00 00 00 00 
       0001B294 00 00 00 00 00 00 00 00 00 00 
       0001B29E 00 00 00 00 00 00 00 00 00 00 
       0001B2A8 00 00 00 00 00 00 00 00 00 00 
       0001B2B2 00 00 00 00 00 00 00 00 00 00 
       0001B2BC 00 00 00 00 00 00 00 00 00 00 
       0001B2C6 00 00 00 00 00 00 00 00 00 00 
       0001B2D0 00 00 00 00 00 00 00 00 00 00 
       0001B2DA 00 00 00 00 00 00 00 00 00 00 
       0001B2E4 00 00 00 00 00 00 00 00 00 00 
       0001B2EE 00 00 00 00 00 00 00 00 00 00 
       0001B2F8 00 00 00 00 00 00 00 00 00 00 
       0001B302 00 00 00 00 00 00 00 00 00 00 
       0001B30C 00 00 00 00 00 00 00 00 00 00 
       0001B316 00 00 00 00 00 00 00 00 00 00 
       0001B320 00 00 00 00 00 00 00 00 00 00 
       0001B32A 00 00 00 00 00 00 00 00 00 00 
       0001B334 00 00 00 00 00 00 00 00 00 00 
       0001B33E 00 00 00 00 00 00 00 00 00 00 
       0001B348 00 00 00 00 00 00 00 00 00 00 
       0001B352 00 00 00 00 00 00 00 00 00 00 
       0001B35C 00 00 00 00 00 00 00 00 00 00 
       0001B366 00 00 00 00 00 00 00 00 00 00 
       0001B370 00 00 00 00 00 00 00 00 00 00 
       0001B37A 00 00 00 00 00 00 00 00 00 00 
       0001B384 00 00 00 00 00 00 00 00 00 00 
       0001B38E 00 00 00 00 00 00 00 00 00 00 
       0001B398 00 00 00 00 00 00 00 00 00 00 
       0001B3A2 00 00 00 00 00 00 00 00 00 00 
       0001B3AC 00 00 00 00 00 00 00 00 00 00 
       0001B3B6 00 00 00 00 00 00 00 00 00 00 
       0001B3C0 00 00 00 00 00 00 00 00 00 00 
       0001B3CA 00 00 00 00 00 00 00 00 00 00 
       0001B3D4 00 00 00 00 00 00 00 00 00 00 
       0001B3DE 00 00 00 00 00 00 00 00 00 00 
       0001B3E8 00 00 00 00 00 00 00 00 00 00 
       0001B3F2 00 00 00 00 00 00 00 00 00 00 
       0001B3FC 00 00 00 00 00 00 00 00 00 00 
       0001B406 00 00 00 00 00 00 00 00 00 00 
       0001B410 00 00 00 00 00 00 00 00 00 00 
       0001B41A 00 00 00 00 00 00 00 00 00 00 
       0001B424 00 00 00 00 00 00 00 00 00 00 
       0001B42E 00 00 00 00 00 00 00 00 00 00 
       0001B438 00 00 00 00 00 00 00 00 00 00 
       0001B442 00 00 00 00 00 00 00 00 00 00 
       0001B44C 00 00 00 00 00 00 00 00 00 00 
       0001B456 00 00 00 00 00 00 00 00 00 00 
       0001B460 00 00 00 00 00 00 00 00 00 00 
       0001B46A 00 00 00 00 00 00 00 00 00 00 
       0001B474 00 00 00 00 00 00 00 00 00 00 
       0001B47E 00 00 00 00 00 00 00 00 00 00 
       0001B488 00 00 00 00 00 00 00 00 00 00 
       0001B492 00 00 00 00 00 00 00 00 00 00 
       0001B49C 00 00 00 00 00 00 00 00 00 00 
       0001B4A6 00 00 00 00 00 00 00 00 00 00 
       0001B4B0 00 00 00 00 00 00 00 00 00 00 
       0001B4BA 00 00 00 00 00 00 00 00 00 00 
       0001B4C4 00 00 00 00 00 00 00 00 00 00 
       0001B4CE 00 00 00 00 00 00 00 00 00 00 
       0001B4D8 00 00 00 00 00 00 00 00 00 00 
       0001B4E2 00 00 00 00 00 00 00 00 00 00 
       0001B4EC 00 00 00 00 00 00 00 00 00 00 
       0001B4F6 00 00 00 00 00 00 00 00 00 00 
       0001B500 00 00 00 00 00 00 00 00 00 00 
       0001B50A 00 00 00 00 00 00 00 00 00 00 
       0001B514 00 00 00 00 00 00 00 00 00 00 
       0001B51E 00 00 00 00 00 00 00 00 00 00 
       0001B528 00 00 00 00 00 00 00 00 00 00 
       0001B532 00 00 00 00 00 00 00 00 00 00 
       0001B53C 00 00 00 00 00 00 00 00 00 00 
       0001B546 00 00 00 00 00 00 00 00 00 00 
       0001B550 00 00 00 00 00 00 00 00 00 00 
       0001B55A 00 00 00 00 00 00 00 00 00 00 
       0001B564 00 00 00 00 00 00 00 00 00 00 
       0001B56E 00 00 00 00 00 00 00 00 00 00 
       0001B578 00 00 00 00 00 00 00 00 00 00 
       0001B582 00 00 00 00 00 00 00 00 00 00 
       0001B58C 00 00 00 00 00 00 00 00 00 00 
       0001B596 00 00 00 00 00 00 00 00 00 00 
       0001B5A0 00 00 00 00 00 00 00 00 00 00 
       0001B5AA 00 00 00 00 00 00 00 00 00 00 
       0001B5B4 00 00 00 00 00 00 00 00 00 00 
       0001B5BE 00 00 00 00 00 00 00 00 00 00 
       0001B5C8 00 00 00 00 00 00 00 00 00 00 
       0001B5D2 00 00 00 00 00 00 00 00 00 00 
       0001B5DC 00 00 00 00 00 00 00 00 00 00 
       0001B5E6 00 00 00 00 00 00 00 00 00 00 
       0001B5F0 00 00 00 00 00 00 00 00 00 00 
       0001B5FA 00 00 00 00 00 00 00 00 00 00 
       0001B604 00 00 00 00 00 00 00 00 00 00 
       0001B60E 00 00 00 00 00 00 00 00 00 00 
       0001B618 00 00 00 00 00 00 00 00 00 00 
       0001B622 00 00 00 00 00 00 00 00 00 00 
       0001B62C 00 00 00 00 00 00 00 00 00 00 
       0001B636 00 00 00 00 00 00 00 00 00 00 
       0001B640 00 00 00 00 00 00 00 00 00 00 
       0001B64A 00 00 00 00 00 00 00 00 00 00 
       0001B654 00 00 00 00 00 00 00 00 00 00 
       0001B65E 00 00 00 00 00 00 00 00 00 00 
       0001B668 00 00 00 00 00 00 00 00 00 00 
       0001B672 00 00 00 00 00 00 00 00 00 00 
       0001B67C 00 00 00 00 00 00 00 00 00 00 
       0001B686 00 00 00 00 00 00 00 00 00 00 
       0001B690 00 00 00 00 00 00 00 00 00 00 
       0001B69A 00 00 00 00 00 00 00 00 00 00 
       0001B6A4 00 00 00 00 00 00 00 00 00 00 
       0001B6AE 00 00 00 00 00 00 00 00 00 00 
       0001B6B8 00 00 00 00 00 00 00 00 00 00 
       0001B6C2 00 00 00 00 00 00 00 00 00 00 
       0001B6CC 00 00 00 00 00 00 00 00 00 00 
       0001B6D6 00 00 00 00 00 00 00 00 00 00 
       0001B6E0 00 00 00 00 00 00 00 00 00 00 
       0001B6EA 00 00 00 00 00 00 00 00 00 00 
       0001B6F4 00 00 00 00 00 00 00 00 00 00 
       0001B6FE 00 00 00 00 00 00 00 00 00 00 
       0001B708 00 00 00 00 00 00 00 00 00 00 
       0001B712 00 00 00 00 00 00 00 00 00 00 
       0001B71C 00 00 00 00 00 00 00 00 00 00 
       0001B726 00 00 00 00 00 00 00 00 00 00 
       0001B730 00 00 00 00 00 00 00 00 00 00 
       0001B73A 00 00 00 00 00 00 00 00 00 00 
       0001B744 00 00 00 00 00 00 00 00 00 00 
       0001B74E 00 00 00 00 00 00 00 00 00 00 
       0001B758 00 00 00 00 00 00 00 00 00 00 
       0001B762 00 00 00 00 00 00 00 00 00 00 
       0001B76C 00 00 00 00 00 00 00 00 00 00 
       0001B776 00 00 00 00 00 00 00 00 00 00 
       0001B780 00 00 00 00 00 00 00 00 00 00 
       0001B78A 00 00 00 00 00 00 00 00 00 00 
       0001B794 00 00 00 00 00 00 00 00 00 00 
       0001B79E 00 00 00 00 00 00 00 00 00 00 
       0001B7A8 00 00 00 00 00 00 00 00 00 00 
       0001B7B2 00 00 00 00 00 00 00 00 00 00 
       0001B7BC 00 00 00 00 00 00 00 00 00 00 
       0001B7C6 00 00 00 00 00 00 00 00 00 00 
       0001B7D0 00 00 00 00 00 00 00 00 00 00 
       0001B7DA 00 00 00 00 00 00 00 00 00 00 
       0001B7E4 00 00 00 00 00 00 00 00 00 00 
       0001B7EE 00 00 00 00 00 00 00 00 00 00 
       0001B7F8 00 00 00 00 00 00 00 00 00 00 
       0001B802 00 00 00 00 00 00 00 00 00 00 
       0001B80C 00 00 00 00 00 00 00 00 00 00 
       0001B816 00 00 00 00 00 00 00 00 00 00 
       0001B820 00 00 00 00 00 00 00 00 00 00 
       0001B82A 00 00 00 00 00 00 00 00 00 00 
       0001B834 00 00 00 00 00 00 00 00 00 00 
       0001B83E 00 00 00 00 00 00 00 00 00 00 
       0001B848 00 00 00 00 00 00 00 00 00 00 
       0001B852 00 00 00 00 00 00 00 00 00 00 
       0001B85C 00 00 00 00 00 00 00 00 00 00 
       0001B866 00 00 00 00 00 00 00 00 00 00 
       0001B870 00 00 00 00 00 00 00 00 00 00 
       0001B87A 00 00 00 00 00 00 00 00 00 00 
       0001B884 00 00 00 00 00 00 00 00 00 00 
       0001B88E 00 00 00 00 00 00 00 00 00 00 
       0001B898 00 00 00 00 00 00 00 00 00 00 
       0001B8A2 00 00 00 00 00 00 00 00 00 00 
       0001B8AC 00 00 00 00 00 00 00 00 00 00 
       0001B8B6 00 00 00 00 00 00 00 00 00 00 
       0001B8C0 00 00 00 00 00 00 00 00 00 00 
       0001B8CA 00 00 00 00 00 00 00 00 00 00 
       0001B8D4 00 00 00 00 00 00 00 00 00 00 
       0001B8DE 00 00 00 00 00 00 00 00 00 00 
       0001B8E8 00 00 00 00 00 00 00 00 00 00 
       0001B8F2 00 00 00 00 00 00 00 00 00 00 
       0001B8FC 00 00 00 00 00 00 00 00 00 00 
       0001B906 00 00 00 00 00 00 00 00 00 00 
       0001B910 00 00 00 00 00 00 00 00 00 00 
       0001B91A 00 00 00 00 00 00 00 00 00 00 
       0001B924 00 00 00 00 00 00 00 00 00 00 
       0001B92E 00 00 00 00 00 00 00 00 00 00 
       0001B938 00 00 00 00 00 00 00 00 00 00 
       0001B942 00 00 00 00 00 00 00 00 00 00 
       0001B94C 00 00 00 00 00 00 00 00 00 00 
       0001B956 00 00 00 00 00 00 00 00 00 00 
       0001B960 00 00 00 00 00 00 00 00 00 00 
       0001B96A 00 00 00 00 00 00 00 00 00 00 
       0001B974 00 00 00 00 00 00 00 00 00 00 
       0001B97E 00 00 00 00 00 00 00 00 00 00 
       0001B988 00 00 00 00 00 00 00 00 00 00 
       0001B992 00 00 00 00 00 00 00 00 00 00 
       0001B99C 00 00 00 00 00 00 00 00 00 00 
       0001B9A6 00 00 00 00 00 00 00 00 00 00 
       0001B9B0 00 00 00 00 00 00 00 00 00 00 
       0001B9BA 00 00 00 00 00 00 00 00 00 00 
       0001B9C4 00 00 00 00 00 00 00 00 00 00 
       0001B9CE 00 00 00 00 00 00 00 00 00 00 
       0001B9D8 00 00 00 00 00 00 00 00 00 00 
       0001B9E2 00 00 00 00 00 00 00 00 00 00 
       0001B9EC 00 00 00 00 00 00 00 00 00 00 
       0001B9F6 00 00 00 00 00 00 00 00 00 00 
       0001BA00 00 00 00 00 00 00 00 00 00 00 
       0001BA0A 00 00 00 00 00 00 00 00 00 00 
       0001BA14 00 00 00 00 00 00 00 00 00 00 
       0001BA1E 00 00 00 00 00 00 00 00 00 00 
       0001BA28 00 00 00 00 00 00 00 00 00 00 
       0001BA32 00 00 00 00 00 00 00 00 00 00 
       0001BA3C 00 00 00 00 00 00 00 00 00 00 
       0001BA46 00 00 00 00 00 00 00 00 00 00 
       0001BA50 00 00 00 00 00 00 00 00 00 00 
       0001BA5A 00 00 00 00 00 00 00 00 00 00 
       0001BA64 00 00 00 00 00 00 00 00 00 00 
       0001BA6E 00 00 00 00 00 00 00 00 00 00 
       0001BA78 00 00 00 00 00 00 00 00 00 00 
       0001BA82 00 00 00 00 00 00 00 00 00 00 
       0001BA8C 00 00 00 00 00 00 00 00 00 00 
       0001BA96 00 00 00 00 00 00 00 00 00 00 
       0001BAA0 00 00 00 00 00 00 00 00 00 00 
       0001BAAA 00 00 00 00 00 00 00 00 00 00 
       0001BAB4 00 00 00 00 00 00 00 00 00 00 
       0001BABE 00 00 00 00 00 00 00 00 00 00 
       0001BAC8 00 00 00 00 00 00 00 00 00 00 
       0001BAD2 00 00 00 00 00 00 00 00 00 00 
       0001BADC 00 00 00 00 00 00 00 00 00 00 
       0001BAE6 00 00 00 00 00 00 00 00 00 00 
       0001BAF0 00 00 00 00 00 00 00 00 00 00 
       0001BAFA 00 00 00 00 00 00 00 00 00 00 
       0001BB04 00 00 00 00 00 00 00 00 00 00 
       0001BB0E 00 00 00 00 00 00 00 00 00 00 
       0001BB18 00 00 00 00 00 00 00 00 00 00 
       0001BB22 00 00 00 00 00 00 00 00 00 00 
       0001BB2C 00 00 00 00 00 00 00 00 00 00 
       0001BB36 00 00 00 00 00 00 00 00 00 00 
       0001BB40 00 00 00 00 00 00 00 00 00 00 
       0001BB4A 00 00 00 00 00 00 00 00 00 00 
       0001BB54 00 00 00 00 00 00 00 00 00 00 
       0001BB5E 00 00 00 00 00 00 00 00 00 00 
       0001BB68 00 00 00 00 00 00 00 00 00 00 
       0001BB72 00 00 00 00 00 00 00 00 00 00 
       0001BB7C 00 00 00 00 00 00 00 00 00 00 
       0001BB86 00 00 00 00 00 00 00 00 00 00 
       0001BB90 00 00 00 00 00 00 00 00 00 00 
       0001BB9A 00 00 00 00 00 00 00 00 00 00 
       0001BBA4 00 00 00 00 00 00 00 00 00 00 
       0001BBAE 00 00 00 00 00 00 00 00 00 00 
       0001BBB8 00 00 00 00 00 00 00 00 00 00 
       0001BBC2 00 00 00 00 00 00 00 00 00 00 
       0001BBCC 00 00 00 00 00 00 00 00 00 00 
       0001BBD6 00 00 00 00 00 00 00 00 00 00 
       0001BBE0 00 00 00 00 00 00 00 00 00 00 
       0001BBEA 00 00 00 00 00 00 00 00 00 00 
       0001BBF4 00 00 00 00 00 00 00 00 00 00 
       0001BBFE 00 00 00 00 00 00 00 00 00 00 
       0001BC08 00 00 00 00 00 00 00 00 00 00 
       0001BC12 00 00 00 00 00 00 00 00 00 00 
       0001BC1C 00 00 00 00 00 00 00 00 00 00 
       0001BC26 00 00 00 00 00 00 00 00 00 00 
       0001BC30 00 00 00 00 00 00 00 00 00 00 
       0001BC3A 00 00 00 00 00 00 00 00 00 00 
       0001BC44 00 00 00 00 00 00 00 00 00 00 
       0001BC4E 00 00 00 00 00 00 00 00 00 00 
       0001BC58 00 00 00 00 00 00 00 00 00 00 
       0001BC62 00 00 00 00 00 00 00 00 00 00 
       0001BC6C 00 00 00 00 00 00 00 00 00 00 
       0001BC76 00 00 00 00 00 00 00 00 00 00 
       0001BC80 00 00 00 00 00 00 00 00 00 00 
       0001BC8A 00 00 00 00 00 00 00 00 00 00 
       0001BC94 00 00 00 00 00 00 00 00 00 00 
       0001BC9E 00 00 00 00 00 00 00 00 00 00 
       0001BCA8 00 00 00 00 00 00 00 00 00 00 
       0001BCB2 00 00 00 00 00 00 00 00 00 00 
       0001BCBC 00 00 00 00 00 00 00 00 00 00 
       0001BCC6 00 00 00 00 00 00 00 00 00 00 
       0001BCD0 00 00 00 00 00 00 00 00 00 00 
       0001BCDA 00 00 00 00 00 00 00 00 00 00 
       0001BCE4 00 00 00 00 00 00 00 00 00 00 
       0001BCEE 00 00 00 00 00 00 00 00 00 00 
       0001BCF8 00 00 00 00 00 00 00 00 00 00 
       0001BD02 00 00 00 00 00 00 00 00 00 00 
       0001BD0C 00 00 00 00 00 00 00 00 00 00 
       0001BD16 00 00 00 00 00 00 00 00 00 00 
       0001BD20 00 00 00 00 00 00 00 00 00 00 
       0001BD2A 00 00 00 00 00 00 00 00 00 00 
       0001BD34 00 00 00 00 00 00 00 00 00 00 
       0001BD3E 00 00 00 00 00 00 00 00 00 00 
       0001BD48 00 00 00 00 00 00 00 00 00 00 
       0001BD52 00 00 00 00 00 00 00 00 00 00 
       0001BD5C 00 00 00 00 00 00 00 00 00 00 
       0001BD66 00 00 00 00 00 00 00 00 00 00 
       0001BD70 00 00 00 00 00 00 00 00 00 00 
       0001BD7A 00 00 00 00 00 00 00 00 00 00 
       0001BD84 00 00 00 00 00 00 00 00 00 00 
       0001BD8E 00 00 00 00 00 00 00 00 00 00 
       0001BD98 00 00 00 00 00 00 00 00 00 00 
       0001BDA2 00 00 00 00 00 00 00 00 00 00 
       0001BDAC 00 00 00 00 00 00 00 00 00 00 
       0001BDB6 00 00 00 00 00 00 00 00 00 00 
       0001BDC0 00 00 00 00 00 00 00 00 00 00 
       0001BDCA 00 00 00 00 00 00 00 00 00 00 
       0001BDD4 00 00 00 00 00 00 00 00 00 00 
       0001BDDE 00 00 00 00 00 00 00 00 00 00 
       0001BDE8 00 00 00 00 00 00 00 00 00 00 
       0001BDF2 00 00 00 00 00 00 00 00 00 00 
       0001BDFC 00 00 00 00 00 00 00 00 00 00 
       0001BE06 00 00 00 00 00 00 00 00 00 00 
       0001BE10 00 00 00 00 00 00 00 00 00 00 
       0001BE1A 00 00 00 00 00 00 00 00 00 00 
       0001BE24 00 00 00 00 00 00 00 00 00 00 
       0001BE2E 00 00 00 00 00 00 00 00 00 00 
       0001BE38 00 00 00 00 00 00 00 00 00 00 
       0001BE42 00 00 00 00 00 00 00 00 00 00 
       0001BE4C 00 00 00 00 00 00 00 00 00 00 
       0001BE56 00 00 00 00 00 00 00 00 00 00 
       0001BE60 00 00 00 00 00 00 00 00 00 00 
       0001BE6A 00 00 00 00 00 00 00 00 00 00 
       0001BE74 00 00 00 00 00 00 00 00 00 00 
       0001BE7E 00 00 00 00 00 00 00 00 00 00 
       0001BE88 00 00 00 00 00 00 00 00 00 00 
       0001BE92 00 00 00 00 00 00 00 00 00 00 
       0001BE9C 00 00 00 00 00 00 00 00 00 00 
       0001BEA6 00 00 00 00 00 00 00 00 00 00 
       0001BEB0 00 00 00 00 00 00 00 00 00 00 
       0001BEBA 00 00 00 00 00 00 00 00 00 00 
       0001BEC4 00 00 00 00 00 00 00 00 00 00 
       0001BECE 00 00 00 00 00 00 00 00 00 00 
       0001BED8 00 00 00 00 00 00 00 00 00 00 
       0001BEE2 00 00 00 00 00 00 00 00 00 00 
       0001BEEC 00 00 00 00 00 00 00 00 00 00 
       0001BEF6 00 00 00 00 00 00 00 00 00 00 
       0001BF00 00 00 00 00 00 00 00 00 00 00 
       0001BF0A 00 00 00 00 00 00 00 00 00 00 
       0001BF14 00 00 00 00 00 00 00 00 00 00 
       0001BF1E 00 00 00 00 00 00 00 00 00 00 
       0001BF28 00 00 00 00 00 00 00 00 00 00 
       0001BF32 00 00 00 00 00 00 00 00 00 00 
       0001BF3C 00 00 00 00 00 00 00 00 00 00 
       0001BF46 00 00 00 00 00 00 00 00 00 00 
       0001BF50 00 00 00 00 00 00 00 00 00 00 
       0001BF5A 00 00 00 00 00 00 00 00 00 00 
       0001BF64 00 00 00 00 00 00 00 00 00 00 
       0001BF6E 00 00 00 00 00 00 00 00 00 00 
       0001BF78 00 00 00 00 00 00 00 00 00 00 
       0001BF82 00 00 00 00 00 00 00 00 00 00 
       0001BF8C 00 00 00 00 00 00 00 00 00 00 
       0001BF96 00 00 00 00 00 00 00 00 00 00 
       0001BFA0 00 00 00 00 00 00 00 00 00 00 
       0001BFAA 00 00 00 00 00 00 00 00 00 00 
       0001BFB4 00 00 00 00 00 00 00 00 00 00 
       0001BFBE 00 00 00 00 00 00 00 00 00 00 
       0001BFC8 00 00 00 00 00 00 00 00 00 00 
       0001BFD2 00 00 00 00 00 00 00 00 00 00 
       0001BFDC 00 00 00 00 00 00 00 00 00 00 
       0001BFE6 00 00 00 00 00 00 00 00 00 00 
       0001BFF0 00 00 00 00 00 00 00 00 00 00 
       0001BFFA 00 00 00 00 00 00 00 00 00 00 
       0001C004 00 00 00 00 00 00 00 00 00 00 
       0001C00E 00 00 00 00 00 00 00 00 00 00 
       0001C018 00 00 00 00 00 00 00 00 00 00 
       0001C022 00 00 00 00 00 00 00 00 00 00 
       0001C02C 00 00 00 00 00 00 00 00 00 00 
       0001C036 00 00 00 00 00 00 00 00 00 00 
       0001C040 00 00 00 00 00 00 00 00 00 00 
       0001C04A 00 00 00 00 00 00 00 00 00 00 
       0001C054 00 00 00 00 00 00 00 00 00 00 
       0001C05E 00 00 00 00 00 00 00 00 00 00 
       0001C068 00 00 00 00 00 00 00 00 00 00 
       0001C072 00 00 00 00 00 00 00 00 00 00 
       0001C07C 00 00 00 00 00 00 00 00 00 00 
       0001C086 00 00 00 00 00 00 00 00 00 00 
       0001C090 00 00 00 00 00 00 00 00 00 00 
       0001C09A 00 00 00 00 00 00 00 00 00 00 
       0001C0A4 00 00 00 00 00 00 00 00 00 00 
       0001C0AE 00 00 00 00 00 00 00 00 00 00 
       0001C0B8 00 00 00 00 00 00 00 00 00 00 
       0001C0C2 00 00 00 00 00 00 00 00 00 00 
       0001C0CC 00 00 00 00 00 00 00 00 00 00 
       0001C0D6 00 00 00 00 00 00 00 00 00 00 
       0001C0E0 00 00 00 00 00 00 00 00 00 00 
       0001C0EA 00 00 00 00 00 00 00 00 00 00 
       0001C0F4 00 00 00 00 00 00 00 00 00 00 
       0001C0FE 00 00 00 00 00 00 00 00 00 00 
       0001C108 00 00 00 00 00 00 00 00 00 00 
       0001C112 00 00 00 00 00 00 00 00 00 00 
       0001C11C 00 00 00 00 00 00 00 00 00 00 
       0001C126 00 00 00 00 00 00 00 00 00 00 
       0001C130 00 00 00 00 00 00 00 00 00 00 
       0001C13A 00 00 00 00 00 00 00 00 00 00 
       0001C144 00 00 00 00 00 00 00 00 00 00 
       0001C14E 00 00 00 00 00 00 00 00 00 00 
       0001C158 00 00 00 00 00 00 00 00 00 00 
       0001C162 00 00 00 00 00 00 00 00 00 00 
       0001C16C 00 00 00 00 00 00 00 00 00 00 
       0001C176 00 00 00 00 00 00 00 00 00 00 
       0001C180 00 00 00 00 00 00 00 00 00 00 
       0001C18A 00 00 00 00 00 00 00 00 00 00 
       0001C194 00 00 00 00 00 00 00 00 00 00 
       0001C19E 00 00 00 00 00 00 00 00 00 00 
       0001C1A8 00 00 00 00 00 00 00 00 00 00 
       0001C1B2 00 00 00 00 00 00 00 00 00 00 
       0001C1BC 00 00 00 00 00 00 00 00 00 00 
       0001C1C6 00 00 00 00 00 00 00 00 00 00 
       0001C1D0 00 00 00 00 00 00 00 00 00 00 
       0001C1DA 00 00 00 00 00 00 00 00 00 00 
       0001C1E4 00 00 00 00 00 00 00 00 00 00 
       0001C1EE 00 00 00 00 00 00 00 00 00 00 
       0001C1F8 00 00 00 00 00 00 00 00 00 00 
       0001C202 00 00 00 00 00 00 00 00 00 00 
       0001C20C 00 00 00 00 00 00 00 00 00 00 
       0001C216 00 00 00 00 00 00 00 00 00 00 
       0001C220 00 00 00 00 00 00 00 00 00 00 
       0001C22A 00 00 00 00 00 00 00 00 00 00 
       0001C234 00 00 00 00 00 00 00 00 00 00 
       0001C23E 00 00 00 00 00 00 00 00 00 00 
       0001C248 00 00 00 00 00 00 00 00 00 00 
       0001C252 00 00 00 00 00 00 00 00 00 00 
       0001C25C 00 00 00 00 00 00 00 00 00 00 
       0001C266 00 00 00 00 00 00 00 00 00 00 
       0001C270 00 00 00 00 00 00 00 00 00 00 
       0001C27A 00 00 00 00 00 00 00 00 00 00 
       0001C284 00 00 00 00 00 00 00 00 00 00 
       0001C28E 00 00 00 00 00 00 00 00 00 00 
       0001C298 00 00 00 00 00 00 00 00 00 00 
       0001C2A2 00 00 00 00 00 00 00 00 00 00 
       0001C2AC 00 00 00 00 00 00 00 00 00 00 
       0001C2B6 00 00 00 00 00 00 00 00 00 00 
       0001C2C0 00 00 00 00 00 00 00 00 00 00 
       0001C2CA 00 00 00 00 00 00 00 00 00 00 
       0001C2D4 00 00 00 00 00 00 00 00 00 00 
       0001C2DE 00 00 00 00 00 00 00 00 00 00 
       0001C2E8 00 00 00 00 00 00 00 00 00 00 
       0001C2F2 00 00 00 00 00 00 00 00 00 00 
       0001C2FC 00 00 00 00 00 00 00 00 00 00 
       0001C306 00 00 00 00 00 00 00 00 00 00 
       0001C310 00 00 00 00 00 00 00 00 00 00 
       0001C31A 00 00 00 00 00 00 00 00 00 00 
       0001C324 00 00 00 00 00 00 00 00 00 00 
       0001C32E 00 00 00 00 00 00 00 00 00 00 
       0001C338 00 00 00 00 00 00 00 00 00 00 
       0001C342 00 00 00 00 00 00 00 00 00 00 
       0001C34C 00 00 00 00 00 00 00 00 00 00 
       0001C356 00 00 00 00 00 00 00 00 00 00 
       0001C360 00 00 00 00 00 00 00 00 00 00 
       0001C36A 00 00 00 00 00 00 00 00 00 00 
       0001C374 00 00 00 00 00 00 00 00 00 00 
       0001C37E 00 00 00 00 00 00 00 00 00 00 
       0001C388 00 00 00 00 00 00 00 00 00 00 
       0001C392 00 00 00 00 00 00 00 00 00 00 
       0001C39C 00 00 00 00 00 00 00 00 00 00 
       0001C3A6 00 00 00 00 00 00 00 00 00 00 
       0001C3B0 00 00 00 00 00 00 00 00 00 00 
       0001C3BA 00 00 00 00 00 00 00 00 00 00 
       0001C3C4 00 00 00 00 00 00 00 00 00 00 
       0001C3CE 00 00 00 00 00 00 00 00 00 00 
       0001C3D8 00 00 00 00 00 00 00 00 00 00 
       0001C3E2 00 00 00 00 00 00 00 00 00 00 
       0001C3EC 00 00 00 00 00 00 00 00 00 00 
       0001C3F6 00 00 00 00 00 00 00 00 00 00 
       0001C400 00 00 00 00 00 00 00 00 00 00 
       0001C40A 00 00 00 00 00 00 00 00 00 00 
       0001C414 00 00 00 00 00 00 00 00 00 00 
       0001C41E 00 00 00 00 00 00 00 00 00 00 
       0001C428 00 00 00 00 00 00 00 00 00 00 
       0001C432 00 00 00 00 00 00 00 00 00 00 
       0001C43C 00 00 00 00 00 00 00 00 00 00 
       0001C446 00 00 00 00 00 00 00 00 00 00 
       0001C450 00 00 00 00 00 00 00 00 00 00 
       0001C45A 00 00 00 00 00 00 00 00 00 00 
       0001C464 00 00 00 00 00 00 00 00 00 00 
       0001C46E 00 00 00 00 00 00 00 00 00 00 
       0001C478 00 00 00 00 00 00 00 00 00 00 
       0001C482 00 00 00 00 00 00 00 00 00 00 
       0001C48C 00 00 00 00 00 00 00 00 00 00 
       0001C496 00 00 00 00 00 00 00 00 00 00 
       0001C4A0 00 00 00 00 00 00 00 00 00 00 
       0001C4AA 00 00 00 00 00 00 00 00 00 00 
       0001C4B4 00 00 00 00 00 00 00 00 00 00 
       0001C4BE 00 00 00 00 00 00 00 00 00 00 
       0001C4C8 00 00 00 00 00 00 00 00 00 00 
       0001C4D2 00 00 00 00 00 00 00 00 00 00 
       0001C4DC 00 00 00 00 00 00 00 00 00 00 
       0001C4E6 00 00 00 00 00 00 00 00 00 00 
       0001C4F0 00 00 00 00 00 00 00 00 00 00 
       0001C4FA 00 00 00 00 00 00 00 00 00 00 
       0001C504 00 00 00 00 00 00 00 00 00 00 
       0001C50E 00 00 00 00 00 00 00 00 00 00 
       0001C518 00 00 00 00 00 00 00 00 00 00 
       0001C522 00 00 00 00 00 00 00 00 00 00 
       0001C52C 00 00 00 00 00 00 00 00 00 00 
       0001C536 00 00 00 00 00 00 00 00 00 00 
       0001C540 00 00 00 00 00 00 00 00 00 00 
       0001C54A 00 00 00 00 00 00 00 00 00 00 
       0001C554 00 00 00 00 00 00 00 00 00 00 
       0001C55E 00 00 00 00 00 00 00 00 00 00 
       0001C568 00 00 00 00 00 00 00 00 00 00 
       0001C572 00 00 00 00 00 00 00 00 00 00 
       0001C57C 00 00 00 00 00 00 00 00 00 00 
       0001C586 00 00 00 00 00 00 00 00 00 00 
       0001C590 00 00 00 00 00 00 00 00 00 00 
       0001C59A 00 00 00 00 00 00 00 00 00 00 
       0001C5A4 00 00 00 00 00 00 00 00 00 00 
       0001C5AE 00 00 00 00 00 00 00 00 00 00 
       0001C5B8 00 00 00 00 00 00 00 00 00 00 
       0001C5C2 00 00 00 00 00 00 00 00 00 00 
       0001C5CC 00 00 00 00 00 00 00 00 00 00 
       0001C5D6 00 00 00 00 00 00 00 00 00 00 
       0001C5E0 00 00 00 00 00 00 00 00 00 00 
       0001C5EA 00 00 00 00 00 00 00 00 00 00 
       0001C5F4 00 00 00 00 00 00 00 00 00 00 
       0001C5FE 00 00 00 00 00 00 00 00 00 00 
       0001C608 00 00 00 00 00 00 00 00 00 00 
       0001C612 00 00 00 00 00 00 00 00 00 00 
       0001C61C 00 00 00 00 00 00 00 00 00 00 
       0001C626 00 00 00 00 00 00 00 00 00 00 
       0001C630 00 00 00 00 00 00 00 00 00 00 
       0001C63A 00 00 00 00 00 00 00 00 00 00 
       0001C644 00 00 00 00 00 00 00 00 00 00 
       0001C64E 00 00 00 00 00 00 00 00 00 00 
       0001C658 00 00 00 00 00 00 00 00 00 00 
       0001C662 00 00 00 00 00 00 00 00 00 00 
       0001C66C 00 00 00 00 00 00 00 00 00 00 
       0001C676 00 00 00 00 00 00 00 00 00 00 
       0001C680 00 00 00 00 00 00 00 00 00 00 
       0001C68A 00 00 00 00 00 00 00 00 00 00 
       0001C694 00 00 00 00 00 00 00 00 00 00 
       0001C69E 00 00 00 00 00 00 00 00 00 00 
       0001C6A8 00 00 00 00 00 00 00 00 00 00 
       0001C6B2 00 00 00 00 00 00 00 00 00 00 
       0001C6BC 00 00 00 00 00 00 00 00 00 00 
       0001C6C6 00 00 00 00 00 00 00 00 00 00 
       0001C6D0 00 00 00 00 00 00 00 00 00 00 
       0001C6DA 00 00 00 00 00 00 00 00 00 00 
       0001C6E4 00 00 00 00 00 00 00 00 00 00 
       0001C6EE 00 00 00 00 00 00 00 00 00 00 
       0001C6F8 00 00 00 00 00 00 00 00 00 00 
       0001C702 00 00 00 00 00 00 00 00 00 00 
       0001C70C 00 00 00 00 00 00 00 00 00 00 
       0001C716 00 00 00 00 00 00 00 00 00 00 
       0001C720 00 00 00 00 00 00 00 00 00 00 
       0001C72A 00 00 00 00 00 00 00 00 00 00 
       0001C734 00 00 00 00 00 00 00 00 00 00 
       0001C73E 00 00 00 00 00 00 00 00 00 00 
       0001C748 00 00 00 00 00 00 00 00 00 00 
       0001C752 00 00 00 00 00 00 00 00 00 00 
       0001C75C 00 00 00 00 00 00 00 00 00 00 
       0001C766 00 00 00 00 00 00 00 00 00 00 
       0001C770 00 00 00 00 00 00 00 00 00 00 
       0001C77A 00 00 00 00 00 00 00 00 00 00 
       0001C784 00 00 00 00 00 00 00 00 00 00 
       0001C78E 00 00 00 00 00 00 00 00 00 00 
       0001C798 00 00 00 00 00 00 00 00 00 00 
       0001C7A2 00 00 00 00 00 00 00 00 00 00 
       0001C7AC 00 00 00 00 00 00 00 00 00 00 
       0001C7B6 00 00 00 00 00 00 00 00 00 00 
       0001C7C0 00 00 00 00 00 00 00 00 00 00 
       0001C7CA 00 00 00 00 00 00 00 00 00 00 
       0001C7D4 00 00 00 00 00 00 00 00 00 00 
       0001C7DE 00 00 00 00 00 00 00 00 00 00 
       0001C7E8 00 00 00 00 00 00 00 00 00 00 
       0001C7F2 00 00 00 00 00 00 00 00 00 00 
       0001C7FC 00 00 00 00 00 00 00 00 00 00 
       0001C806 00 00 00 00 00 00 00 00 00 00 
       0001C810 00 00 00 00 00 00 00 00 00 00 
       0001C81A 00 00 00 00 00 00 00 00 00 00 
       0001C824 00 00 00 00 00 00 00 00 00 00 
       0001C82E 00 00 00 00 00 00 00 00 00 00 
       0001C838 00 00 00 00 00 00 00 00 00 00 
       0001C842 00 00 00 00 00 00 00 00 00 00 
       0001C84C 00 00 00 00 00 00 00 00 00 00 
       0001C856 00 00 00 00 00 00 00 00 00 00 
       0001C860 00 00 00 00 00 00 00 00 00 00 
       0001C86A 00 00 00 00 00 00 00 00 00 00 
       0001C874 00 00 00 00 00 00 00 00 00 00 
       0001C87E 00 00 00 00 00 00 00 00 00 00 
       0001C888 00 00 00 00 00 00 00 00 00 00 
       0001C892 00 00 00 00 00 00 00 00 00 00 
       0001C89C 00 00 00 00 00 00 00 00 00 00 
       0001C8A6 00 00 00 00 00 00 00 00 00 00 
       0001C8B0 00 00 00 00 00 00 00 00 00 00 
       0001C8BA 00 00 00 00 00 00 00 00 00 00 
       0001C8C4 00 00 00 00 00 00 00 00 00 00 
       0001C8CE 00 00 00 00 00 00 00 00 00 00 
       0001C8D8 00 00 00 00 00 00 00 00 00 00 
       0001C8E2 00 00 00 00 00 00 00 00 00 00 
       0001C8EC 00 00 00 00 00 00 00 00 00 00 
       0001C8F6 00 00 00 00 00 00 00 00 00 00 
       0001C900 00 00 00 00 00 00 00 00 00 00 
       0001C90A 00 00 00 00 00 00 00 00 00 00 
       0001C914 00 00 00 00 00 00 00 00 00 00 
       0001C91E 00 00 00 00 00 00 00 00 00 00 
       0001C928 00 00 00 00 00 00 00 00 00 00 
       0001C932 00 00 00 00 00 00 00 00 00 00 
       0001C93C 00 00 00 00 00 00 00 00 00 00 
       0001C946 00 00 00 00 00 00 00 00 00 00 
       0001C950 00 00 00 00 00 00 00 00 00 00 
       0001C95A 00 00 00 00 00 00 00 00 00 00 
       0001C964 00 00 00 00 00 00 00 00 00 00 
       0001C96E 00 00 00 00 00 00 00 00 00 00 
       0001C978 00 00 00 00 00 00 00 00 00 00 
       0001C982 00 00 00 00 00 00 00 00 00 00 
       0001C98C 00 00 00 00 00 00 00 00 00 00 
       0001C996 00 00 00 00 00 00 00 00 00 00 
       0001C9A0 00 00 00 00 00 00 00 00 00 00 
       0001C9AA 00 00 00 00 00 00 00 00 00 00 
       0001C9B4 00 00 00 00 00 00 00 00 00 00 
       0001C9BE 00 00 00 00 00 00 00 00 00 00 
       0001C9C8 00 00 00 00 00 00 00 00 00 00 
       0001C9D2 00 00 00 00 00 00 00 00 00 00 
       0001C9DC 00 00 00 00 00 00 00 00 00 00 
       0001C9E6 00 00 00 00 00 00 00 00 00 00 
       0001C9F0 00 00 00 00 00 00 00 00 00 00 
       0001C9FA 00 00 00 00 00 00 00 00 00 00 
       0001CA04 00 00 00 00 00 00 00 00 00 00 
       0001CA0E 00 00 00 00 00 00 00 00 00 00 
       0001CA18 00 00 00 00 00 00 00 00 00 00 
       0001CA22 00 00 00 00 00 00 00 00 00 00 
       0001CA2C 00 00 00 00 00 00 00 00 00 00 
       0001CA36 00 00 00 00 00 00 00 00 00 00 
       0001CA40 00 00 00 00 00 00 00 00 00 00 
       0001CA4A 00 00 00 00 00 00 00 00 00 00 
       0001CA54 00 00 00 00 00 00 00 00 00 00 
       0001CA5E 00 00 00 00 00 00 00 00 00 00 
       0001CA68 00 00 00 00 00 00 00 00 00 00 
       0001CA72 00 00 00 00 00 00 00 00 00 00 
       0001CA7C 00 00 00 00 00 00 00 00 00 00 
       0001CA86 00 00 00 00 00 00 00 00 00 00 
       0001CA90 00 00 00 00 00 00 00 00 00 00 
       0001CA9A 00 00 00 00 00 00 00 00 00 00 
       0001CAA4 00 00 00 00 00 00 00 00 00 00 
       0001CAAE 00 00 00 00 00 00 00 00 00 00 
       0001CAB8 00 00 00 00 00 00 00 00 00 00 
       0001CAC2 00 00 00 00 00 00 00 00 00 00 
       0001CACC 00 00 00 00 00 00 00 00 00 00 
       0001CAD6 00 00 00 00 00 00 00 00 00 00 
       0001CAE0 00 00 00 00 00 00 00 00 00 00 
       0001CAEA 00 00 00 00 00 00 00 00 00 00 
       0001CAF4 00 00 00 00 00 00 00 00 00 00 
       0001CAFE 00 00 00 00 00 00 00 00 00 00 
       0001CB08 00 00 00 00 00 00 00 00 00 00 
       0001CB12 00 00 00 00 00 00 00 00 00 00 
       0001CB1C 00 00 00 00 00 00 00 00 00 00 
       0001CB26 00 00 00 00 00 00 00 00 00 00 
       0001CB30 00 00 00 00 00 00 00 00 00 00 
       0001CB3A 00 00 00 00 00 00 00 00 00 00 
       0001CB44 00 00 00 00 00 00 00 00 00 00 
       0001CB4E 00 00 00 00 00 00 00 00 00 00 
       0001CB58 00 00 00 00 00 00 00 00 00 00 
       0001CB62 00 00 00 00 00 00 00 00 00 00 
       0001CB6C 00 00 00 00 00 00 00 00 00 00 
       0001CB76 00 00 00 00 00 00 00 00 00 00 
       0001CB80 00 00 00 00 00 00 00 00 00 00 
       0001CB8A 00 00 00 00 00 00 00 00 00 00 
       0001CB94 00 00 00 00 00 00 00 00 00 00 
       0001CB9E 00 00 00 00 00 00 00 00 00 00 
       0001CBA8 00 00 00 00 00 00 00 00 00 00 
       0001CBB2 00 00 00 00 00 00 00 00 00 00 
       0001CBBC 00 00 00 00 00 00 00 00 00 00 
       0001CBC6 00 00 00 00 00 00 00 00 00 00 
       0001CBD0 00 00 00 00 00 00 00 00 00 00 
       0001CBDA 00 00 00 00 00 00 00 00 00 00 
       0001CBE4 00 00 00 00 00 00 00 00 00 00 
       0001CBEE 00 00 00 00 00 00 00 00 00 00 
       0001CBF8 00 00 00 00 00 00 00 00 00 00 
       0001CC02 00 00 00 00 00 00 00 00 00 00 
       0001CC0C 00 00 00 00 00 00 00 00 00 00 
       0001CC16 00 00 00 00 00 00 00 00 00 00 
       0001CC20 00 00 00 00 00 00 00 00 00 00 
       0001CC2A 00 00 00 00 00 00 00 00 00 00 
       0001CC34 00 00 00 00 00 00 00 00 00 00 
       0001CC3E 00 00 00 00 00 00 00 00 00 00 
       0001CC48 00 00 00 00 00 00 00 00 00 00 
       0001CC52 00 00 00 00 00 00 00 00 00 00 
       0001CC5C 00 00 00 00 00 00 00 00 00 00 
       0001CC66 00 00 00 00 00 00 00 00 00 00 
       0001CC70 00 00 00 00 00 00 00 00 00 00 
       0001CC7A 00 00 00 00 00 00 00 00 00 00 
       0001CC84 00 00 00 00 00 00 00 00 00 00 
       0001CC8E 00 00 00 00 00 00 00 00 00 00 
       0001CC98 00 00 00 00 00 00 00 00 00 00 
       0001CCA2 00 00 00 00 00 00 00 00 00 00 
       0001CCAC 00 00 00 00 00 00 00 00 00 00 
       0001CCB6 00 00 00 00 00 00 00 00 00 00 
       0001CCC0 00 00 00 00 00 00 00 00 00 00 
       0001CCCA 00 00 00 00 00 00 00 00 00 00 
       0001CCD4 00 00 00 00 00 00 00 00 00 00 
       0001CCDE 00 00 00 00 00 00 00 00 00 00 
       0001CCE8 00 00 00 00 00 00 00 00 00 00 
       0001CCF2 00 00 00 00 00 00 00 00 00 00 
       0001CCFC 00 00 00 00 00 00 00 00 00 00 
       0001CD06 00 00 00 00 00 00 00 00 00 00 
       0001CD10 00 00 00 00 00 00 00 00 00 00 
       0001CD1A 00 00 00 00 00 00 00 00 00 00 
       0001CD24 00 00 00 00 00 00 00 00 00 00 
       0001CD2E 00 00 00 00 00 00 00 00 00 00 
       0001CD38 00 00 00 00 00 00 00 00 00 00 
       0001CD42 00 00 00 00 00 00 00 00 00 00 
       0001CD4C 00 00 00 00 00 00 00 00 00 00 
       0001CD56 00 00 00 00 00 00 00 00 00 00 
       0001CD60 00 00 00 00 00 00 00 00 00 00 
       0001CD6A 00 00 00 00 00 00 00 00 00 00 
       0001CD74 00 00 00 00 00 00 00 00 00 00 
       0001CD7E 00 00 00 00 00 00 00 00 00 00 
       0001CD88 00 00 00 00 00 00 00 00 00 00 
       0001CD92 00 00 00 00 00 00 00 00 00 00 
       0001CD9C 00 00 00 00 00 00 00 00 00 00 
       0001CDA6 00 00 00 00 00 00 00 00 00 00 
       0001CDB0 00 00 00 00 00 00 00 00 00 00 
       0001CDBA 00 00 00 00 00 00 00 00 00 00 
       0001CDC4 00 00 00 00 00 00 00 00 00 00 
       0001CDCE 00 00 00 00 00 00 00 00 00 00 
       0001CDD8 00 00 00 00 00 00 00 00 00 00 
       0001CDE2 00 00 00 00 00 00 00 00 00 00 
       0001CDEC 00 00 00 00 00 00 00 00 00 00 
       0001CDF6 00 00 00 00 00 00 00 00 00 00 
       0001CE00 00 00 00 00 00 00 00 00 00 00 
       0001CE0A 00 00 00 00 00 00 00 00 00 00 
       0001CE14 00 00 00 00 00 00 00 00 00 00 
       0001CE1E 00 00 00 00 00 00 00 00 00 00 
       0001CE28 00 00 00 00 00 00 00 00 00 00 
       0001CE32 00 00 00 00 00 00 00 00 00 00 
       0001CE3C 00 00 00 00 00 00 00 00 00 00 
       0001CE46 00 00 00 00 00 00 00 00 00 00 
       0001CE50 00 00 00 00 00 00 00 00 00 00 
       0001CE5A 00 00 00 00 00 00 00 00 00 00 
       0001CE64 00 00 00 00 00 00 00 00 00 00 
       0001CE6E 00 00 00 00 00 00 00 00 00 00 
       0001CE78 00 00 00 00 00 00 00 00 00 00 
       0001CE82 00 00 00 00 00 00 00 00 00 00 
       0001CE8C 00 00 00 00 00 00 00 00 00 00 
       0001CE96 00 00 00 00 00 00 00 00 00 00 
       0001CEA0 00 00 00 00 00 00 00 00 00 00 
       0001CEAA 00 00 00 00 00 00 00 00 00 00 
       0001CEB4 00 00 00 00 00 00 00 00 00 00 
       0001CEBE 00 00 00 00 00 00 00 00 00 00 
       0001CEC8 00 00 00 00 00 00 00 00 00 00 
       0001CED2 00 00 00 00 00 00 00 00 00 00 
       0001CEDC 00 00 00 00 00 00 00 00 00 00 
       0001CEE6 00 00 00 00 00 00 00 00 00 00 
       0001CEF0 00 00 00 00 00 00 00 00 00 00 
       0001CEFA 00 00 00 00 00 00 00 00 00 00 
       0001CF04 00 00 00 00 00 00 00 00 00 00 
       0001CF0E 00 00 00 00 00 00 00 00 00 00 
       0001CF18 00 00 00 00 00 00 00 00 00 00 
       0001CF22 00 00 00 00 00 00 00 00 00 00 
       0001CF2C 00 00 00 00 00 00 00 00 00 00 
       0001CF36 00 00 00 00 00 00 00 00 00 00 
       0001CF40 00 00 00 00 00 00 00 00 00 00 
       0001CF4A 00 00 00 00 00 00 00 00 00 00 
       0001CF54 00 00 00 00 00 00 00 00 00 00 
       0001CF5E 00 00 00 00 00 00 00 00 00 00 
       0001CF68 00 00 00 00 00 00 00 00 00 00 
       0001CF72 00 00 00 00 00 00 00 00 00 00 
       0001CF7C 00 00 00 00 00 00 00 00 00 00 
       0001CF86 00 00 00 00 00 00 00 00 00 00 
       0001CF90 00 00 00 00 00 00 00 00 00 00 
       0001CF9A 00 00 00 00 00 00 00 00 00 00 
       0001CFA4 00 00 00 00 00 00 00 00 00 00 
       0001CFAE 00 00 00 00 00 00 00 00 00 00 
       0001CFB8 00 00 00 00 00 00 00 00 00 00 
       0001CFC2 00 00 00 00 00 00 00 00 00 00 
       0001CFCC 00 00 00 00 00 00 00 00 00 00 
       0001CFD6 00 00 00 00 00 00 00 00 00 00 
       0001CFE0 00 00 00 00 00 00 00 00 00 00 
       0001CFEA 00 00 00 00 00 00 00 00 00 00 
       0001CFF4 00 00 00 00 00 00 00 00 00 00 
       0001CFFE 00 00 00 00 00 00 00 00 00 00 
       0001D008 00 00 00 00 00 00 00 00 00 00 
       0001D012 00 00 00 00 00 00 00 00 00 00 
       0001D01C 00 00 00 00 00 00 00 00 00 00 
       0001D026 00 00 00 00 00 00 00 00 00 00 
       0001D030 00 00 00 00 00 00 00 00 00 00 
       0001D03A 00 00 00 00 00 00 00 00 00 00 
       0001D044 00 00 00 00 00 00 00 00 00 00 
       0001D04E 00 00 00 00 00 00 00 00 00 00 
       0001D058 00 00 00 00 00 00 00 00 00 00 
       0001D062 00 00 00 00 00 00 00 00 00 00 
       0001D06C 00 00 00 00 00 00 00 00 00 00 
       0001D076 00 00 00 00 00 00 00 00 00 00 
       0001D080 00 00 00 00 00 00 00 00 00 00 
       0001D08A 00 00 00 00 00 00 00 00 00 00 
       0001D094 00 00 00 00 00 00 00 00 00 00 
       0001D09E 00 00 00 00 00 00 00 00 00 00 
       0001D0A8 00 00 00 00 00 00 00 00 00 00 
       0001D0B2 00 00 00 00 00 00 00 00 00 00 
       0001D0BC 00 00 00 00 00 00 00 00 00 00 
       0001D0C6 00 00 00 00 00 00 00 00 00 00 
       0001D0D0 00 00 00 00 00 00 00 00 00 00 
       0001D0DA 00 00 00 00 00 00 00 00 00 00 
       0001D0E4 00 00 00 00 00 00 00 00 00 00 
       0001D0EE 00 00 00 00 00 00 00 00 00 00 
       0001D0F8 00 00 00 00 00 00 00 00 00 00 
       0001D102 00 00 00 00 00 00 00 00 00 00 
       0001D10C 00 00 00 00 00 00 00 00 00 00 
       0001D116 00 00 00 00 00 00 00 00 00 00 
       0001D120 00 00 00 00 00 00 00 00 00 00 
       0001D12A 00 00 00 00 00 00 00 00 00 00 
       0001D134 00 00 00 00 00 00 00 00 00 00 
       0001D13E 00 00 00 00 00 00 00 00 00 00 
       0001D148 00 00 00 00 00 00 00 00 00 00 
       0001D152 00 00 00 00 00 00 00 00 00 00 
       0001D15C 00 00 00 00 00 00 00 00 00 00 
       0001D166 00 00 00 00 00 00 00 00 00 00 
       0001D170 00 00 00 00 00 00 00 00 00 00 
       0001D17A 00 00 00 00 00 00 00 00 00 00 
       0001D184 00 00 00 00 00 00 00 00 00 00 
       0001D18E 00 00 00 00 00 00 00 00 00 00 
       0001D198 00 00 00 00 00 00 00 00 00 00 
       0001D1A2 00 00 00 00 00 00 00 00 00 00 
       0001D1AC 00 00 00 00 00 00 00 00 00 00 
       0001D1B6 00 00 00 00 00 00 00 00 00 00 
       0001D1C0 00 00 00 00 00 00 00 00 00 00 
       0001D1CA 00 00 00 00 00 00 00 00 00 00 
       0001D1D4 00 00 00 00 00 00 00 00 00 00 
       0001D1DE 00 00 00 00 00 00 00 00 00 00 
       0001D1E8 00 00 00 00 00 00 00 00 00 00 
       0001D1F2 00 00 00 00 00 00 00 00 00 00 
       0001D1FC 00 00 00 00 00 00 00 00 00 00 
       0001D206 00 00 00 00 00 00 00 00 00 00 
       0001D210 00 00 00 00 00 00 00 00 00 00 
       0001D21A 00 00 00 00 00 00 00 00 00 00 
       0001D224 00 00 00 00 00 00 00 00 00 00 
       0001D22E 00 00 00 00 00 00 00 00 00 00 
       0001D238 00 00 00 00 00 00 00 00 00 00 
       0001D242 00 00 00 00 00 00 00 00 00 00 
       0001D24C 00 00 00 00 00 00 00 00 00 00 
       0001D256 00 00 00 00 00 00 00 00 00 00 
       0001D260 00 00 00 00 00 00 00 00 00 00 
       0001D26A 00 00 00 00 00 00 00 00 00 00 
       0001D274 00 00 00 00 00 00 00 00 00 00 
       0001D27E 00 00 00 00 00 00 00 00 00 00 
       0001D288 00 00 00 00 00 00 00 00 00 00 
       0001D292 00 00 00 00 00 00 00 00 00 00 
       0001D29C 00 00 00 00 00 00 00 00 00 00 
       0001D2A6 00 00 00 00 00 00 00 00 00 00 
       0001D2B0 00 00 00 00 00 00 00 00 00 00 
       0001D2BA 00 00 00 00 00 00 00 00 00 00 
       0001D2C4 00 00 00 00 00 00 00 00 00 00 
       0001D2CE 00 00 00 00 00 00 00 00 00 00 
       0001D2D8 00 00 00 00 00 00 00 00 00 00 
       0001D2E2 00 00 00 00 00 00 00 00 00 00 
       0001D2EC 00 00 00 00 00 00 00 00 00 00 
       0001D2F6 00 00 00 00 00 00 00 00 00 00 
       0001D300 00 00 00 00 00 00 00 00 00 00 
       0001D30A 00 00 00 00 00 00 00 00 00 00 
       0001D314 00 00 00 00 00 00 00 00 00 00 
       0001D31E 00 00 00 00 00 00 00 00 00 00 
       0001D328 00 00 00 00 00 00 00 00 00 00 
       0001D332 00 00 00 00 00 00 00 00 00 00 
       0001D33C 00 00 00 00 00 00 00 00 00 00 
       0001D346 00 00 00 00 00 00 00 00 00 00 
       0001D350 00 00 00 00 00 00 00 00 00 00 
       0001D35A 00 00 00 00 00 00 00 00 00 00 
       0001D364 00 00 00 00 00 00 00 00 00 00 
       0001D36E 00 00 00 00 00 00 00 00 00 00 
       0001D378 00 00 00 00 00 00 00 00 00 00 
       0001D382 00 00 00 00 00 00 00 00 00 00 
       0001D38C 00 00 00 00 00 00 00 00 00 00 
       0001D396 00 00 00 00 00 00 00 00 00 00 
       0001D3A0 00 00 00 00 00 00 00 00 00 00 
       0001D3AA 00 00 00 00 00 00 00 00 00 00 
       0001D3B4 00 00 00 00 00 00 00 00 00 00 
       0001D3BE 00 00 00 00 00 00 00 00 00 00 
       0001D3C8 00 00 00 00 00 00 00 00 00 00 
       0001D3D2 00 00 00 00 00 00 00 00 00 00 
       0001D3DC 00 00 00 00 00 00 00 00 00 00 
       0001D3E6 00 00 00 00 00 00 00 00 00 00 
       0001D3F0 00 00 00 00 00 00 00 00 00 00 
       0001D3FA 00 00 00 00 00 00 00 00 00 00 
       0001D404 00 00 00 00 00 00 00 00 00 00 
       0001D40E 00 00 00 00 00 00 00 00 00 00 
       0001D418 00 00 00 00 00 00 00 00 00 00 
       0001D422 00 00 00 00 00 00 00 00 00 00 
       0001D42C 00 00 00 00 00 00 00 00 00 00 
       0001D436 00 00 00 00 00 00 00 00 00 00 
       0001D440 00 00 00 00 00 00 00 00 00 00 
       0001D44A 00 00 00 00 00 00 00 00 00 00 
       0001D454 00 00 00 00 00 00 00 00 00 00 
       0001D45E 00 00 00 00 00 00 00 00 00 00 
       0001D468 00 00 00 00 00 00 00 00 00 00 
       0001D472 00 00 00 00 00 00 00 00 00 00 
       0001D47C 00 00 00 00 00 00 00 00 00 00 
       0001D486 00 00 00 00 00 00 00 00 00 00 
       0001D490 00 00 00 00 00 00 00 00 00 00 
       0001D49A 00 00 00 00 00 00 00 00 00 00 
       0001D4A4 00 00 00 00 00 00 00 00 00 00 
       0001D4AE 00 00 00 00 00 00 00 00 00 00 
       0001D4B8 00 00 00 00 00 00 00 00 00 00 
       0001D4C2 00 00 00 00 00 00 00 00 00 00 
       0001D4CC 00 00 00 00 00 00 00 00 00 00 
       0001D4D6 00 00 00 00 00 00 00 00 00 00 
       0001D4E0 00 00 00 00 00 00 00 00 00 00 
       0001D4EA 00 00 00 00 00 00 00 00 00 00 
       0001D4F4 00 00 00 00 00 00 00 00 00 00 
       0001D4FE 00 00 00 00 00 00 00 00 00 00 
       0001D508 00 00 00 00 00 00 00 00 00 00 
       0001D512 00 00 00 00 00 00 00 00 00 00 
       0001D51C 00 00 00 00 00 00 00 00 00 00 
       0001D526 00 00 00 00 00 00 00 00 00 00 
       0001D530 00 00 00 00 00 00 00 00 00 00 
       0001D53A 00 00 00 00 00 00 00 00 00 00 
       0001D544 00 00 00 00 00 00 00 00 00 00 
       0001D54E 00 00 00 00 00 00 00 00 00 00 
       0001D558 00 00 00 00 00 00 00 00 00 00 
       0001D562 00 00 00 00 00 00 00 00 00 00 
       0001D56C 00 00 00 00 00 00 00 00 00 00 
       0001D576 00 00 00 00 00 00 00 00 00 00 
       0001D580 00 00 00 00 00 00 00 00 00 00 
       0001D58A 00 00 00 00 00 00 00 00 00 00 
       0001D594 00 00 00 00 00 00 00 00 00 00 
       0001D59E 00 00 00 00 00 00 00 00 00 00 
       0001D5A8 00 00 00 00 00 00 00 00 00 00 
       0001D5B2 00 00 00 00 00 00 00 00 00 00 
       0001D5BC 00 00 00 00 00 00 00 00 00 00 
       0001D5C6 00 00 00 00 00 00 00 00 00 00 
       0001D5D0 00 00 00 00 00 00 00 00 00 00 
       0001D5DA 00 00 00 00 00 00 00 00 00 00 
       0001D5E4 00 00 00 00 00 00 00 00 00 00 
       0001D5EE 00 00 00 00 00 00 00 00 00 00 
       0001D5F8 00 00 00 00 00 00 00 00 00 00 
       0001D602 00 00 00 00 00 00 00 00 00 00 
       0001D60C 00 00 00 00 00 00 00 00 00 00 
       0001D616 00 00 00 00 00 00 00 00 00 00 
       0001D620 00 00 00 00 00 00 00 00 00 00 
       0001D62A 00 00 00 00 00 00 00 00 00 00 
       0001D634 00 00 00 00 00 00 00 00 00 00 
       0001D63E 00 00 00 00 00 00 00 00 00 00 
       0001D648 00 00 00 00 00 00 00 00 00 00 
       0001D652 00 00 00 00 00 00 00 00 00 00 
       0001D65C 00 00 00 00 00 00 00 00 00 00 
       0001D666 00 00 00 00 00 00 00 00 00 00 
       0001D670 00 00 00 00 00 00 00 00 00 00 
       0001D67A 00 00 00 00 00 00 00 00 00 00 
       0001D684 00 00 00 00 00 00 00 00 00 00 
       0001D68E 00 00 00 00 00 00 00 00 00 00 
       0001D698 00 00 00 00 00 00 00 00 00 00 
       0001D6A2 00 00 00 00 00 00 00 00 00 00 
       0001D6AC 00 00 00 00 00 00 00 00 00 00 
       0001D6B6 00 00 00 00 00 00 00 00 00 00 
       0001D6C0 00 00 00 00 00 00 00 00 00 00 
       0001D6CA 00 00 00 00 00 00 00 00 00 00 
       0001D6D4 00 00 00 00 00 00 00 00 00 00 
       0001D6DE 00 00 00 00 00 00 00 00 00 00 
       0001D6E8 00 00 00 00 00 00 00 00 00 00 
       0001D6F2 00 00 00 00 00 00 00 00 00 00 
       0001D6FC 00 00 00 00 00 00 00 00 00 00 
       0001D706 00 00 00 00 00 00 00 00 00 00 
       0001D710 00 00 00 00 00 00 00 00 00 00 
       0001D71A 00 00 00 00 00 00 00 00 00 00 
       0001D724 00 00 00 00 00 00 00 00 00 00 
       0001D72E 00 00 00 00 00 00 00 00 00 00 
       0001D738 00 00 00 00 00 00 00 00 00 00 
       0001D742 00 00 00 00 00 00 00 00 00 00 
       0001D74C 00 00 00 00 00 00 00 00 00 00 
       0001D756 00 00 00 00 00 00 00 00 00 00 
       0001D760 00 00 00 00 00 00 00 00 00 00 
       0001D76A 00 00 00 00 00 00 00 00 00 00 
       0001D774 00 00 00 00 00 00 00 00 00 00 
       0001D77E 00 00 00 00 00 00 00 00 00 00 
       0001D788 00 00 00 00 00 00 00 00 00 00 
       0001D792 00 00 00 00 00 00 00 00 00 00 
       0001D79C 00 00 00 00 00 00 00 00 00 00 
       0001D7A6 00 00 00 00 00 00 00 00 00 00 
       0001D7B0 00 00 00 00 00 00 00 00 00 00 
       0001D7BA 00 00 00 00 00 00 00 00 00 00 
       0001D7C4 00 00 00 00 00 00 00 00 00 00 
       0001D7CE 00 00 00 00 00 00 00 00 00 00 
       0001D7D8 00 00 00 00 00 00 00 00 00 00 
       0001D7E2 00 00 00 00 00 00 00 00 00 00 
       0001D7EC 00 00 00 00 00 00 00 00 00 00 
       0001D7F6 00 00 00 00 00 00 00 00 00 00 
       0001D800 00 00 00 00 00 00 00 00 00 00 
       0001D80A 00 00 00 00 00 00 00 00 00 00 
       0001D814 00 00 00 00 00 00 00 00 00 00 
       0001D81E 00 00 00 00 00 00 00 00 00 00 
       0001D828 00 00 00 00 00 00 00 00 00 00 
       0001D832 00 00 00 00 00 00 00 00 00 00 
       0001D83C 00 00 00 00 00 00 00 00 00 00 
       0001D846 00 00 00 00 00 00 00 00 00 00 
       0001D850 00 00 00 00 00 00 00 00 00 00 
       0001D85A 00 00 00 00 00 00 00 00 00 00 
       0001D864 00 00 00 00 00 00 00 00 00 00 
       0001D86E 00 00 00 00 00 00 00 00 00 00 
       0001D878 00 00 00 00 00 00 00 00 00 00 
       0001D882 00 00 00 00 00 00 00 00 00 00 
       0001D88C 00 00 00 00 00 00 00 00 00 00 
       0001D896 00 00 00 00 00 00 00 00 00 00 
       0001D8A0 00 00 00 00 00 00 00 00 00 00 
       0001D8AA 00 00 00 00 00 00 00 00 00 00 
       0001D8B4 00 00 00 00 00 00 00 00 00 00 
       0001D8BE 00 00 00 00 00 00 00 00 00 00 
       0001D8C8 00 00 00 00 00 00 00 00 00 00 
       0001D8D2 00 00 00 00 00 00 00 00 00 00 
       0001D8DC 00 00 00 00 00 00 00 00 00 00 
       0001D8E6 00 00 00 00 00 00 00 00 00 00 
       0001D8F0 00 00 00 00 00 00 00 00 00 00 
       0001D8FA 00 00 00 00 00 00 00 00 00 00 
       0001D904 00 00 00 00 00 00 00 00 00 00 
       0001D90E 00 00 00 00 00 00 00 00 00 00 
       0001D918 00 00 00 00 00 00 00 00 00 00 
       0001D922 00 00 00 00 00 00 00 00 00 00 
       0001D92C 00 00 00 00 00 00 00 00 00 00 
       0001D936 00 00 00 00 00 00 00 00 00 00 
       0001D940 00 00 00 00 00 00 00 00 00 00 
       0001D94A 00 00 00 00 00 00 00 00 00 00 
       0001D954 00 00 00 00 00 00 00 00 00 00 
       0001D95E 00 00 00 00 00 00 00 00 00 00 
       0001D968 00 00 00 00 00 00 00 00 00 00 
       0001D972 00 00 00 00 00 00 00 00 00 00 
       0001D97C 00 00 00 00 00 00 00 00 00 00 
       0001D986 00 00 00 00 00 00 00 00 00 00 
       0001D990 00 00 00 00 00 00 00 00 00 00 
       0001D99A 00 00 00 00 00 00 00 00 00 00 
       0001D9A4 00 00 00 00 00 00 00 00 00 00 
       0001D9AE 00 00 00 00 00 00 00 00 00 00 
       0001D9B8 00 00 00 00 00 00 00 00 00 00 
       0001D9C2 00 00 00 00 00 00 00 00 00 00 
       0001D9CC 00 00 00 00 00 00 00 00 00 00 
       0001D9D6 00 00 00 00 00 00 00 00 00 00 
       0001D9E0 00 00 00 00 00 00 00 00 00 00 
       0001D9EA 00 00 00 00 00 00 00 00 00 00 
       0001D9F4 00 00 00 00 00 00 00 00 00 00 
       0001D9FE 00 00 00 00 00 00 00 00 00 00 
       0001DA08 00 00 00 00 00 00 00 00 00 00 
       0001DA12 00 00 00 00 00 00 00 00 00 00 
       0001DA1C 00 00 00 00 00 00 00 00 00 00 
       0001DA26 00 00 00 00 00 00 00 00 00 00 
       0001DA30 00 00 00 00 00 00 00 00 00 00 
       0001DA3A 00 00 00 00 00 00 00 00 00 00 
       0001DA44 00 00 00 00 00 00 00 00 00 00 
       0001DA4E 00 00 00 00 00 00 00 00 00 00 
       0001DA58 00 00 00 00 00 00 00 00 00 00 
       0001DA62 00 00 00 00 00 00 00 00 00 00 
       0001DA6C 00 00 00 00 00 00 00 00 00 00 
       0001DA76 00 00 00 00 00 00 00 00 00 00 
       0001DA80 00 00 00 00 00 00 00 00 00 00 
       0001DA8A 00 00 00 00 00 00 00 00 00 00 
       0001DA94 00 00 00 00 00 00 00 00 00 00 
       0001DA9E 00 00 00 00 00 00 00 00 00 00 
       0001DAA8 00 00 00 00 00 00 00 00 00 00 
       0001DAB2 00 00 00 00 00 00 00 00 00 00 
       0001DABC 00 00 00 00 00 00 00 00 00 00 
       0001DAC6 00 00 00 00 00 00 00 00 00 00 
       0001DAD0 00 00 00 00 00 00 00 00 00 00 
       0001DADA 00 00 00 00 00 00 00 00 00 00 
       0001DAE4 00 00 00 00 00 00 00 00 00 00 
       0001DAEE 00 00 00 00 00 00 00 00 00 00 
       0001DAF8 00 00 00 00 00 00 00 00 00 00 
       0001DB02 00 00 00 00 00 00 00 00 00 00 
       0001DB0C 00 00 00 00 00 00 00 00 00 00 
       0001DB16 00 00 00 00 00 00 00 00 00 00 
       0001DB20 00 00 00 00 00 00 00 00 00 00 
       0001DB2A 00 00 00 00 00 00 00 00 00 00 
       0001DB34 00 00 00 00 00 00 00 00 00 00 
       0001DB3E 00 00 00 00 00 00 00 00 00 00 
       0001DB48 00 00 00 00 00 00 00 00 00 00 
       0001DB52 00 00 00 00 00 00 00 00 00 00 
       0001DB5C 00 00 00 00 00 00 00 00 00 00 
       0001DB66 00 00 00 00 00 00 00 00 00 00 
       0001DB70 00 00 00 00 00 00 00 00 00 00 
       0001DB7A 00 00 00 00 00 00 00 00 00 00 
       0001DB84 00 00 00 00 00 00 00 00 00 00 
       0001DB8E 00 00 00 00 00 00 00 00 00 00 
       0001DB98 00 00 00 00 00 00 00 00 00 00 
       0001DBA2 00 00 00 00 00 00 00 00 00 00 
       0001DBAC 00 00 00 00 00 00 00 00 00 00 
       0001DBB6 00 00 00 00 00 00 00 00 00 00 
       0001DBC0 00 00 00 00 00 00 00 00 00 00 
       0001DBCA 00 00 00 00 00 00 00 00 00 00 
       0001DBD4 00 00 00 00 00 00 00 00 00 00 
       0001DBDE 00 00 00 00 00 00 00 00 00 00 
       0001DBE8 00 00 00 00 00 00 00 00 00 00 
       0001DBF2 00 00 00 00 00 00 00 00 00 00 
       0001DBFC 00 00 00 00 00 00 00 00 00 00 
       0001DC06 00 00 00 00 00 00 00 00 00 00 
       0001DC10 00 00 00 00 00 00 00 00 00 00 
       0001DC1A 00 00 00 00 00 00 00 00 00 00 
       0001DC24 00 00 00 00 00 00 00 00 00 00 
       0001DC2E 00 00 00 00 00 00 00 00 00 00 
       0001DC38 00 00 00 00 00 00 00 00 00 00 
       0001DC42 00 00 00 00 00 00 00 00 00 00 
       0001DC4C 00 00 00 00 00 00 00 00 00 00 
       0001DC56 00 00 00 00 00 00 00 00 00 00 
       0001DC60 00 00 00 00 00 00 00 00 00 00 
       0001DC6A 00 00 00 00 00 00 00 00 00 00 
       0001DC74 00 00 00 00 00 00 00 00 00 00 
       0001DC7E 00 00 00 00 00 00 00 00 00 00 
       0001DC88 00 00 00 00 00 00 00 00 00 00 
       0001DC92 00 00 00 00 00 00 00 00 00 00 
       0001DC9C 00 00 00 00 00 00 00 00 00 00 
       0001DCA6 00 00 00 00 00 00 00 00 00 00 
       0001DCB0 00 00 00 00 00 00 00 00 00 00 
       0001DCBA 00 00 00 00 00 00 00 00 00 00 
       0001DCC4 00 00 00 00 00 00 00 00 00 00 
       0001DCCE 00 00 00 00 00 00 00 00 00 00 
       0001DCD8 00 00 00 00 00 00 00 00 00 00 
       0001DCE2 00 00 00 00 00 00 00 00 00 00 
       0001DCEC 00 00 00 00 00 00 00 00 00 00 
       0001DCF6 00 00 00 00 00 00 00 00 00 00 
       0001DD00 00 00 00 00 00 00 00 00 00 00 
       0001DD0A 00 00 00 00 00 00 00 00 00 00 
       0001DD14 00 00 00 00 00 00 00 00 00 00 
       0001DD1E 00 00 00 00 00 00 00 00 00 00 
       0001DD28 00 00 00 00 00 00 00 00 00 00 
       0001DD32 00 00 00 00 00 00 00 00 00 00 
       0001DD3C 00 00 00 00 00 00 00 00 00 00 
       0001DD46 00 00 00 00 00 00 00 00 00 00 
       0001DD50 00 00 00 00 00 00 00 00 00 00 
       0001DD5A 00 00 00 00 00 00 00 00 00 00 
       0001DD64 00 00 00 00 00 00 00 00 00 00 
       0001DD6E 00 00 00 00 00 00 00 00 00 00 
       0001DD78 00 00 00 00 00 00 00 00 00 00 
       0001DD82 00 00 00 00 00 00 00 00 00 00 
       0001DD8C 00 00 00 00 00 00 00 00 00 00 
       0001DD96 00 00 00 00 00 00 00 00 00 00 
       0001DDA0 00 00 00 00 00 00 00 00 00 00 
       0001DDAA 00 00 00 00 00 00 00 00 00 00 
       0001DDB4 00 00 00 00 00 00 00 00 00 00 
       0001DDBE 00 00 00 00 00 00 00 00 00 00 
       0001DDC8 00 00 00 00 00 00 00 00 00 00 
       0001DDD2 00 00 00 00 00 00 00 00 00 00 
       0001DDDC 00 00 00 00 00 00 00 00 00 00 
       0001DDE6 00 00 00 00 00 00 00 00 00 00 
       0001DDF0 00 00 00 00 00 00 00 00 00 00 
       0001DDFA 00 00 00 00 00 00 00 00 00 00 
       0001DE04 00 00 00 00 00 00 00 00 00 00 
       0001DE0E 00 00 00 00 00 00 00 00 00 00 
       0001DE18 00 00 00 00 00 00 00 00 00 00 
       0001DE22 00 00 00 00 00 00 00 00 00 00 
       0001DE2C 00 00 00 00 00 00 00 00 00 00 
       0001DE36 00 00 00 00 00 00 00 00 00 00 
       0001DE40 00 00 00 00 00 00 00 00 00 00 
       0001DE4A 00 00 00 00 00 00 00 00 00 00 
       0001DE54 00 00 00 00 00 00 00 00 00 00 
       0001DE5E 00 00 00 00 00 00 00 00 00 00 
       0001DE68 00 00 00 00 00 00 00 00 00 00 
       0001DE72 00 00 00 00 00 00 00 00 00 00 
       0001DE7C 00 00 00 00 00 00 00 00 00 00 
       0001DE86 00 00 00 00 00 00 00 00 00 00 
       0001DE90 00 00 00 00 00 00 00 00 00 00 
       0001DE9A 00 00 00 00 00 00 00 00 00 00 
       0001DEA4 00 00 00 00 00 00 00 00 00 00 
       0001DEAE 00 00 00 00 00 00 00 00 00 00 
       0001DEB8 00 00 00 00 00 00 00 00 00 00 
       0001DEC2 00 00 00 00 00 00 00 00 00 00 
       0001DECC 00 00 00 00 00 00 00 00 00 00 
       0001DED6 00 00 00 00 00 00 00 00 00 00 
       0001DEE0 00 00 00 00 00 00 00 00 00 00 
       0001DEEA 00 00 00 00 00 00 00 00 00 00 
       0001DEF4 00 00 00 00 00 00 00 00 00 00 
       0001DEFE 00 00 00 00 00 00 00 00 00 00 
       0001DF08 00 00 00 00 00 00 00 00 00 00 
       0001DF12 00 00 00 00 00 00 00 00 00 00 
       0001DF1C 00 00 00 00 00 00 00 00 00 00 
       0001DF26 00 00 00 00 00 00 00 00 00 00 
       0001DF30 00 00 00 00 00 00 00 00 00 00 
       0001DF3A 00 00 00 00 00 00 00 00 00 00 
       0001DF44 00 00 00 00 00 00 00 00 00 00 
       0001DF4E 00 00 00 00 00 00 00 00 00 00 
       0001DF58 00 00 00 00 00 00 00 00 00 00 
       0001DF62 00 00 00 00 00 00 00 00 00 00 
       0001DF6C 00 00 00 00 00 00 00 00 00 00 
       0001DF76 00 00 00 00 00 00 00 00 00 00 
       0001DF80 00 00 00 00 00 00 00 00 00 00 
       0001DF8A 00 00 00 00 00 00 00 00 00 00 
       0001DF94 00 00 00 00 00 00 00 00 00 00 
       0001DF9E 00 00 00 00 00 00 00 00 00 00 
       0001DFA8 00 00 00 00 00 00 00 00 00 00 
       0001DFB2 00 00 00 00 00 00 00 00 00 00 
       0001DFBC 00 00 00 00 00 00 00 00 00 00 
       0001DFC6 00 00 00 00 00 00 00 00 00 00 
       0001DFD0 00 00 00 00 00 00 00 00 00 00 
       0001DFDA 00 00 00 00 00 00 00 00 00 00 
       0001DFE4 00 00 00 00 00 00 00 00 00 00 
       0001DFEE 00 00 00 00 00 00 00 00 00 00 
       0001DFF8 00 00 00 00 00 00 00 00 00 00 
       0001E002 00 00 00 00 00 00 00 00 00 00 
       0001E00C 00 00 00 00 00 00 00 00 00 00 
       0001E016 00 00 00 00 00 00 00 00 00 00 
       0001E020 00 00 00 00 00 00 00 00 00 00 
       0001E02A 00 00 00 00 00 00 00 00 00 00 
       0001E034 00 00 00 00 00 00 00 00 00 00 
       0001E03E 00 00 00 00 00 00 00 00 00 00 
       0001E048 00 00 00 00 00 00 00 00 00 00 
       0001E052 00 00 00 00 00 00 00 00 00 00 
       0001E05C 00 00 00 00 00 00 00 00 00 00 
       0001E066 00 00 00 00 00 00 00 00 00 00 
       0001E070 00 00 00 00 00 00 00 00 00 00 
       0001E07A 00 00 00 00 00 00 00 00 00 00 
       0001E084 00 00 00 00 00 00 00 00 00 00 
       0001E08E 00 00 00 00 00 00 00 00 00 00 
       0001E098 00 00 00 00 00 00 00 00 00 00 
       0001E0A2 00 00 00 00 00 00 00 00 00 00 
       0001E0AC 00 00 00 00 00 00 00 00 00 00 
       0001E0B6 00 00 00 00 00 00 00 00 00 00 
       0001E0C0 00 00 00 00 00 00 00 00 00 00 
       0001E0CA 00 00 00 00 00 00 00 00 00 00 
       0001E0D4 00 00 00 00 00 00 00 00 00 00 
       0001E0DE 00 00 00 00 00 00 00 00 00 00 
       0001E0E8 00 00 00 00 00 00 00 00 00 00 
       0001E0F2 00 00 00 00 00 00 00 00 00 00 
       0001E0FC 00 00 00 00 00 00 00 00 00 00 
       0001E106 00 00 00 00 00 00 00 00 00 00 
       0001E110 00 00 00 00 00 00 00 00 00 00 
       0001E11A 00 00 00 00 00 00 00 00 00 00 
       0001E124 00 00 00 00 00 00 00 00 00 00 
       0001E12E 00 00 00 00 00 00 00 00 00 00 
       0001E138 00 00 00 00 00 00 00 00 00 00 
       0001E142 00 00 00 00 00 00 00 00 00 00 
       0001E14C 00 00 00 00 00 00 00 00 00 00 
       0001E156 00 00 00 00 00 00 00 00 00 00 
       0001E160 00 00 00 00 00 00 00 00 00 00 
       0001E16A 00 00 00 00 00 00 00 00 00 00 
       0001E174 00 00 00 00 00 00 00 00 00 00 
       0001E17E 00 00 00 00 00 00 00 00 00 00 
       0001E188 00 00 00 00 00 00 00 00 00 00 
       0001E192 00 00 00 00 00 00 00 00 00 00 
       0001E19C 00 00 00 00 00 00 00 00 00 00 
       0001E1A6 00 00 00 00 00 00 00 00 00 00 
       0001E1B0 00 00 00 00 00 00 00 00 00 00 
       0001E1BA 00 00 00 00 00 00 00 00 00 00 
       0001E1C4 00 00 00 00 00 00 00 00 00 00 
       0001E1CE 00 00 00 00 00 00 00 00 00 00 
       0001E1D8 00 00 00 00 00 00 00 00 00 00 
       0001E1E2 00 00 00 00 00 00 00 00 00 00 
       0001E1EC 00 00 00 00 00 00 00 00 00 00 
       0001E1F6 00 00 00 00 00 00 00 00 00 00 
       0001E200 00 00 00 00 00 00 00 00 00 00 
       0001E20A 00 00 00 00 00 00 00 00 00 00 
       0001E214 00 00 00 00 00 00 00 00 00 00 
       0001E21E 00 00 00 00 00 00 00 00 00 00 
       0001E228 00 00 00 00 00 00 00 00 00 00 
       0001E232 00 00 00 00 00 00 00 00 00 00 
       0001E23C 00 00 00 00 00 00 00 00 00 00 
       0001E246 00 00 00 00 00 00 00 00 00 00 
       0001E250 00 00 00 00 00 00 00 00 00 00 
       0001E25A 00 00 00 00 00 00 00 00 00 00 
       0001E264 00 00 00 00 00 00 00 00 00 00 
       0001E26E 00 00 00 00 00 00 00 00 00 00 
       0001E278 00 00 00 00 00 00 00 00 00 00 
       0001E282 00 00 00 00 00 00 00 00 00 00 
       0001E28C 00 00 00 00 00 00 00 00 00 00 
       0001E296 00 00 00 00 00 00 00 00 00 00 
       0001E2A0 00 00 00 00 00 00 00 00 00 00 
       0001E2AA 00 00 00 00 00 00 00 00 00 00 
       0001E2B4 00 00 00 00 00 00 00 00 00 00 
       0001E2BE 00 00 00 00 00 00 00 00 00 00 
       0001E2C8 00 00 00 00 00 00 00 00 00 00 
       0001E2D2 00 00 00 00 00 00 00 00 00 00 
       0001E2DC 00 00 00 00 00 00 00 00 00 00 
       0001E2E6 00 00 00 00 00 00 00 00 00 00 
       0001E2F0 00 00 00 00 00 00 00 00 00 00 
       0001E2FA 00 00 00 00 00 00 00 00 00 00 
       0001E304 00 00 00 00 00 00 00 00 00 00 
       0001E30E 00 00 00 00 00 00 00 00 00 00 
       0001E318 00 00 00 00 00 00 00 00 00 00 
       0001E322 00 00 00 00 00 00 00 00 00 00 
       0001E32C 00 00 00 00 00 00 00 00 00 00 
       0001E336 00 00 00 00 00 00 00 00 00 00 
       0001E340 00 00 00 00 00 00 00 00 00 00 
       0001E34A 00 00 00 00 00 00 00 00 00 00 
       0001E354 00 00 00 00 00 00 00 00 00 00 
       0001E35E 00 00 00 00 00 00 00 00 00 00 
       0001E368 00 00 00 00 00 00 00 00 00 00 
       0001E372 00 00 00 00 00 00 00 00 00 00 
       0001E37C 00 00 00 00 00 00 00 00 00 00 
       0001E386 00 00 00 00 00 00 00 00 00 00 
       0001E390 00 00 00 00 00 00 00 00 00 00 
       0001E39A 00 00 00 00 00 00 00 00 00 00 
       0001E3A4 00 00 00 00 00 00 00 00 00 00 
       0001E3AE 00 00 00 00 00 00 00 00 00 00 
       0001E3B8 00 00 00 00 00 00 00 00 00 00 
       0001E3C2 00 00 00 00 00 00 00 00 00 00 
       0001E3CC 00 00 00 00 00 00 00 00 00 00 
       0001E3D6 00 00 00 00 00 00 00 00 00 00 
       0001E3E0 00 00 00 00 00 00 00 00 00 00 
       0001E3EA 00 00 00 00 00 00 00 00 00 00 
       0001E3F4 00 00 00 00 00 00 00 00 00 00 
       0001E3FE 00 00 00 00 00 00 00 00 00 00 
       0001E408 00 00 00 00 00 00 00 00 00 00 
       0001E412 00 00 00 00 00 00 00 00 00 00 
       0001E41C 00 00 00 00 00 00 00 00 00 00 
       0001E426 00 00 00 00 00 00 00 00 00 00 
       0001E430 00 00 00 00 00 00 00 00 00 00 
       0001E43A 00 00 00 00 00 00 00 00 00 00 
       0001E444 00 00 00 00 00 00 00 00 00 00 
       0001E44E 00 00 00 00 00 00 00 00 00 00 
       0001E458 00 00 00 00 00 00 00 00 00 00 
       0001E462 00 00 00 00 00 00 00 00 00 00 
       0001E46C 00 00 00 00 00 00 00 00 00 00 
       0001E476 00 00 00 00 00 00 00 00 00 00 
       0001E480 00 00 00 00 00 00 00 00 00 00 
       0001E48A 00 00 00 00 00 00 00 00 00 00 
       0001E494 00 00 00 00 00 00 00 00 00 00 
       0001E49E 00 00 00 00 00 00 00 00 00 00 
       0001E4A8 00 00 00 00 00 00 00 00 00 00 
       0001E4B2 00 00 00 00 00 00 00 00 00 00 
       0001E4BC 00 00 00 00 00 00 00 00 00 00 
       0001E4C6 00 00 00 00 00 00 00 00 00 00 
       0001E4D0 00 00 00 00 00 00 00 00 00 00 
       0001E4DA 00 00 00 00 00 00 00 00 00 00 
       0001E4E4 00 00 00 00 00 00 00 00 00 00 
       0001E4EE 00 00 00 00 00 00 00 00 00 00 
       0001E4F8 00 00 00 00 00 00 00 00 00 00 
       0001E502 00 00 00 00 00 00 00 00 00 00 
       0001E50C 00 00 00 00 00 00 00 00 00 00 
       0001E516 00 00 00 00 00 00 00 00 00 00 
       0001E520 00 00 00 00 00 00 00 00 00 00 
       0001E52A 00 00 00 00 00 00 00 00 00 00 
       0001E534 00 00 00 00 00 00 00 00 00 00 
       0001E53E 00 00 00 00 00 00 00 00 00 00 
       0001E548 00 00 00 00 00 00 00 00 00 00 
       0001E552 00 00 00 00 00 00 00 00 00 00 
       0001E55C 00 00 00 00 00 00 00 00 00 00 
       0001E566 00 00 00 00 00 00 00 00 00 00 
       0001E570 00 00 00 00 00 00 00 00 00 00 
       0001E57A 00 00 00 00 00 00 00 00 00 00 
       0001E584 00 00 00 00 00 00 00 00 00 00 
       0001E58E 00 00 00 00 00 00 00 00 00 00 
       0001E598 00 00 00 00 00 00 00 00 00 00 
       0001E5A2 00 00 00 00 00 00 00 00 00 00 
       0001E5AC 00 00 00 00 00 00 00 00 00 00 
       0001E5B6 00 00 00 00 00 00 00 00 00 00 
       0001E5C0 00 00 00 00 00 00 00 00 00 00 
       0001E5CA 00 00 00 00 00 00 00 00 00 00 
       0001E5D4 00 00 00 00 00 00 00 00 00 00 
       0001E5DE 00 00 00 00 00 00 00 00 00 00 
       0001E5E8 00 00 00 00 00 00 00 00 00 00 
       0001E5F2 00 00 00 00 00 00 00 00 00 00 
       0001E5FC 00 00 00 00 00 00 00 00 00 00 
       0001E606 00 00 00 00 00 00 00 00 00 00 
       0001E610 00 00 00 00 00 00 00 00 00 00 
       0001E61A 00 00 00 00 00 00 00 00 00 00 
       0001E624 00 00 00 00 00 00 00 00 00 00 
       0001E62E 00 00 00 00 00 00 00 00 00 00 
       0001E638 00 00 00 00 00 00 00 00 00 00 
       0001E642 00 00 00 00 00 00 00 00 00 00 
       0001E64C 00 00 00 00 00 00 00 00 00 00 
       0001E656 00 00 00 00 00 00 00 00 00 00 
       0001E660 00 00 00 00 00 00 00 00 00 00 
       0001E66A 00 00 00 00 00 00 00 00 00 00 
       0001E674 00 00 00 00 00 00 00 00 00 00 
       0001E67E 00 00 00 00 00 00 00 00 00 00 
       0001E688 00 00 00 00 00 00 00 00 00 00 
       0001E692 00 00 00 00 00 00 00 00 00 00 
       0001E69C 00 00 00 00 00 00 00 00 00 00 
       0001E6A6 00 00 00 00 00 00 00 00 00 00 
       0001E6B0 00 00 00 00 00 00 00 00 00 00 
       0001E6BA 00 00 00 00 00 00 00 00 00 00 
       0001E6C4 00 00 00 00 00 00 00 00 00 00 
       0001E6CE 00 00 00 00 00 00 00 00 00 00 
       0001E6D8 00 00 00 00 00 00 00 00 00 00 
       0001E6E2 00 00 00 00 00 00 00 00 00 00 
       0001E6EC 00 00 00 00 00 00 00 00 00 00 
       0001E6F6 00 00 00 00 00 00 00 00 00 00 
       0001E700 00 00 00 00 00 00 00 00 00 00 
       0001E70A 00 00 00 00 00 00 00 00 00 00 
       0001E714 00 00 00 00 00 00 00 00 00 00 
       0001E71E 00 00 00 00 00 00 00 00 00 00 
       0001E728 00 00 00 00 00 00 00 00 00 00 
       0001E732 00 00 00 00 00 00 00 00 00 00 
       0001E73C 00 00 00 00 00 00 00 00 00 00 
       0001E746 00 00 00 00 00 00 00 00 00 00 
       0001E750 00 00 00 00 00 00 00 00 00 00 
       0001E75A 00 00 00 00 00 00 00 00 00 00 
       0001E764 00 00 00 00 00 00 00 00 00 00 
       0001E76E 00 00 00 00 00 00 00 00 00 00 
       0001E778 00 00 00 00 00 00 00 00 00 00 
       0001E782 00 00 00 00 00 00 00 00 00 00 
       0001E78C 00 00 00 00 00 00 00 00 00 00 
       0001E796 00 00 00 00 00 00 00 00 00 00 
       0001E7A0 00 00 00 00 00 00 00 00 00 00 
       0001E7AA 00 00 00 00 00 00 00 00 00 00 
       0001E7B4 00 00 00 00 00 00 00 00 00 00 
       0001E7BE 00 00 00 00 00 00 00 00 00 00 
       0001E7C8 00 00 00 00 00 00 00 00 00 00 
       0001E7D2 00 00 00 00 00 00 00 00 00 00 
       0001E7DC 00 00 00 00 00 00 00 00 00 00 
       0001E7E6 00 00 00 00 00 00 00 00 00 00 
       0001E7F0 00 00 00 00 00 00 00 00 00 00 
       0001E7FA 00 00 00 00 00 00 00 00 00 00 
       0001E804 00 00 00 00 00 00 00 00 00 00 
       0001E80E 00 00 00 00 00 00 00 00 00 00 
       0001E818 00 00 00 00 00 00 00 00 00 00 
       0001E822 00 00 00 00 00 00 00 00 00 00 
       0001E82C 00 00 00 00 00 00 00 00 00 00 
       0001E836 00 00 00 00 00 00 00 00 00 00 
       0001E840 00 00 00 00 00 00 00 00 00 00 
       0001E84A 00 00 00 00 00 00 00 00 00 00 
       0001E854 00 00 00 00 00 00 00 00 00 00 
       0001E85E 00 00 00 00 00 00 00 00 00 00 
       0001E868 00 00 00 00 00 00 00 00 00 00 
       0001E872 00 00 00 00 00 00 00 00 00 00 
       0001E87C 00 00 00 00 00 00 00 00 00 00 
       0001E886 00 00 00 00 00 00 00 00 00 00 
       0001E890 00 00 00 00 00 00 00 00 00 00 
       0001E89A 00 00 00 00 00 00 00 00 00 00 
       0001E8A4 00 00 00 00 00 00 00 00 00 00 
       0001E8AE 00 00 00 00 00 00 00 00 00 00 
       0001E8B8 00 00 00 00 00 00 00 00 00 00 
       0001E8C2 00 00 00 00 00 00 00 00 00 00 
       0001E8CC 00 00 00 00 00 00 00 00 00 00 
       0001E8D6 00 00 00 00 00 00 00 00 00 00 
       0001E8E0 00 00 00 00 00 00 00 00 00 00 
       0001E8EA 00 00 00 00 00 00 00 00 00 00 
       0001E8F4 00 00 00 00 00 00 00 00 00 00 
       0001E8FE 00 00 00 00 00 00 00 00 00 00 
       0001E908 00 00 00 00 00 00 00 00 00 00 
       0001E912 00 00 00 00 00 00 00 00 00 00 
       0001E91C 00 00 00 00 00 00 00 00 00 00 
       0001E926 00 00 00 00 00 00 00 00 00 00 
       0001E930 00 00 00 00 00 00 00 00 00 00 
       0001E93A 00 00 00 00 00 00 00 00 00 00 
       0001E944 00 00 00 00 00 00 00 00 00 00 
       0001E94E 00 00 00 00 00 00 00 00 00 00 
       0001E958 00 00 00 00 00 00 00 00 00 00 
       0001E962 00 00 00 00 00 00 00 00 00 00 
       0001E96C 00 00 00 00 00 00 00 00 00 00 
       0001E976 00 00 00 00 00 00 00 00 00 00 
       0001E980 00 00 00 00 00 00 00 00 00 00 
       0001E98A 00 00 00 00 00 00 00 00 00 00 
       0001E994 00 00 00 00 00 00 00 00 00 00 
       0001E99E 00 00 00 00 00 00 00 00 00 00 
       0001E9A8 00 00 00 00 00 00 00 00 00 00 
       0001E9B2 00 00 00 00 00 00 00 00 00 00 
       0001E9BC 00 00 00 00 00 00 00 00 00 00 
       0001E9C6 00 00 00 00 00 00 00 00 00 00 
       0001E9D0 00 00 00 00 00 00 00 00 00 00 
       0001E9DA 00 00 00 00 00 00 00 00 00 00 
       0001E9E4 00 00 00 00 00 00 00 00 00 00 
       0001E9EE 00 00 00 00 00 00 00 00 00 00 
       0001E9F8 00 00 00 00 00 00 00 00 00 00 
       0001EA02 00 00 00 00 00 00 00 00 00 00 
       0001EA0C 00 00 00 00 00 00 00 00 00 00 
       0001EA16 00 00 00 00 00 00 00 00 00 00 
       0001EA20 00 00 00 00 00 00 00 00 00 00 
       0001EA2A 00 00 00 00 00 00 00 00 00 00 
       0001EA34 00 00 00 00 00 00 00 00 00 00 
       0001EA3E 00 00 00 00 00 00 00 00 00 00 
       0001EA48 00 00 00 00 00 00 00 00 00 00 
       0001EA52 00 00 00 00 00 00 00 00 00 00 
       0001EA5C 00 00 00 00 00 00 00 00 00 00 
       0001EA66 00 00 00 00 00 00 00 00 00 00 
       0001EA70 00 00 00 00 00 00 00 00 00 00 
       0001EA7A 00 00 00 00 00 00 00 00 00 00 
       0001EA84 00 00 00 00 00 00 00 00 00 00 
       0001EA8E 00 00 00 00 00 00 00 00 00 00 
       0001EA98 00 00 00 00 00 00 00 00 00 00 
       0001EAA2 00 00 00 00 00 00 00 00 00 00 
       0001EAAC 00 00 00 00 00 00 00 00 00 00 
       0001EAB6 00 00 00 00 00 00 00 00 00 00 
       0001EAC0 00 00 00 00 00 00 00 00 00 00 
       0001EACA 00 00 00 00 00 00 00 00 00 00 
       0001EAD4 00 00 00 00 00 00 00 00 00 00 
       0001EADE 00 00 00 00 00 00 00 00 00 00 
       0001EAE8 00 00 00 00 00 00 00 00 00 00 
       0001EAF2 00 00 00 00 00 00 00 00 00 00 
       0001EAFC 00 00 00 00 00 00 00 00 00 00 
       0001EB06 00 00 00 00 00 00 00 00 00 00 
       0001EB10 00 00 00 00 00 00 00 00 00 00 
       0001EB1A 00 00 00 00 00 00 00 00 00 00 
       0001EB24 00 00 00 00 00 00 00 00 00 00 
       0001EB2E 00 00 00 00 00 00 00 00 00 00 
       0001EB38 00 00 00 00 00 00 00 00 00 00 
       0001EB42 00 00 00 00 00 00 00 00 00 00 
       0001EB4C 00 00 00 00 00 00 00 00 00 00 
       0001EB56 00 00 00 00 00 00 00 00 00 00 
       0001EB60 00 00 00 00 00 00 00 00 00 00 
       0001EB6A 00 00 00 00 00 00 00 00 00 00 
       0001EB74 00 00 00 00 00 00 00 00 00 00 
       0001EB7E 00 00 00 00 00 00 00 00 00 00 
       0001EB88 00 00 00 00 00 00 00 00 00 00 
       0001EB92 00 00 00 00 00 00 00 00 00 00 
       0001EB9C 00 00 00 00 00 00 00 00 00 00 
       0001EBA6 00 00 00 00 00 00 00 00 00 00 
       0001EBB0 00 00 00 00 00 00 00 00 00 00 
       0001EBBA 00 00 00 00 00 00 00 00 00 00 
       0001EBC4 00 00 00 00 00 00 00 00 00 00 
       0001EBCE 00 00 00 00 00 00 00 00 00 00 
       0001EBD8 00 00 00 00 00 00 00 00 00 00 
       0001EBE2 00 00 00 00 00 00 00 00 00 00 
       0001EBEC 00 00 00 00 00 00 00 00 00 00 
       0001EBF6 00 00 00 00 00 00 00 00 00 00 
       0001EC00 00 00 00 00 00 00 00 00 00 00 
       0001EC0A 00 00 00 00 00 00 00 00 00 00 
       0001EC14 00 00 00 00 00 00 00 00 00 00 
       0001EC1E 00 00 00 00 00 00 00 00 00 00 
       0001EC28 00 00 00 00 00 00 00 00 00 00 
       0001EC32 00 00 00 00 00 00 00 00 00 00 
       0001EC3C 00 00 00 00 00 00 00 00 00 00 
       0001EC46 00 00 00 00 00 00 00 00 00 00 
       0001EC50 00 00 00 00 00 00 00 00 00 00 
       0001EC5A 00 00 00 00 00 00 00 00 00 00 
       0001EC64 00 00 00 00 00 00 00 00 00 00 
       0001EC6E 00 00 00 00 00 00 00 00 00 00 
       0001EC78 00 00 00 00 00 00 00 00 00 00 
       0001EC82 00 00 00 00 00 00 00 00 00 00 
       0001EC8C 00 00 00 00 00 00 00 00 00 00 
       0001EC96 00 00 00 00 00 00 00 00 00 00 
       0001ECA0 00 00 00 00 00 00 00 00 00 00 
       0001ECAA 00 00 00 00 00 00 00 00 00 00 
       0001ECB4 00 00 00 00 00 00 00 00 00 00 
       0001ECBE 00 00 00 00 00 00 00 00 00 00 
       0001ECC8 00 00 00 00 00 00 00 00 00 00 
       0001ECD2 00 00 00 00 00 00 00 00 00 00 
       0001ECDC 00 00 00 00 00 00 00 00 00 00 
       0001ECE6 00 00 00 00 00 00 00 00 00 00 
       0001ECF0 00 00 00 00 00 00 00 00 00 00 
       0001ECFA 00 00 00 00 00 00 00 00 00 00 
       0001ED04 00 00 00 00 00 00 00 00 00 00 
       0001ED0E 00 00 00 00 00 00 00 00 00 00 
       0001ED18 00 00 00 00 00 00 00 00 00 00 
       0001ED22 00 00 00 00 00 00 00 00 00 00 
       0001ED2C 00 00 00 00 00 00 00 00 00 00 
       0001ED36 00 00 00 00 00 00 00 00 00 00 
       0001ED40 00 00 00 00 00 00 00 00 00 00 
       0001ED4A 00 00 00 00 00 00 00 00 00 00 
       0001ED54 00 00 00 00 00 00 00 00 00 00 
       0001ED5E 00 00 00 00 00 00 00 00 00 00 
       0001ED68 00 00 00 00 00 00 00 00 00 00 
       0001ED72 00 00 00 00 00 00 00 00 00 00 
       0001ED7C 00 00 00 00 00 00 00 00 00 00 
       0001ED86 00 00 00 00 00 00 00 00 00 00 
       0001ED90 00 00 00 00 00 00 00 00 00 00 
       0001ED9A 00 00 00 00 00 00 00 00 00 00 
       0001EDA4 00 00 00 00 00 00 00 00 00 00 
       0001EDAE 00 00 00 00 00 00 00 00 00 00 
       0001EDB8 00 00 00 00 00 00 00 00 00 00 
       0001EDC2 00 00 00 00 00 00 00 00 00 00 
       0001EDCC 00 00 00 00 00 00 00 00 00 00 
       0001EDD6 00 00 00 00 00 00 00 00 00 00 
       0001EDE0 00 00 00 00 00 00 00 00 00 00 
       0001EDEA 00 00 00 00 00 00 00 00 00 00 
       0001EDF4 00 00 00 00 00 00 00 00 00 00 
       0001EDFE 00 00 00 00 00 00 00 00 00 00 
       0001EE08 00 00 00 00 00 00 00 00 00 00 
       0001EE12 00 00 00 00 00 00 00 00 00 00 
       0001EE1C 00 00 00 00 00 00 00 00 00 00 
       0001EE26 00 00 00 00 00 00 00 00 00 00 
       0001EE30 00 00 00 00 00 00 00 00 00 00 
       0001EE3A 00 00 00 00 00 00 00 00 00 00 
       0001EE44 00 00 00 00 00 00 00 00 00 00 
       0001EE4E 00 00 00 00 00 00 00 00 00 00 
       0001EE58 00 00 00 00 00 00 00 00 00 00 
       0001EE62 00 00 00 00 00 00 00 00 00 00 
       0001EE6C 00 00 00 00 00 00 00 00 00 00 
       0001EE76 00 00 00 00 00 00 00 00 00 00 
       0001EE80 00 00 00 00 00 00 00 00 00 00 
       0001EE8A 00 00 00 00 00 00 00 00 00 00 
       0001EE94 00 00 00 00 00 00 00 00 00 00 
       0001EE9E 00 00 00 00 00 00 00 00 00 00 
       0001EEA8 00 00 00 00 00 00 00 00 00 00 
       0001EEB2 00 00 00 00 00 00 00 00 00 00 
       0001EEBC 00 00 00 00 00 00 00 00 00 00 
       0001EEC6 00 00 00 00 00 00 00 00 00 00 
       0001EED0 00 00 00 00 00 00 00 00 00 00 
       0001EEDA 00 00 00 00 00 00 00 00 00 00 
       0001EEE4 00 00 00 00 00 00 00 00 00 00 
       0001EEEE 00 00 00 00 00 00 00 00 00 00 
       0001EEF8 00 00 00 00 00 00 00 00 00 00 
       0001EF02 00 00 00 00 00 00 00 00 00 00 
       0001EF0C 00 00 00 00 00 00 00 00 00 00 
       0001EF16 00 00 00 00 00 00 00 00 00 00 
       0001EF20 00 00 00 00 00 00 00 00 00 00 
       0001EF2A 00 00 00 00 00 00 00 00 00 00 
       0001EF34 00 00 00 00 00 00 00 00 00 00 
       0001EF3E 00 00 00 00 00 00 00 00 00 00 
       0001EF48 00 00 00 00 00 00 00 00 00 00 
       0001EF52 00 00 00 00 00 00 00 00 00 00 
       0001EF5C 00 00 00 00 00 00 00 00 00 00 
       0001EF66 00 00 00 00 00 00 00 00 00 00 
       0001EF70 00 00 00 00 00 00 00 00 00 00 
       0001EF7A 00 00 00 00 00 00 00 00 00 00 
       0001EF84 00 00 00 00 00 00 00 00 00 00 
       0001EF8E 00 00 00 00 00 00 00 00 00 00 
       0001EF98 00 00 00 00 00 00 00 00 00 00 
       0001EFA2 00 00 00 00 00 00 00 00 00 00 
       0001EFAC 00 00 00 00 00 00 00 00 00 00 
       0001EFB6 00 00 00 00 00 00 00 00 00 00 
       0001EFC0 00 00 00 00 00 00 00 00 00 00 
       0001EFCA 00 00 00 00 00 00 00 00 00 00 
       0001EFD4 00 00 00 00 00 00 00 00 00 00 
       0001EFDE 00 00 00 00 00 00 00 00 00 00 
       0001EFE8 00 00 00 00 00 00 00 00 00 00 
       0001EFF2 00 00 00 00 00 00 00 00 00 00 
       0001EFFC 00 00 00 00 00 00 00 00 00 00 
       0001F006 00 00 00 00 00 00 00 00 00 00 
       0001F010 00 00 00 00 00 00 00 00 00 00 
       0001F01A 00 00 00 00 00 00 00 00 00 00 
       0001F024 00 00 00 00 00 00 00 00 00 00 
       0001F02E 00 00 00 00 00 00 00 00 00 00 
       0001F038 00 00 00 00 00 00 00 00 00 00 
       0001F042 00 00 00 00 00 00 00 00 00 00 
       0001F04C 00 00 00 00 00 00 00 00 00 00 
       0001F056 00 00 00 00 00 00 00 00 00 00 
       0001F060 00 00 00 00 00 00 00 00 00 00 
       0001F06A 00 00 00 00 00 00 00 00 00 00 
       0001F074 00 00 00 00 00 00 00 00 00 00 
       0001F07E 00 00 00 00 00 00 00 00 00 00 
       0001F088 00 00 00 00 00 00 00 00 00 00 
       0001F092 00 00 00 00 00 00 00 00 00 00 
       0001F09C 00 00 00 00 00 00 00 00 00 00 
       0001F0A6 00 00 00 00 00 00 00 00 00 00 
       0001F0B0 00 00 00 00 00 00 00 00 00 00 
       0001F0BA 00 00 00 00 00 00 00 00 00 00 
       0001F0C4 00 00 00 00 00 00 00 00 00 00 
       0001F0CE 00 00 00 00 00 00 00 00 00 00 
       0001F0D8 00 00 00 00 00 00 00 00 00 00 
       0001F0E2 00 00 00 00 00 00 00 00 00 00 
       0001F0EC 00 00 00 00 00 00 00 00 00 00 
       0001F0F6 00 00 00 00 00 00 00 00 00 00 
       0001F100 00 00 00 00 00 00 00 00 00 00 
       0001F10A 00 00 00 00 00 00 00 00 00 00 
       0001F114 00 00 00 00 00 00 00 00 00 00 
       0001F11E 00 00 00 00 00 00 00 00 00 00 
       0001F128 00 00 00 00 00 00 00 00 00 00 
       0001F132 00 00 00 00 00 00 00 00 00 00 
       0001F13C 00 00 00 00 00 00 00 00 00 00 
       0001F146 00 00 00 00 00 00 00 00 00 00 
       0001F150 00 00 00 00 00 00 00 00 00 00 
       0001F15A 00 00 00 00 00 00 00 00 00 00 
       0001F164 00 00 00 00 00 00 00 00 00 00 
       0001F16E 00 00 00 00 00 00 00 00 00 00 
       0001F178 00 00 00 00 00 00 00 00 00 00 
       0001F182 00 00 00 00 00 00 00 00 00 00 
       0001F18C 00 00 00 00 00 00 00 00 00 00 
       0001F196 00 00 00 00 00 00 00 00 00 00 
       0001F1A0 00 00 00 00 00 00 00 00 00 00 
       0001F1AA 00 00 00 00 00 00 00 00 00 00 
       0001F1B4 00 00 00 00 00 00 00 00 00 00 
       0001F1BE 00 00 00 00 00 00 00 00 00 00 
       0001F1C8 00 00 00 00 00 00 00 00 00 00 
       0001F1D2 00 00 00 00 00 00 00 00 00 00 
       0001F1DC 00 00 00 00 00 00 00 00 00 00 
       0001F1E6 00 00 00 00 00 00 00 00 00 00 
       0001F1F0 00 00 00 00 00 00 00 00 00 00 
       0001F1FA 00 00 00 00 00 00 00 00 00 00 
       0001F204 00 00 00 00 00 00 00 00 00 00 
       0001F20E 00 00 00 00 00 00 00 00 00 00 
       0001F218 00 00 00 00 00 00 00 00 00 00 
       0001F222 00 00 00 00 00 00 00 00 00 00 
       0001F22C 00 00 00 00 00 00 00 00 00 00 
       0001F236 00 00 00 00 00 00 00 00 00 00 
       0001F240 00 00 00 00 00 00 00 00 00 00 
       0001F24A 00 00 00 00 00 00 00 00 00 00 
       0001F254 00 00 00 00 00 00 00 00 00 00 
       0001F25E 00 00 00 00 00 00 00 00 00 00 
       0001F268 00 00 00 00 00 00 00 00 00 00 
       0001F272 00 00 00 00 00 00 00 00 00 00 
       0001F27C 00 00 00 00 00 00 00 00 00 00 
       0001F286 00 00 00 00 00 00 00 00 00 00 
       0001F290 00 00 00 00 00 00 00 00 00 00 
       0001F29A 00 00 00 00 00 00 00 00 00 00 
       0001F2A4 00 00 00 00 00 00 00 00 00 00 
       0001F2AE 00 00 00 00 00 00 00 00 00 00 
       0001F2B8 00 00 00 00 00 00 00 00 00 00 
       0001F2C2 00 00 00 00 00 00 00 00 00 00 
       0001F2CC 00 00 00 00 00 00 00 00 00 00 
       0001F2D6 00 00 00 00 00 00 00 00 00 00 
       0001F2E0 00 00 00 00 00 00 00 00 00 00 
       0001F2EA 00 00 00 00 00 00 00 00 00 00 
       0001F2F4 00 00 00 00 00 00 00 00 00 00 
       0001F2FE 00 00 00 00 00 00 00 00 00 00 
       0001F308 00 00 00 00 00 00 00 00 00 00 
       0001F312 00 00 00 00 00 00 00 00 00 00 
       0001F31C 00 00 00 00 00 00 00 00 00 00 
       0001F326 00 00 00 00 00 00 00 00 00 00 
       0001F330 00 00 00 00 00 00 00 00 00 00 
       0001F33A 00 00 00 00 00 00 00 00 00 00 
       0001F344 00 00 00 00 00 00 00 00 00 00 
       0001F34E 00 00 00 00 00 00 00 00 00 00 
       0001F358 00 00 00 00 00 00 00 00 00 00 
       0001F362 00 00 00 00 00 00 00 00 00 00 
       0001F36C 00 00 00 00 00 00 00 00 00 00 
       0001F376 00 00 00 00 00 00 00 00 00 00 
       0001F380 00 00 00 00 00 00 00 00 00 00 
       0001F38A 00 00 00 00 00 00 00 00 00 00 
       0001F394 00 00 00 00 00 00 00 00 00 00 
       0001F39E 00 00 00 00 00 00 00 00 00 00 
       0001F3A8 00 00 00 00 00 00 00 00 00 00 
       0001F3B2 00 00 00 00 00 00 00 00 00 00 
       0001F3BC 00 00 00 00 00 00 00 00 00 00 
       0001F3C6 00 00 00 00 00 00 00 00 00 00 
       0001F3D0 00 00 00 00 00 00 00 00 00 00 
       0001F3DA 00 00 00 00 00 00 00 00 00 00 
       0001F3E4 00 00 00 00 00 00 00 00 00 00 
       0001F3EE 00 00 00 00 00 00 00 00 00 00 
       0001F3F8 00 00 00 00 00 00 00 00 00 00 
       0001F402 00 00 00 00 00 00 00 00 00 00 
       0001F40C 00 00 00 00 00 00 00 00 00 00 
       0001F416 00 00 00 00 00 00 00 00 00 00 
       0001F420 00 00 00 00 00 00 00 00 00 00 
       0001F42A 00 00 00 00 00 00 00 00 00 00 
       0001F434 00 00 00 00 00 00 00 00 00 00 
       0001F43E 00 00 00 00 00 00 00 00 00 00 
       0001F448 00 00 00 00 00 00 00 00 00 00 
       0001F452 00 00 00 00 00 00 00 00 00 00 
       0001F45C 00 00 00 00 00 00 00 00 00 00 
       0001F466 00 00 00 00 00 00 00 00 00 00 
       0001F470 00 00 00 00 00 00 00 00 00 00 
       0001F47A 00 00 00 00 00 00 00 00 00 00 
       0001F484 00 00 00 00 00 00 00 00 00 00 
       0001F48E 00 00 00 00 00 00 00 00 00 00 
       0001F498 00 00 00 00 00 00 00 00 00 00 
       0001F4A2 00 00 00 00 00 00 00 00 00 00 
       0001F4AC 00 00 00 00 00 00 00 00 00 00 
       0001F4B6 00 00 00 00 00 00 00 00 00 00 
       0001F4C0 00 00 00 00 00 00 00 00 00 00 
       0001F4CA 00 00 00 00 00 00 00 00 00 00 
       0001F4D4 00 00 00 00 00 00 00 00 00 00 
       0001F4DE 00 00 00 00 00 00 00 00 00 00 
       0001F4E8 00 00 00 00 00 00 00 00 00 00 
       0001F4F2 00 00 00 00 00 00 00 00 00 00 
       0001F4FC 00 00 00 00 00 00 00 00 00 00 
       0001F506 00 00 00 00 00 00 00 00 00 00 
       0001F510 00 00 00 00 00 00 00 00 00 00 
       0001F51A 00 00 00 00 00 00 00 00 00 00 
       0001F524 00 00 00 00 00 00 00 00 00 00 
       0001F52E 00 00 00 00 00 00 00 00 00 00 
       0001F538 00 00 00 00 00 00 00 00 00 00 
       0001F542 00 00 00 00 00 00 00 00 00 00 
       0001F54C 00 00 00 00 00 00 00 00 00 00 
       0001F556 00 00 00 00 00 00 00 00 00 00 
       0001F560 00 00 00 00 00 00 00 00 00 00 
       0001F56A 00 00 00 00 00 00 00 00 00 00 
       0001F574 00 00 00 00 00 00 00 00 00 00 
       0001F57E 00 00 00 00 00 00 00 00 00 00 
       0001F588 00 00 00 00 00 00 00 00 00 00 
       0001F592 00 00 00 00 00 00 00 00 00 00 
       0001F59C 00 00 00 00 00 00 00 00 00 00 
       0001F5A6 00 00 00 00 00 00 00 00 00 00 
       0001F5B0 00 00 00 00 00 00 00 00 00 00 
       0001F5BA 00 00 00 00 00 00 00 00 00 00 
       0001F5C4 00 00 00 00 00 00 00 00 00 00 
       0001F5CE 00 00 00 00 00 00 00 00 00 00 
       0001F5D8 00 00 00 00 00 00 00 00 00 00 
       0001F5E2 00 00 00 00 00 00 00 00 00 00 
       0001F5EC 00 00 00 00 00 00 00 00 00 00 
       0001F5F6 00 00 00 00 00 00 00 00 00 00 
       0001F600 00 00 00 00 00 00 00 00 00 00 
       0001F60A 00 00 00 00 00 00 00 00 00 00 
       0001F614 00 00 00 00 00 00 00 00 00 00 
       0001F61E 00 00 00 00 00 00 00 00 00 00 
       0001F628 00 00 00 00 00 00 00 00 00 00 
       0001F632 00 00 00 00 00 00 00 00 00 00 
       0001F63C 00 00 00 00 00 00 00 00 00 00 
       0001F646 00 00 00 00 00 00 00 00 00 00 
       0001F650 00 00 00 00 00 00 00 00 00 00 
       0001F65A 00 00 00 00 00 00 00 00 00 00 
       0001F664 00 00 00 00 00 00 00 00 00 00 
       0001F66E 00 00 00 00 00 00 00 00 00 00 
       0001F678 00 00 00 00 00 00 00 00 00 00 
       0001F682 00 00 00 00 00 00 00 00 00 00 
       0001F68C 00 00 00 00 00 00 00 00 00 00 
       0001F696 00 00 00 00 00 00 00 00 00 00 
       0001F6A0 00 00 00 00 00 00 00 00 00 00 
       0001F6AA 00 00 00 00 00 00 00 00 00 00 
       0001F6B4 00 00 00 00 00 00 00 00 00 00 
       0001F6BE 00 00 00 00 00 00 00 00 00 00 
       0001F6C8 00 00 00 00 00 00 00 00 00 00 
       0001F6D2 00 00 00 00 00 00 00 00 00 00 
       0001F6DC 00 00 00 00 00 00 00 00 00 00 
       0001F6E6 00 00 00 00 00 00 00 00 00 00 
       0001F6F0 00 00 00 00 00 00 00 00 00 00 
       0001F6FA 00 00 00 00 00 00 00 00 00 00 
       0001F704 00 00 00 00 00 00 00 00 00 00 
       0001F70E 00 00 00 00 00 00 00 00 00 00 
       0001F718 00 00 00 00 00 00 00 00 00 00 
       0001F722 00 00 00 00 00 00 00 00 00 00 
       0001F72C 00 00 00 00 00 00 00 00 00 00 
       0001F736 00 00 00 00 00 00 00 00 00 00 
       0001F740 00 00 00 00 00 00 00 00 00 00 
       0001F74A 00 00 00 00 00 00 00 00 00 00 
       0001F754 00 00 00 00 00 00 00 00 00 00 
       0001F75E 00 00 00 00 00 00 00 00 00 00 
       0001F768 00 00 00 00 00 00 00 00 00 00 
       0001F772 00 00 00 00 00 00 00 00 00 00 
       0001F77C 00 00 00 00 00 00 00 00 00 00 
       0001F786 00 00 00 00 00 00 00 00 00 00 
       0001F790 00 00 00 00 00 00 00 00 00 00 
       0001F79A 00 00 00 00 00 00 00 00 00 00 
       0001F7A4 00 00 00 00 00 00 00 00 00 00 
       0001F7AE 00 00 00 00 00 00 00 00 00 00 
       0001F7B8 00 00 00 00 00 00 00 00 00 00 
       0001F7C2 00 00 00 00 00 00 00 00 00 00 
       0001F7CC 00 00 00 00 00 00 00 00 00 00 
       0001F7D6 00 00 00 00 00 00 00 00 00 00 
       0001F7E0 00 00 00 00 00 00 00 00 00 00 
       0001F7EA 00 00 00 00 00 00 00 00 00 00 
       0001F7F4 00 00 00 00 00 00 00 00 00 00 
       0001F7FE 00 00 00 00 00 00 00 00 00 00 
       0001F808 00 00 00 00 00 00 00 00 00 00 
       0001F812 00 00 00 00 00 00 00 00 00 00 
       0001F81C 00 00 00 00 00 00 00 00 00 00 
       0001F826 00 00 00 00 00 00 00 00 00 00 
       0001F830 00 00 00 00 00 00 00 00 00 00 
       0001F83A 00 00 00 00 00 00 00 00 00 00 
       0001F844 00 00 00 00 00 00 00 00 00 00 
       0001F84E 00 00 00 00 00 00 00 00 00 00 
       0001F858 00 00 00 00 00 00 00 00 00 00 
       0001F862 00 00 00 00 00 00 00 00 00 00 
       0001F86C 00 00 00 00 00 00 00 00 00 00 
       0001F876 00 00 00 00 00 00 00 00 00 00 
       0001F880 00 00 00 00 00 00 00 00 00 00 
       0001F88A 00 00 00 00 00 00 00 00 00 00 
       0001F894 00 00 00 00 00 00 00 00 00 00 
       0001F89E 00 00 00 00 00 00 00 00 00 00 
       0001F8A8 00 00 00 00 00 00 00 00 00 00 
       0001F8B2 00 00 00 00 00 00 00 00 00 00 
       0001F8BC 00 00 00 00 00 00 00 00 00 00 
       0001F8C6 00 00 00 00 00 00 00 00 00 00 
       0001F8D0 00 00 00 00 00 00 00 00 00 00 
       0001F8DA 00 00 00 00 00 00 00 00 00 00 
       0001F8E4 00 00 00 00 00 00 00 00 00 00 
       0001F8EE 00 00 00 00 00 00 00 00 00 00 
       0001F8F8 00 00 00 00 00 00 00 00 00 00 
       0001F902 00 00 00 00 00 00 00 00 00 00 
       0001F90C 00 00 00 00 00 00 00 00 00 00 
       0001F916 00 00 00 00 00 00 00 00 00 00 
       0001F920 00 00 00 00 00 00 00 00 00 00 
       0001F92A 00 00 00 00 00 00 00 00 00 00 
       0001F934 00 00 00 00 00 00 00 00 00 00 
       0001F93E 00 00 00 00 00 00 00 00 00 00 
       0001F948 00 00 00 00 00 00 00 00 00 00 
       0001F952 00 00 00 00 00 00 00 00 00 00 
       0001F95C 00 00 00 00 00 00 00 00 00 00 
       0001F966 00 00 00 00 00 00 00 00 00 00 
       0001F970 00 00 00 00 00 00 00 00 00 00 
       0001F97A 00 00 00 00 00 00 00 00 00 00 
       0001F984 00 00 00 00 00 00 00 00 00 00 
       0001F98E 00 00 00 00 00 00 00 00 00 00 
       0001F998 00 00 00 00 00 00 00 00 00 00 
       0001F9A2 00 00 00 00 00 00 00 00 00 00 
       0001F9AC 00 00 00 00 00 00 00 00 00 00 
       0001F9B6 00 00 00 00 00 00 00 00 00 00 
       0001F9C0 00 00 00 00 00 00 00 00 00 00 
       0001F9CA 00 00 00 00 00 00 00 00 00 00 
       0001F9D4 00 00 00 00 00 00 00 00 00 00 
       0001F9DE 00 00 00 00 00 00 00 00 00 00 
       0001F9E8 00 00 00 00 00 00 00 00 00 00 
       0001F9F2 00 00 00 00 00 00 00 00 00 00 
       0001F9FC 00 00 00 00 00 00 00 00 00 00 
       0001FA06 00 00 00 00 00 00 00 00 00 00 
       0001FA10 00 00 00 00 00 00 00 00 00 00 
       0001FA1A 00 00 00 00 00 00 00 00 00 00 
       0001FA24 00 00 00 00 00 00 00 00 00 00 
       0001FA2E 00 00 00 00 00 00 00 00 00 00 
       0001FA38 00 00 00 00 00 00 00 00 00 00 
       0001FA42 00 00 00 00 00 00 00 00 00 00 
       0001FA4C 00 00 00 00 00 00 00 00 00 00 
       0001FA56 00 00 00 00 00 00 00 00 00 00 
       0001FA60 00 00 00 00 00 00 00 00 00 00 
       0001FA6A 00 00 00 00 00 00 00 00 00 00 
       0001FA74 00 00 00 00 00 00 00 00 00 00 
       0001FA7E 00 00 00 00 00 00 00 00 00 00 
       0001FA88 00 00 00 00 00 00 00 00 00 00 
       0001FA92 00 00 00 00 00 00 00 00 00 00 
       0001FA9C 00 00 00 00 00 00 00 00 00 00 
       0001FAA6 00 00 00 00 00 00 00 00 00 00 
       0001FAB0 00 00 00 00 00 00 00 00 00 00 
       0001FABA 00 00 00 00 00 00 00 00 00 00 
       0001FAC4 00 00 00 00 00 00 00 00 00 00 
       0001FACE 00 00 00 00 00 00 00 00 00 00 
       0001FAD8 00 00 00 00 00 00 00 00 00 00 
       0001FAE2 00 00 00 00 00 00 00 00 00 00 
       0001FAEC 00 00 00 00 00 00 00 00 00 00 
       0001FAF6 00 00 00 00 00 00 00 00 00 00 
       0001FB00 00 00 00 00 00 00 00 00 00 00 
       0001FB0A 00 00 00 00 00 00 00 00 00 00 
       0001FB14 00 00 00 00 00 00 00 00 00 00 
       0001FB1E 00 00 00 00 00 00 00 00 00 00 
       0001FB28 00 00 00 00 00 00 00 00 00 00 
       0001FB32 00 00 00 00 00 00 00 00 00 00 
       0001FB3C 00 00 00 00 00 00 00 00 00 00 
       0001FB46 00 00 00 00 00 00 00 00 00 00 
       0001FB50 00 00 00 00 00 00 00 00 00 00 
       0001FB5A 00 00 00 00 00 00 00 00 00 00 
       0001FB64 00 00 00 00 00 00 00 00 00 00 
       0001FB6E 00 00 00 00 00 00 00 00 00 00 
       0001FB78 00 00 00 00 00 00 00 00 00 00 
       0001FB82 00 00 00 00 00 00 00 00 00 00 
       0001FB8C 00 00 00 00 00 00 00 00 00 00 
       0001FB96 00 00 00 00 00 00 00 00 00 00 
       0001FBA0 00 00 00 00 00 00 00 00 00 00 
       0001FBAA 00 00 00 00 00 00 00 00 00 00 
       0001FBB4 00 00 00 00 00 00 00 00 00 00 
       0001FBBE 00 00 00 00 00 00 00 00 00 00 
       0001FBC8 00 00 00 00 00 00 00 00 00 00 
       0001FBD2 00 00 00 00 00 00 00 00 00 00 
       0001FBDC 00 00 00 00 00 00 00 00 00 00 
       0001FBE6 00 00 00 00 00 00 00 00 00 00 
       0001FBF0 00 00 00 00 00 00 00 00 00 00 
       0001FBFA 00 00 00 00 00 00 00 00 00 00 
       0001FC04 00 00 00 00 00 00 00 00 00 00 
       0001FC0E 00 00 00 00 00 00 00 00 00 00 
       0001FC18 00 00 00 00 00 00 00 00 00 00 
       0001FC22 00 00 00 00 00 00 00 00 00 00 
       0001FC2C 00 00 00 00 00 00 00 00 00 00 
       0001FC36 00 00 00 00 00 00 00 00 00 00 
       0001FC40 00 00 00 00 00 00 00 00 00 00 
       0001FC4A 00 00 00 00 00 00 00 00 00 00 
       0001FC54 00 00 00 00 00 00 00 00 00 00 
       0001FC5E 00 00 00 00 00 00 00 00 00 00 
       0001FC68 00 00 00 00 00 00 00 00 00 00 
       0001FC72 00 00 00 00 00 00 00 00 00 00 
       0001FC7C 00 00 00 00 00 00 00 00 00 00 
       0001FC86 00 00 00 00 00 00 00 00 00 00 
       0001FC90 00 00 00 00 00 00 00 00 00 00 
       0001FC9A 00 00 00 00 00 00 00 00 00 00 
       0001FCA4 00 00 00 00 00 00 00 00 00 00 
       0001FCAE 00 00 00 00 00 00 00 00 00 00 
       0001FCB8 00 00 00 00 00 00 00 00 00 00 
       0001FCC2 00 00 00 00 00 00 00 00 00 00 
       0001FCCC 00 00 00 00 00 00 00 00 00 00 
       0001FCD6 00 00 00 00 00 00 00 00 00 00 
       0001FCE0 00 00 00 00 00 00 00 00 00 00 
       0001FCEA 00 00 00 00 00 00 00 00 00 00 
       0001FCF4 00 00 00 00 00 00 00 00 00 00 
       0001FCFE 00 00 00 00 00 00 00 00 00 00 
       0001FD08 00 00 00 00 00 00 00 00 00 00 
       0001FD12 00 00 00 00 00 00 00 00 00 00 
       0001FD1C 00 00 00 00 00 00 00 00 00 00 
       0001FD26 00 00 00 00 00 00 00 00 00 00 
       0001FD30 00 00 00 00 00 00 00 00 00 00 
       0001FD3A 00 00 00 00 00 00 00 00 00 00 
       0001FD44 00 00 00 00 00 00 00 00 00 00 
       0001FD4E 00 00 00 00 00 00 00 00 00 00 
       0001FD58 00 00 00 00 00 00 00 00 00 00 
       0001FD62 00 00 00 00 00 00 00 00 00 00 
       0001FD6C 00 00 00 00 00 00 00 00 00 00 
       0001FD76 00 00 00 00 00 00 00 00 00 00 
       0001FD80 00 00 00 00 00 00 00 00 00 00 
       0001FD8A 00 00 00 00 00 00 00 00 00 00 
       0001FD94 00 00 00 00 00 00 00 00 00 00 
       0001FD9E 00 00 00 00 00 00 00 00 00 00 
       0001FDA8 00 00 00 00 00 00 00 00 00 00 
       0001FDB2 00 00 00 00 00 00 00 00 00 00 
       0001FDBC 00 00 00 00 00 00 00 00 00 00 
       0001FDC6 00 00 00 00 00 00 00 00 00 00 
       0001FDD0 00 00 00 00 00 00 00 00 00 00 
       0001FDDA 00 00 00 00 00 00 00 00 00 00 
       0001FDE4 00 00 00 00 00 00 00 00 00 00 
       0001FDEE 00 00 00 00 00 00 00 00 00 00 
       0001FDF8 00 00 00 00 00 00 00 00 00 00 
       0001FE02 00 00 00 00 00 00 00 00 00 00 
       0001FE0C 00 00 00 00 00 00 00 00 00 00 
       0001FE16 00 00 00 00 00 00 00 00 00 00 
       0001FE20 00 00 00 00 00 00 00 00 00 00 
       0001FE2A 00 00 00 00 00 00 00 00 00 00 
       0001FE34 00 00 00 00 00 00 00 00 00 00 
       0001FE3E 00 00 00 00 00 00 00 00 00 00 
       0001FE48 00 00 00 00 00 00 00 00 00 00 
       0001FE52 00 00 00 00 00 00 00 00 00 00 
       0001FE5C 00 00 00 00 00 00 00 00 00 00 
       0001FE66 00 00 00 00 00 00 00 00 00 00 
       0001FE70 00 00 00 00 00 00 00 00 00 00 
       0001FE7A 00 00 00 00 00 00 00 00 00 00 
       0001FE84 00 00 00 00 00 00 00 00 00 00 
       0001FE8E 00 00 00 00 00 00 00 00 00 00 
       0001FE98 00 00 00 00 00 00 00 00 00 00 
       0001FEA2 00 00 00 00 00 00 00 00 00 00 
       0001FEAC 00 00 00 00 00 00 00 00 00 00 
       0001FEB6 00 00 00 00 00 00 00 00 00 00 
       0001FEC0 00 00 00 00 00 00 00 00 00 00 
       0001FECA 00 00 00 00 00 00 00 00 00 00 
       0001FED4 00 00 00 00 00 00 00 00 00 00 
       0001FEDE 00 00 00 00 00 00 00 00 00 00 
       0001FEE8 00 00 00 00 00 00 00 00 00 00 
       0001FEF2 00 00 00 00 00 00 00 00 00 00 
       0001FEFC 00 00 00 00 00 00 00 00 00 00 
       0001FF06 00 00 00 00 00 00 00 00 00 00 
       0001FF10 00 00 00 00 00 00 00 00 00 00 
       0001FF1A 00 00 00 00 00 00 00 00 00 00 
       0001FF24 00 00 00 00 00 00 00 00 00 00 
       0001FF2E 00 00 00 00 00 00 00 00 00 00 
       0001FF38 00 00 00 00 00 00 00 00 00 00 
       0001FF42 00 00 00 00 00 00 00 00 00 00 
       0001FF4C 00 00 00 00 00 00 00 00 00 00 
       0001FF56 00 00 00 00 00 00 00 00 00 00 
       0001FF60 00 00 00 00 00 00 00 00 00 00 
       0001FF6A 00 00 00 00 00 00 00 00 00 00 
       0001FF74 00 00 00 00 00 00 00 00 00 00 
       0001FF7E 00 00 00 00 00 00 00 00 00 00 
       0001FF88 00 00 00 00 00 00 00 00 00 00 
       0001FF92 00 00 00 00 00 00 00 00 00 00 
       0001FF9C 00 00 00 00 00 00 00 00 00 00 
       0001FFA6 00 00 00 00 00 00 00 00 00 00 
       0001FFB0 00 00 00 00 00 00 00 00 00 00 
       0001FFBA 00 00 00 00 00 00 00 00 00 00 
       0001FFC4 00 00 00 00 00 00 00 00 00 00 
       0001FFCE 00 00 00 00 00 00 00 00 00 00 
       0001FFD8 00 00 00 00 00 00 00 00 00 00 
       0001FFE2 00 00 00 00 00 00 00 00 00 00 
       0001FFEC 00 00 00 00 00 00 00 00 00 00 
       0001FFF6 00 00 00 00 00 00 00 00 00 00 
       00020000 00 00 00 00 00 00 00 00 00 00 
       0002000A 00 00 00 00 00 00 00 00 00 00 
       00020014 00 00 00 00 00 00 00 00 00 00 
       0002001E 00 00 00 00 00 00 00 00 00 00 
       00020028 00 00 00 00 00 00 00 00 00 00 
       00020032 00 00 00 00 00 00 00 00 00 00 
       0002003C 00 00 00 00 00 00 00 00 00 00 
       00020046 00 00 00 00 00 00 00 00 00 00 
       00020050 00 00 00 00 00 00 00 00 00 00 
       0002005A 00 00 00 00 00 00 00 00 00 00 
       00020064 00 00 00 00 00 00 00 00 00 00 
       0002006E 00 00 00 00 00 00 00 00 00 00 
       00020078 00 00 00 00 00 00 00 00 00 00 
       00020082 00 00 00 00 00 00 00 00 00 00 
       0002008C 00 00 00 00 00 00 00 00 00 00 
       00020096 00 00 00 00 00 00 00 00 00 00 
       000200A0 00 00 00 00 00 00 00 00 00 00 
       000200AA 00 00 00 00 00 00 00 00 00 00 
       000200B4 00 00 00 00 00 00 00 00 00 00 
       000200BE 00 00 00 00 00 00 00 00 00 00 
       000200C8 00 00 00 00 00 00 00 00 00 00 
       000200D2 00 00 00 00 00 00 00 00 00 00 
       000200DC 00 00 00 00 00 00 00 00 00 00 
       000200E6 00 00 00 00 00 00 00 00 00 00 
       000200F0 00 00 00 00 00 00 00 00 00 00 
       000200FA 00 00 00 00 00 00 00 00 00 00 
       00020104 00 00 00 00 00 00 00 00 00 00 
       0002010E 00 00 00 00 00 00 00 00 00 00 
       00020118 00 00 00 00 00 00 00 00 00 00 
       00020122 00 00 00 00 00 00 00 00 00 00 
       0002012C 00 00 00 00 00 00 00 00 00 00 
       00020136 00 00 00 00 00 00 00 00 00 00 
       00020140 00 00 00 00 00 00 00 00 00 00 
       0002014A 00 00 00 00 00 00 00 00 00 00 
       00020154 00 00 00 00 00 00 00 00 00 00 
       0002015E 00 00 00 00 00 00 00 00 00 00 
       00020168 00 00 00 00 00 00 00 00 00 00 
       00020172 00 00 00 00 00 00 00 00 00 00 
       0002017C 00 00 00 00 00 00 00 00 00 00 
       00020186 00 00 00 00 00 00 00 00 00 00 
       00020190 00 00 00 00 00 00 00 00 00 00 
       0002019A 00 00 00 00 00 00 00 00 00 00 
       000201A4 00 00 00 00 00 00 00 00 00 00 
       000201AE 00 00 00 00 00 00 00 00 00 00 
       000201B8 00 00 00 00 00 00 00 00 00 00 
       000201C2 00 00 00 00 00 00 00 00 00 00 
       000201CC 00 00 00 00 00 00 00 00 00 00 
       000201D6 00 00 00 00 00 00 00 00 00 00 
       000201E0 00 00 00 00 00 00 00 00 00 00 
       000201EA 00 00 00 00 00 00 00 00 00 00 
       000201F4 00 00 00 00 00 00 00 00 00 00 
       000201FE 00 00 00 00 00 00 00 00 00 00 
       00020208 00 00 00 00 00 00 00 00 00 00 
       00020212 00 00 00 00 00 00 00 00 00 00 
       0002021C 00 00 00 00 00 00 00 00 00 00 
       00020226 00 00 00 00 00 00 00 00 00 00 
       00020230 00 00 00 00 00 00 00 00 00 00 
       0002023A 00 00 00 00 00 00 00 00 00 00 
       00020244 00 00 00 00 00 00 00 00 00 00 
       0002024E 00 00 00 00 00 00 00 00 00 00 
       00020258 00 00 00 00 00 00 00 00 00 00 
       00020262 00 00 00 00 00 00 00 00 00 00 
       0002026C 00 00 00 00 00 00 00 00 00 00 
       00020276 00 00 00 00 00 00 00 00 00 00 
       00020280 00 00 00 00 00 00 00 00 00 00 
       0002028A 00 00 00 00 00 00 00 00 00 00 
       00020294 00 00 00 00 00 00 00 00 00 00 
       0002029E 00 00 00 00 00 00 00 00 00 00 
       000202A8 00 00 00 00 00 00 00 00 00 00 
       000202B2 00 00 00 00 00 00 00 00 00 00 
       000202BC 00 00 00 00 00 00 00 00 00 00 
       000202C6 00 00 00 00 00 00 00 00 00 00 
       000202D0 00 00 00 00 00 00 00 00 00 00 
       000202DA 00 00 00 00 00 00 00 00 00 00 
       000202E4 00 00 00 00 00 00 00 00 00 00 
       000202EE 00 00 00 00 00 00 00 00 00 00 
       000202F8 00 00 00 00 00 00 00 00 00 00 
       00020302 00 00 00 00 00 00 00 00 00 00 
       0002030C 00 00 00 00 00 00 00 00 00 00 
       00020316 00 00 00 00 00 00 00 00 00 00 
       00020320 00 00 00 00 00 00 00 00 00 00 
       0002032A 00 00 00 00 00 00 00 00 00 00 
       00020334 00 00 00 00 00 00 00 00 00 00 
       0002033E 00 00 00 00 00 00 00 00 00 00 
       00020348 00 00 00 00 00 00 00 00 00 00 
       00020352 00 00 00 00 00 00 00 00 00 00 
       0002035C 00 00 00 00 00 00 00 00 00 00 
       00020366 00 00 00 00 00 00 00 00 00 00 
       00020370 00 00 00 00 00 00 00 00 00 00 
       0002037A 00 00 00 00 00 00 00 00 00 00 
       00020384 00 00 00 00 00 00 00 00 00 00 
       0002038E 00 00 00 00 00 00 00 00 00 00 
       00020398 00 00 00 00 00 00 00 00 00 00 
       000203A2 00 00 00 00 00 00 00 00 00 00 
       000203AC 00 00 00 00 00 00 00 00 00 00 
       000203B6 00 00 00 00 00 00 00 00 00 00 
       000203C0 00 00 00 00 00 00 00 00 00 00 
       000203CA 00 00 00 00 00 00 00 00 00 00 
       000203D4 00 00 00 00 00 00 00 00 00 00 
       000203DE 00 00 00 00 00 00 00 00 00 00 
       000203E8 00 00 00 00 00 00 00 00 00 00 
       000203F2 00 00 00 00 00 00 00 00 00 00 
       000203FC 00 00 00 00 00 00 00 00 00 00 
       00020406 00 00 00 00 00 00 00 00 00 00 
       00020410 00 00 00 00 00 00 00 00 00 00 
       0002041A 00 00 00 00 00 00 00 00 00 00 
       00020424 00 00 00 00 00 00 00 00 00 00 
       0002042E 00 00 00 00 00 00 00 00 00 00 
       00020438 00 00 00 00 00 00 00 00 00 00 
       00020442 00 00 00 00 00 00 00 00 00 00 
       0002044C 00 00 00 00 00 00 00 00 00 00 
       00020456 00 00 00 00 00 00 00 00 00 00 
       00020460 00 00 00 00 00 00 00 00 00 00 
       0002046A 00 00 00 00 00 00 00 00 00 00 
       00020474 00 00 00 00 00 00 00 00 00 00 
       0002047E 00 00 00 00 00 00 00 00 00 00 
       00020488 00 00 00 00 00 00 00 00 00 00 
       00020492 00 00 00 00 00 00 00 00 00 00 
       0002049C 00 00 00 00 00 00 00 00 00 00 
       000204A6 00 00 00 00 00 00 00 00 00 00 
       000204B0 00 00 00 00 00 00 00 00 00 00 
       000204BA 00 00 00 00 00 00 00 00 00 00 
       000204C4 00 00 00 00 00 00 00 00 00 00 
       000204CE 00 00 00 00 00 00 00 00 00 00 
       000204D8 00 00 00 00 00 00 00 00 00 00 
       000204E2 00 00 00 00 00 00 00 00 00 00 
       000204EC 00 00 00 00 00 00 00 00 00 00 
       000204F6 00 00 00 00 00 00 00 00 00 00 
       00020500 00 00 00 00 00 00 00 00 00 00 
       0002050A 00 00 00 00 00 00 00 00 00 00 
       00020514 00 00 00 00 00 00 00 00 00 00 
       0002051E 00 00 00 00 00 00 00 00 00 00 
       00020528 00 00 00 00 00 00 00 00 00 00 
       00020532 00 00 00 00 00 00 00 00 00 00 
       0002053C 00 00 00 00 00 00 00 00 00 00 
       00020546 00 00 00 00 00 00 00 00 00 00 
       00020550 00 00 00 00 00 00 00 00 00 00 
       0002055A 00 00 00 00 00 00 00 00 00 00 
       00020564 00 00 00 00 00 00 00 00 00 00 
       0002056E 00 00 00 00 00 00 00 00 00 00 
       00020578 00 00 00 00 00 00 00 00 00 00 
       00020582 00 00 00 00 00 00 00 00 00 00 
       0002058C 00 00 00 00 00 00 00 00 00 00 
       00020596 00 00 00 00 00 00 00 00 00 00 
       000205A0 00 00 00 00 00 00 00 00 00 00 
       000205AA 00 00 00 00 00 00 00 00 00 00 
       000205B4 00 00 00 00 00 00 00 00 00 00 
       000205BE 00 00 00 00 00 00 00 00 00 00 
       000205C8 00 00 00 00 00 00 00 00 00 00 
       000205D2 00 00 00 00 00 00 00 00 00 00 
       000205DC 00 00 00 00 00 00 00 00 00 00 
       000205E6 00 00 00 00 00 00 00 00 00 00 
       000205F0 00 00 00 00 00 00 00 00 00 00 
       000205FA 00 00 00 00 00 00 00 00 00 00 
       00020604 00 00 00 00 00 00 00 00 00 00 
       0002060E 00 00 00 00 00 00 00 00 00 00 
       00020618 00 00 00 00 00 00 00 00 00 00 
       00020622 00 00 00 00 00 00 00 00 00 00 
       0002062C 00 00 00 00 00 00 00 00 00 00 
       00020636 00 00 00 00 00 00 00 00 00 00 
       00020640 00 00 00 00 00 00 00 00 00 00 
       0002064A 00 00 00 00 00 00 00 00 00 00 
       00020654 00 00 00 00 00 00 00 00 00 00 
       0002065E 00 00 00 00 00 00 00 00 00 00 
       00020668 00 00 00 00 00 00 00 00 00 00 
       00020672 00 00 00 00 00 00 00 00 00 00 
       0002067C 00 00 00 00 00 00 00 00 00 00 
       00020686 00 00 00 00 00 00 00 00 00 00 
       00020690 00 00 00 00 00 00 00 00 00 00 
       0002069A 00 00 00 00 00 00 00 00 00 00 
       000206A4 00 00 00 00 00 00 00 00 00 00 
       000206AE 00 00 00 00 00 00 00 00 00 00 
       000206B8 00 00 00 00 00 00 00 00 00 00 
       000206C2 00 00 00 00 00 00 00 00 00 00 
       000206CC 00 00 00 00 00 00 00 00 00 00 
       000206D6 00 00 00 00 00 00 00 00 00 00 
       000206E0 00 00 00 00 00 00 00 00 00 00 
       000206EA 00 00 00 00 00 00 00 00 00 00 
       000206F4 00 00 00 00 00 00 00 00 00 00 
       000206FE 00 00 00 00 00 00 00 00 00 00 
       00020708 00 00 00 00 00 00 00 00 00 00 
       00020712 00 00 00 00 00 00 00 00 00 00 
       0002071C 00 00 00 00 00 00 00 00 00 00 
       00020726 00 00 00 00 00 00 00 00 00 00 
       00020730 00 00 00 00 00 00 00 00 00 00 
       0002073A 00 00 00 00 00 00 00 00 00 00 
       00020744 00 00 00 00 00 00 00 00 00 00 
       0002074E 00 00 00 00 00 00 00 00 00 00 
       00020758 00 00 00 00 00 00 00 00 00 00 
       00020762 00 00 00 00 00 00 00 00 00 00 
       0002076C 00 00 00 00 00 00 00 00 00 00 
       00020776 00 00 00 00 00 00 00 00 00 00 
       00020780 00 00 00 00 00 00 00 00 00 00 
       0002078A 00 00 00 00 00 00 00 00 00 00 
       00020794 00 00 00 00 00 00 00 00 00 00 
       0002079E 00 00 00 00 00 00 00 00 00 00 
       000207A8 00 00 00 00 00 00 00 00 00 00 
       000207B2 00 00 00 00 00 00 00 00 00 00 
       000207BC 00 00 00 00 00 00 00 00 00 00 
       000207C6 00 00 00 00 00 00 00 00 00 00 
       000207D0 00 00 00 00 00 00 00 00 00 00 
       000207DA 00 00 00 00 00 00 00 00 00 00 
       000207E4 00 00 00 00 00 00 00 00 00 00 
       000207EE 00 00 00 00 00 00 00 00 00 00 
       000207F8 00 00 00 00 00 00 00 00 00 00 
       00020802 00 00 00 00 00 00 00 00 00 00 
       0002080C 00 00 00 00 00 00 00 00 00 00 
       00020816 00 00 00 00 00 00 00 00 00 00 
       00020820 00 00 00 00 00 00 00 00 00 00 
       0002082A 00 00 00 00 00 00 00 00 00 00 
       00020834 00 00 00 00 00 00 00 00 00 00 
       0002083E 00 00 00 00 00 00 00 00 00 00 
       00020848 00 00 00 00 00 00 00 00 00 00 
       00020852 00 00 00 00 00 00 00 00 00 00 
       0002085C 00 00 00 00 00 00 00 00 00 00 
       00020866 00 00 00 00 00 00 00 00 00 00 
       00020870 00 00 00 00 00 00 00 00 00 00 
       0002087A 00 00 00 00 00 00 00 00 00 00 
       00020884 00 00 00 00 00 00 00 00 00 00 
       0002088E 00 00 
