     1 00000000                                 [FORMAT "WCOFF"]
     2 00000000                                 [INSTRSET "i486p"]
     3 00000000                                 [OPTIMIZE 1]
     4 00000000                                 [OPTION 1]
     5 00000000                                 [BITS 32]
     6 00000000                                 	EXTERN	_boxfill8
     7 00000000                                 	EXTERN	_taskctl
     8 00000000                                 	EXTERN	_sheet_refresh
     9 00000000                                 	EXTERN	_sprintf
    10 00000000                                 	EXTERN	_putfonts8_asc
    11 00000000                                 	EXTERN	_memman_total
    12 00000000                                 	EXTERN	_task_now
    13 00000000                                 	EXTERN	_timer_alloc
    14 00000000                                 	EXTERN	_sheet_alloc
    15 00000000                                 	EXTERN	_memman_alloc_4k
    16 00000000                                 	EXTERN	_sheet_setbuf
    17 00000000                                 	EXTERN	_make_window8
    18 00000000                                 	EXTERN	_make_textbox8
    19 00000000                                 	EXTERN	_taskmgr
    20 00000000                                 	EXTERN	_sheet_slide
    21 00000000                                 	EXTERN	_sheet_updown
    22 00000000                                 	EXTERN	_keywin_on
    23 00000000                                 	EXTERN	_timer_init
    24 00000000                                 	EXTERN	_timer_settime
    25 00000000                                 	EXTERN	_io_cli
    26 00000000                                 	EXTERN	_fifo32_status
    27 00000000                                 	EXTERN	_fifo32_get
    28 00000000                                 	EXTERN	_io_sti
    29 00000000                                 	EXTERN	_timer_cancel
    30 00000000                                 	EXTERN	_timer_free
    31 00000000                                 	EXTERN	_memman_free_4k
    32 00000000                                 	EXTERN	_sheet_free
    33 00000000                                 	EXTERN	_fifo32_put_io
    34 00000000                                 	EXTERN	_task_sleep
    35 00000000                                 	EXTERN	_io_out8
    36 00000000                                 	EXTERN	_io_in8
    37 00000000                                 	EXTERN	_putfonts8_asc_sht
    38 00000000                                 [FILE "tasksmgr.c"]
    39                                          [SECTION .data]
    40 00000000                                 LC1:
    41 00000000 43 50 55 20 20 20 20 3A 20 20   	DB	"CPU    :        %3d ",0x81,0x93,"     %4d TS",0x00
       0000000A 20 20 20 20 20 20 25 33 64 20 
       00000014 81 93 20 20 20 20 20 25 34 64 
       0000001E 20 54 53 00 
    42 00000022                                 LC2:
    43 00000022 4D 65 6D 6F 72 79 20 3A 20 20   	DB	"Memory :    %7d ",0x81,"^  %7d KB",0x00
       0000002C 20 20 25 37 64 20 81 5E 20 20 
       00000036 25 37 64 20 4B 42 00 
    44 0000003D                                 LC0:
    45 0000003D 25 33 64 20 25 2D 31 35 73 20   	DB	"%3d %-15s %1d %1d %1d",0x00
       00000047 25 31 64 20 25 31 64 20 25 31 
       00000051 64 00 
    46                                          [SECTION .text]
    47 00000000                                 	GLOBAL	_task_display
    48 00000000                                 _task_display:
    49 00000000 55                              	PUSH	EBP
    50 00000001 89 E5                           	MOV	EBP,ESP
    51 00000003 57                              	PUSH	EDI
    52 00000004 56                              	PUSH	ESI
    53 00000005 53                              	PUSH	EBX
    54 00000006 83 EC 3C                        	SUB	ESP,60
    55 00000009 8B 45 08                        	MOV	EAX,DWORD [8+EBP]
    56 0000000C 68 000000EF                     	PUSH	239
    57 00000011 68 0000011F                     	PUSH	287
    58 00000016 6A 30                           	PUSH	48
    59 00000018 6A 08                           	PUSH	8
    60 0000001A 6A 00                           	PUSH	0
    61 0000001C FF 70 04                        	PUSH	DWORD [4+EAX]
    62 0000001F FF 30                           	PUSH	DWORD [EAX]
    63 00000021 C7 45 C0 00000000               	MOV	DWORD [-64+EBP],0
    64 00000028 E8 [00000000]                   	CALL	_boxfill8
    65 0000002D A1 [00000000]                   	MOV	EAX,DWORD [_taskctl]
    66 00000032 8B 75 0C                        	MOV	ESI,DWORD [12+EBP]
    67 00000035 83 C4 1C                        	ADD	ESP,28
    68 00000038 3B B0 00034445                  	CMP	ESI,DWORD [214085+EAX]
    69 0000003E 7D 3C                           	JGE	L3
    70 00000040 89 F2                           	MOV	EDX,ESI
    71 00000042 69 D2 000000D2                  	IMUL	EDX,EDX,210
    72 00000048 C7 45 B8 00000030               	MOV	DWORD [-72+EBP],48
    73 0000004F 89 55 BC                        	MOV	DWORD [-68+EBP],EDX
    74 00000052                                 L8:
    75 00000052 8B 5D BC                        	MOV	EBX,DWORD [-68+EBP]
    76 00000055 01 C3                           	ADD	EBX,EAX
    77 00000057 8D 93 00000FF0                  	LEA	EDX,DWORD [4080+EBX]
    78 0000005D 83 7A 09 00                     	CMP	DWORD [9+EDX],0
    79 00000061 0F 85 0000010D                  	JNE	L14
    80 00000067                                 L4:
    81 00000067 A1 [00000000]                   	MOV	EAX,DWORD [_taskctl]
    82 0000006C 46                              	INC	ESI
    83 0000006D 81 45 BC 000000D2               	ADD	DWORD [-68+EBP],210
    84 00000074 3B B0 00034445                  	CMP	ESI,DWORD [214085+EAX]
    85 0000007A 7C D6                           	JL	L8
    86 0000007C                                 L3:
    87 0000007C 83 7D 10 00                     	CMP	DWORD [16+EBP],0
    88 00000080 75 1E                           	JNE	L9
    89 00000082 68 000000F0                     	PUSH	240
    90 00000087 68 00000120                     	PUSH	288
    91 0000008C                                 L13:
    92 0000008C 6A 30                           	PUSH	48
    93 0000008E 6A 08                           	PUSH	8
    94 00000090 FF 75 08                        	PUSH	DWORD [8+EBP]
    95 00000093 E8 [00000000]                   	CALL	_sheet_refresh
    96 00000098 8D 65 F4                        	LEA	ESP,DWORD [-12+EBP]
    97 0000009B 5B                              	POP	EBX
    98 0000009C 5E                              	POP	ESI
    99 0000009D 5F                              	POP	EDI
   100 0000009E 5D                              	POP	EBP
   101 0000009F C3                              	RET
   102 000000A0                                 L9:
   103 000000A0 68 00000119                     	PUSH	281
   104 000000A5 8B 55 08                        	MOV	EDX,DWORD [8+EBP]
   105 000000A8 68 0000011F                     	PUSH	287
   106 000000AD BB 0000000A                     	MOV	EBX,10
   107 000000B2 68 000000FA                     	PUSH	250
   108 000000B7 8D 7D C4                        	LEA	EDI,DWORD [-60+EBP]
   109 000000BA 6A 08                           	PUSH	8
   110 000000BC 8D 75 C4                        	LEA	ESI,DWORD [-60+EBP]
   111 000000BF 6A 07                           	PUSH	7
   112 000000C1 FF 72 04                        	PUSH	DWORD [4+EDX]
   113 000000C4 FF 32                           	PUSH	DWORD [EDX]
   114 000000C6 E8 [00000000]                   	CALL	_boxfill8
   115 000000CB 31 C0                           	XOR	EAX,EAX
   116 000000CD FC                              	CLD
   117 000000CE 89 D9                           	MOV	ECX,EBX
   118 000000D0 F3                              	REP
   119 000000D1 AB                              	STOSD
   120 000000D2 A1 [00000000]                   	MOV	EAX,DWORD [_taskctl]
   121 000000D7 8B 55 14                        	MOV	EDX,DWORD [20+EBP]
   122 000000DA 83 FA 64                        	CMP	EDX,100
   123 000000DD FF B0 00034449                  	PUSH	DWORD [214089+EAX]
   124 000000E3 7E 05                           	JLE	L11
   125 000000E5 BA 00000064                     	MOV	EDX,100
   126 000000EA                                 L11:
   127 000000EA B8 00000064                     	MOV	EAX,100
   128 000000EF 89 F7                           	MOV	EDI,ESI
   129 000000F1 29 D0                           	SUB	EAX,EDX
   130 000000F3 50                              	PUSH	EAX
   131 000000F4 68 [00000000]                   	PUSH	LC1
   132 000000F9 56                              	PUSH	ESI
   133 000000FA E8 [00000000]                   	CALL	_sprintf
   134 000000FF 8B 55 08                        	MOV	EDX,DWORD [8+EBP]
   135 00000102 83 C4 2C                        	ADD	ESP,44
   136 00000105 56                              	PUSH	ESI
   137 00000106 6A 01                           	PUSH	1
   138 00000108 6A 04                           	PUSH	4
   139 0000010A 68 000000FA                     	PUSH	250
   140 0000010F 6A 0C                           	PUSH	12
   141 00000111 FF 72 04                        	PUSH	DWORD [4+EDX]
   142 00000114 FF 32                           	PUSH	DWORD [EDX]
   143 00000116 E8 [00000000]                   	CALL	_putfonts8_asc
   144 0000011B 31 C0                           	XOR	EAX,EAX
   145 0000011D FC                              	CLD
   146 0000011E 89 D9                           	MOV	ECX,EBX
   147 00000120 F3                              	REP
   148 00000121 AB                              	STOSD
   149 00000122 8B 45 18                        	MOV	EAX,DWORD [24+EBP]
   150 00000125 C1 E8 0A                        	SHR	EAX,10
   151 00000128 50                              	PUSH	EAX
   152 00000129 68 003C0000                     	PUSH	3932160
   153 0000012E E8 [00000000]                   	CALL	_memman_total
   154 00000133 5A                              	POP	EDX
   155 00000134 29 45 18                        	SUB	DWORD [24+EBP],EAX
   156 00000137 C1 6D 18 0A                     	SHR	DWORD [24+EBP],10
   157 0000013B FF 75 18                        	PUSH	DWORD [24+EBP]
   158 0000013E 68 [00000022]                   	PUSH	LC2
   159 00000143 56                              	PUSH	ESI
   160 00000144 E8 [00000000]                   	CALL	_sprintf
   161 00000149 8B 55 08                        	MOV	EDX,DWORD [8+EBP]
   162 0000014C 83 C4 2C                        	ADD	ESP,44
   163 0000014F 56                              	PUSH	ESI
   164 00000150 6A 01                           	PUSH	1
   165 00000152 6A 04                           	PUSH	4
   166 00000154 68 0000010A                     	PUSH	266
   167 00000159 6A 0C                           	PUSH	12
   168 0000015B FF 72 04                        	PUSH	DWORD [4+EDX]
   169 0000015E FF 32                           	PUSH	DWORD [EDX]
   170 00000160 E8 [00000000]                   	CALL	_putfonts8_asc
   171 00000165 68 0000017E                     	PUSH	382
   172 0000016A 68 0000024C                     	PUSH	588
   173 0000016F E9 FFFFFF18                     	JMP	L13
   174 00000174                                 L14:
   175 00000174 FC                              	CLD
   176 00000175 31 C0                           	XOR	EAX,EAX
   177 00000177 8D 7D C4                        	LEA	EDI,DWORD [-60+EBP]
   178 0000017A B9 0000000A                     	MOV	ECX,10
   179 0000017F F3                              	REP
   180 00000180 AB                              	STOSD
   181 00000181 FF 72 09                        	PUSH	DWORD [9+EDX]
   182 00000184 FF 72 11                        	PUSH	DWORD [17+EDX]
   183 00000187 FF 72 0D                        	PUSH	DWORD [13+EDX]
   184 0000018A 8D 83 000010B3                  	LEA	EAX,DWORD [4275+EBX]
   185 00000190 8D 7D C4                        	LEA	EDI,DWORD [-60+EBP]
   186 00000193 50                              	PUSH	EAX
   187 00000194 56                              	PUSH	ESI
   188 00000195 68 [0000003D]                   	PUSH	LC0
   189 0000019A 57                              	PUSH	EDI
   190 0000019B E8 [00000000]                   	CALL	_sprintf
   191 000001A0 8B 45 08                        	MOV	EAX,DWORD [8+EBP]
   192 000001A3 57                              	PUSH	EDI
   193 000001A4 FF 45 C0                        	INC	DWORD [-64+EBP]
   194 000001A7 6A 01                           	PUSH	1
   195 000001A9 6A 07                           	PUSH	7
   196 000001AB FF 75 B8                        	PUSH	DWORD [-72+EBP]
   197 000001AE 6A 0C                           	PUSH	12
   198 000001B0 FF 70 04                        	PUSH	DWORD [4+EAX]
   199 000001B3 FF 30                           	PUSH	DWORD [EAX]
   200 000001B5 83 45 B8 10                     	ADD	DWORD [-72+EBP],16
   201 000001B9 E8 [00000000]                   	CALL	_putfonts8_asc
   202 000001BE 83 C4 38                        	ADD	ESP,56
   203 000001C1 83 7D C0 0B                     	CMP	DWORD [-64+EBP],11
   204 000001C5 0F 8E FFFFFE9C                  	JLE	L4
   205 000001CB E9 FFFFFEAC                     	JMP	L3
   206                                          [SECTION .data]
   207 00000053                                 LC5:
   208 00000053 20 49 44 20 4E 41 4D 45 20 20   	DB	" ID NAME           LV  TIME",0x00
       0000005D 20 20 20 20 20 20 20 20 20 4C 
       00000067 56 20 20 54 49 4D 45 00 
   209 0000006F                                 LC3:
   210 0000006F 74 6D 67 00                     	DB	"tmg",0x00
   211 00000073                                 LC4:
   212 00000073 74 61 73 6B 6D 67 72 00         	DB	"taskmgr",0x00
   213                                          [SECTION .text]
   214 000001D0                                 	GLOBAL	_taskmgr_task
   215 000001D0                                 _taskmgr_task:
   216 000001D0 55                              	PUSH	EBP
   217 000001D1 89 E5                           	MOV	EBP,ESP
   218 000001D3 57                              	PUSH	EDI
   219 000001D4 56                              	PUSH	ESI
   220 000001D5 BE [00000053]                   	MOV	ESI,LC5
   221 000001DA 53                              	PUSH	EBX
   222 000001DB 83 EC 6C                        	SUB	ESP,108
   223 000001DE C7 45 A0 00000000               	MOV	DWORD [-96+EBP],0
   224 000001E5 E8 [00000000]                   	CALL	_task_now
   225 000001EA 68 [0000006F]                   	PUSH	LC3
   226 000001EF 89 45 9C                        	MOV	DWORD [-100+EBP],EAX
   227 000001F2 E8 [00000000]                   	CALL	_timer_alloc
   228 000001F7 8B 15 00000FE4                  	MOV	EDX,DWORD [4068]
   229 000001FD 89 45 98                        	MOV	DWORD [-104+EBP],EAX
   230 00000200 89 55 90                        	MOV	DWORD [-112+EBP],EDX
   231 00000203 A1 00000FEC                     	MOV	EAX,DWORD [4076]
   232 00000208 52                              	PUSH	EDX
   233 00000209 89 45 94                        	MOV	DWORD [-108+EBP],EAX
   234 0000020C E8 [00000000]                   	CALL	_sheet_alloc
   235 00000211 68 00029EA0                     	PUSH	171680
   236 00000216 68 003C0000                     	PUSH	3932160
   237 0000021B 89 45 8C                        	MOV	DWORD [-116+EBP],EAX
   238 0000021E E8 [00000000]                   	CALL	_memman_alloc_4k
   239 00000223 8B 7D 9C                        	MOV	EDI,DWORD [-100+EBP]
   240 00000226 89 C3                           	MOV	EBX,EAX
   241 00000228 C6 87 000000BC 01               	MOV	BYTE [188+EDI],1
   242 0000022F 6A FF                           	PUSH	-1
   243 00000231 68 00000122                     	PUSH	290
   244 00000236 68 00000128                     	PUSH	296
   245 0000023B 50                              	PUSH	EAX
   246 0000023C FF 75 8C                        	PUSH	DWORD [-116+EBP]
   247 0000023F E8 [00000000]                   	CALL	_sheet_setbuf
   248 00000244 83 C4 24                        	ADD	ESP,36
   249 00000247 6A 00                           	PUSH	0
   250 00000249 68 [00000073]                   	PUSH	LC4
   251 0000024E 68 00000122                     	PUSH	290
   252 00000253 68 00000128                     	PUSH	296
   253 00000258 53                              	PUSH	EBX
   254 00000259 E8 [00000000]                   	CALL	_make_window8
   255 0000025E 6A 00                           	PUSH	0
   256 00000260 68 000000D4                     	PUSH	212
   257 00000265 68 00000118                     	PUSH	280
   258 0000026A 6A 1C                           	PUSH	28
   259 0000026C 6A 08                           	PUSH	8
   260 0000026E FF 75 8C                        	PUSH	DWORD [-116+EBP]
   261 00000271 E8 [00000000]                   	CALL	_make_textbox8
   262 00000276 83 C4 2C                        	ADD	ESP,44
   263 00000279 6A 07                           	PUSH	7
   264 0000027B 6A 20                           	PUSH	32
   265 0000027D 68 00000118                     	PUSH	280
   266 00000282 68 000000FA                     	PUSH	250
   267 00000287 6A 08                           	PUSH	8
   268 00000289 FF 75 8C                        	PUSH	DWORD [-116+EBP]
   269 0000028C E8 [00000000]                   	CALL	_make_textbox8
   270 00000291 B9 00000014                     	MOV	ECX,20
   271 00000296 FC                              	CLD
   272 00000297 8D 45 A4                        	LEA	EAX,DWORD [-92+EBP]
   273 0000029A 89 45 88                        	MOV	DWORD [-120+EBP],EAX
   274 0000029D 89 C7                           	MOV	EDI,EAX
   275 0000029F 8B 45 A0                        	MOV	EAX,DWORD [-96+EBP]
   276 000002A2 F3                              	REP
   277 000002A3 AB                              	STOSD
   278 000002A4 B9 00000007                     	MOV	ECX,7
   279 000002A9 8D 7D A4                        	LEA	EDI,DWORD [-92+EBP]
   280 000002AC F3                              	REP
   281 000002AD A5                              	MOVSD
   282 000002AE 8D 45 A4                        	LEA	EAX,DWORD [-92+EBP]
   283 000002B1 8B 55 8C                        	MOV	EDX,DWORD [-116+EBP]
   284 000002B4 50                              	PUSH	EAX
   285 000002B5 6A 01                           	PUSH	1
   286 000002B7 6A 07                           	PUSH	7
   287 000002B9 6A 1D                           	PUSH	29
   288 000002BB 6A 0D                           	PUSH	13
   289 000002BD FF 72 04                        	PUSH	DWORD [4+EDX]
   290 000002C0 FF 32                           	PUSH	DWORD [EDX]
   291 000002C2 E8 [00000000]                   	CALL	_putfonts8_asc
   292 000002C7 83 C4 34                        	ADD	ESP,52
   293 000002CA 8B 7D 8C                        	MOV	EDI,DWORD [-116+EBP]
   294 000002CD A1 [00000000]                   	MOV	EAX,DWORD [_taskmgr]
   295 000002D2 89 47 24                        	MOV	DWORD [36+EDI],EAX
   296 000002D5 6A 08                           	PUSH	8
   297 000002D7 68 00000150                     	PUSH	336
   298 000002DC 57                              	PUSH	EDI
   299 000002DD E8 [00000000]                   	CALL	_sheet_slide
   300 000002E2 8B 45 90                        	MOV	EAX,DWORD [-112+EBP]
   301 000002E5 FF 70 10                        	PUSH	DWORD [16+EAX]
   302 000002E8 57                              	PUSH	EDI
   303 000002E9 E8 [00000000]                   	CALL	_sheet_updown
   304 000002EE 57                              	PUSH	EDI
   305 000002EF E8 [00000000]                   	CALL	_keywin_on
   306 000002F4 8B 45 9C                        	MOV	EAX,DWORD [-100+EBP]
   307 000002F7 6A 01                           	PUSH	1
   308 000002F9 83 C0 10                        	ADD	EAX,16
   309 000002FC 50                              	PUSH	EAX
   310 000002FD FF 75 98                        	PUSH	DWORD [-104+EBP]
   311 00000300 E8 [00000000]                   	CALL	_timer_init
   312 00000305 83 C4 24                        	ADD	ESP,36
   313 00000308 A1 [00000000]                   	MOV	EAX,DWORD [_taskctl]
   314 0000030D 8B B0 00001195                  	MOV	ESI,DWORD [4501+EAX]
   315 00000313 6A 01                           	PUSH	1
   316 00000315 FF 75 98                        	PUSH	DWORD [-104+EBP]
   317 00000318 83 EE 63                        	SUB	ESI,99
   318 0000031B E8 [00000000]                   	CALL	_timer_settime
   319 00000320 59                              	POP	ECX
   320 00000321 5B                              	POP	EBX
   321 00000322                                 L16:
   322 00000322 E8 [00000000]                   	CALL	_io_cli
   323 00000327 8B 5D 9C                        	MOV	EBX,DWORD [-100+EBP]
   324 0000032A 83 C3 10                        	ADD	EBX,16
   325 0000032D 53                              	PUSH	EBX
   326 0000032E E8 [00000000]                   	CALL	_fifo32_status
   327 00000333 5A                              	POP	EDX
   328 00000334 85 C0                           	TEST	EAX,EAX
   329 00000336 0F 84 000000EE                  	JE	L35
   330 0000033C 53                              	PUSH	EBX
   331 0000033D E8 [00000000]                   	CALL	_fifo32_get
   332 00000342 89 C3                           	MOV	EBX,EAX
   333 00000344 E8 [00000000]                   	CALL	_io_sti
   334 00000349 5F                              	POP	EDI
   335 0000034A 83 FB 01                        	CMP	EBX,1
   336 0000034D 0F 84 000000A3                  	JE	L36
   337 00000353 83 FB 04                        	CMP	EBX,4
   338 00000356 74 56                           	JE	L34
   339 00000358 8D 83 FFFFFF00                  	LEA	EAX,DWORD [-256+EBX]
   340 0000035E 3D 000000FF                     	CMP	EAX,255
   341 00000363 77 BD                           	JA	L16
   342 00000365 81 FB 00000132                  	CMP	EBX,306
   343 0000036B 74 29                           	JE	L37
   344 0000036D 81 FB 00000138                  	CMP	EBX,312
   345 00000373 74 16                           	JE	L38
   346 00000375                                 L28:
   347 00000375 6A 00                           	PUSH	0
   348 00000377 6A 00                           	PUSH	0
   349 00000379 6A 00                           	PUSH	0
   350 0000037B FF 75 A0                        	PUSH	DWORD [-96+EBP]
   351 0000037E FF 75 8C                        	PUSH	DWORD [-116+EBP]
   352 00000381 E8 FFFFFC7A                     	CALL	_task_display
   353 00000386 83 C4 14                        	ADD	ESP,20
   354 00000389 EB 97                           	JMP	L16
   355 0000038B                                 L38:
   356 0000038B 83 7D A0 00                     	CMP	DWORD [-96+EBP],0
   357 0000038F 7E E4                           	JLE	L28
   358 00000391 FF 4D A0                        	DEC	DWORD [-96+EBP]
   359 00000394 EB DF                           	JMP	L28
   360 00000396                                 L37:
   361 00000396 A1 [00000000]                   	MOV	EAX,DWORD [_taskctl]
   362 0000039B 8B 80 00034449                  	MOV	EAX,DWORD [214089+EAX]
   363 000003A1 83 E8 0C                        	SUB	EAX,12
   364 000003A4 39 45 A0                        	CMP	DWORD [-96+EBP],EAX
   365 000003A7 7D CC                           	JGE	L28
   366 000003A9 FF 45 A0                        	INC	DWORD [-96+EBP]
   367 000003AC EB C7                           	JMP	L28
   368 000003AE                                 L34:
   369 000003AE FF 75 98                        	PUSH	DWORD [-104+EBP]
   370 000003B1 E8 [00000000]                   	CALL	_timer_cancel
   371 000003B6 5B                              	POP	EBX
   372 000003B7 FF 75 98                        	PUSH	DWORD [-104+EBP]
   373 000003BA E8 [00000000]                   	CALL	_timer_free
   374 000003BF 8B 55 8C                        	MOV	EDX,DWORD [-116+EBP]
   375 000003C2 68 00029EA0                     	PUSH	171680
   376 000003C7 FF 32                           	PUSH	DWORD [EDX]
   377 000003C9 68 003C0000                     	PUSH	3932160
   378 000003CE E8 [00000000]                   	CALL	_memman_free_4k
   379 000003D3 FF 75 8C                        	PUSH	DWORD [-116+EBP]
   380 000003D6 E8 [00000000]                   	CALL	_sheet_free
   381 000003DB 68 000008E8                     	PUSH	2280
   382 000003E0 FF 75 94                        	PUSH	DWORD [-108+EBP]
   383 000003E3 E8 [00000000]                   	CALL	_fifo32_put_io
   384 000003E8 83 C4 1C                        	ADD	ESP,28
   385 000003EB                                 L31:
   386 000003EB FF 75 9C                        	PUSH	DWORD [-100+EBP]
   387 000003EE E8 [00000000]                   	CALL	_task_sleep
   388 000003F3 59                              	POP	ECX
   389 000003F4 EB F5                           	JMP	L31
   390 000003F6                                 L36:
   391 000003F6 6A 64                           	PUSH	100
   392 000003F8 FF 75 98                        	PUSH	DWORD [-104+EBP]
   393 000003FB E8 [00000000]                   	CALL	_timer_settime
   394 00000400 A1 [00000000]                   	MOV	EAX,DWORD [_taskctl]
   395 00000405 8B 98 00001195                  	MOV	EBX,DWORD [4501+EAX]
   396 0000040B 89 D8                           	MOV	EAX,EBX
   397 0000040D FF 75 08                        	PUSH	DWORD [8+EBP]
   398 00000410 29 F0                           	SUB	EAX,ESI
   399 00000412 89 DE                           	MOV	ESI,EBX
   400 00000414 50                              	PUSH	EAX
   401 00000415 6A 01                           	PUSH	1
   402 00000417 FF 75 A0                        	PUSH	DWORD [-96+EBP]
   403 0000041A FF 75 8C                        	PUSH	DWORD [-116+EBP]
   404 0000041D E8 FFFFFBDE                     	CALL	_task_display
   405 00000422 83 C4 1C                        	ADD	ESP,28
   406 00000425 E9 FFFFFEF8                     	JMP	L16
   407 0000042A                                 L35:
   408 0000042A FF 75 9C                        	PUSH	DWORD [-100+EBP]
   409 0000042D E8 [00000000]                   	CALL	_task_sleep
   410 00000432 E8 [00000000]                   	CALL	_io_sti
   411 00000437 58                              	POP	EAX
   412 00000438 E9 FFFFFEE5                     	JMP	L16
   413                                          [SECTION .data]
   414 0000007B                                 _adr.0:
   415 0000007B 00                              	DB	0
   416 0000007C 02                              	DB	2
   417 0000007D 04                              	DB	4
   418 0000007E 07                              	DB	7
   419 0000007F 08                              	DB	8
   420 00000080 09                              	DB	9
   421 00000081 32                              	DB	50
   422 00000082                                 _max.1:
   423 00000082 60                              	DB	96
   424 00000083 59                              	DB	89
   425 00000084 23                              	DB	35
   426 00000085 31                              	DB	49
   427 00000086 12                              	DB	18
   428 00000087 99                              	DB	-103
   429 00000088 99                              	DB	-103
   430 00000089                                 LC6:
   431 00000089 73 63 6B 00                     	DB	"sck",0x00
   432 0000008D                                 LC7:
   433 0000008D 74 65 73 74 00                  	DB	"test",0x00
   434                                          [SECTION .text]
   435 0000043D                                 	GLOBAL	_sysclock_task
   436 0000043D                                 _sysclock_task:
   437 0000043D 55                              	PUSH	EBP
   438 0000043E 89 E5                           	MOV	EBP,ESP
   439 00000440 57                              	PUSH	EDI
   440 00000441 56                              	PUSH	ESI
   441 00000442 53                              	PUSH	EBX
   442 00000443 83 EC 1C                        	SUB	ESP,28
   443 00000446 E8 [00000000]                   	CALL	_task_now
   444 0000044B 68 [00000089]                   	PUSH	LC6
   445 00000450 89 45 DC                        	MOV	DWORD [-36+EBP],EAX
   446 00000453 E8 [00000000]                   	CALL	_timer_alloc
   447 00000458 6A 01                           	PUSH	1
   448 0000045A 89 45 D8                        	MOV	DWORD [-40+EBP],EAX
   449 0000045D 8B 45 DC                        	MOV	EAX,DWORD [-36+EBP]
   450 00000460 83 C0 10                        	ADD	EAX,16
   451 00000463 50                              	PUSH	EAX
   452 00000464 FF 75 D8                        	PUSH	DWORD [-40+EBP]
   453 00000467 E8 [00000000]                   	CALL	_timer_init
   454 0000046C 6A 64                           	PUSH	100
   455 0000046E FF 75 D8                        	PUSH	DWORD [-40+EBP]
   456 00000471 E8 [00000000]                   	CALL	_timer_settime
   457 00000476 83 C4 18                        	ADD	ESP,24
   458 00000479                                 L40:
   459 00000479 E8 [00000000]                   	CALL	_io_cli
   460 0000047E 8B 5D DC                        	MOV	EBX,DWORD [-36+EBP]
   461 00000481 83 C3 10                        	ADD	EBX,16
   462 00000484 53                              	PUSH	EBX
   463 00000485 E8 [00000000]                   	CALL	_fifo32_status
   464 0000048A 5A                              	POP	EDX
   465 0000048B 85 C0                           	TEST	EAX,EAX
   466 0000048D 0F 84 000000F1                  	JE	L69
   467 00000493 53                              	PUSH	EBX
   468 00000494 E8 [00000000]                   	CALL	_fifo32_get
   469 00000499 89 C3                           	MOV	EBX,EAX
   470 0000049B E8 [00000000]                   	CALL	_io_sti
   471 000004A0 58                              	POP	EAX
   472 000004A1 4B                              	DEC	EBX
   473 000004A2 75 D5                           	JNE	L40
   474 000004A4 31 FF                           	XOR	EDI,EDI
   475 000004A6                                 L63:
   476 000004A6 C6 45 E3 00                     	MOV	BYTE [-29+EBP],0
   477 000004AA 31 F6                           	XOR	ESI,ESI
   478 000004AC                                 L54:
   479 000004AC 0F B6 86 [0000007B]             	MOVZX	EAX,BYTE [_adr.0+ESI]
   480 000004B3 50                              	PUSH	EAX
   481 000004B4 6A 70                           	PUSH	112
   482 000004B6 E8 [00000000]                   	CALL	_io_out8
   483 000004BB 6A 71                           	PUSH	113
   484 000004BD E8 [00000000]                   	CALL	_io_in8
   485 000004C2 83 C4 0C                        	ADD	ESP,12
   486 000004C5 88 86 [00000094]                	MOV	BYTE [_t+ESI],AL
   487 000004CB 46                              	INC	ESI
   488 000004CC 83 FE 06                        	CMP	ESI,6
   489 000004CF 7E DB                           	JLE	L54
   490 000004D1 31 F6                           	XOR	ESI,ESI
   491 000004D3                                 L61:
   492 000004D3 0F B6 86 [0000007B]             	MOVZX	EAX,BYTE [_adr.0+ESI]
   493 000004DA 50                              	PUSH	EAX
   494 000004DB 6A 70                           	PUSH	112
   495 000004DD E8 [00000000]                   	CALL	_io_out8
   496 000004E2 6A 71                           	PUSH	113
   497 000004E4 0F B6 9E [00000094]             	MOVZX	EBX,BYTE [_t+ESI]
   498 000004EB E8 [00000000]                   	CALL	_io_in8
   499 000004F0 83 C4 0C                        	ADD	ESP,12
   500 000004F3 39 C3                           	CMP	EBX,EAX
   501 000004F5 74 6D                           	JE	L70
   502 000004F7                                 L60:
   503 000004F7 C6 45 E3 01                     	MOV	BYTE [-29+EBP],1
   504 000004FB                                 L57:
   505 000004FB 46                              	INC	ESI
   506 000004FC 83 FE 06                        	CMP	ESI,6
   507 000004FF 7E D2                           	JLE	L61
   508 00000501 80 7D E3 00                     	CMP	BYTE [-29+EBP],0
   509 00000505 74 07                           	JE	L47
   510 00000507 47                              	INC	EDI
   511 00000508 89 F8                           	MOV	EAX,EDI
   512 0000050A 3C 02                           	CMP	AL,2
   513 0000050C 7E 98                           	JLE	L63
   514 0000050E                                 L47:
   515 0000050E 8B 35 000005E4                  	MOV	ESI,DWORD [1508]
   516 00000514 8D 5D E4                        	LEA	EBX,DWORD [-28+EBP]
   517 00000517 68 [0000008D]                   	PUSH	LC7
   518 0000051C 81 C6 00000414                  	ADD	ESI,1044
   519 00000522 53                              	PUSH	EBX
   520 00000523 C7 45 E4 00000000               	MOV	DWORD [-28+EBP],0
   521 0000052A 66 C7 45 E8 0000                	MOV	WORD [-24+EBP],0
   522 00000530 E8 [00000000]                   	CALL	_sprintf
   523 00000535 6A 05                           	PUSH	5
   524 00000537 53                              	PUSH	EBX
   525 00000538 6A 03                           	PUSH	3
   526 0000053A 6A 02                           	PUSH	2
   527 0000053C 8B 46 08                        	MOV	EAX,DWORD [8+ESI]
   528 0000053F 83 E8 15                        	SUB	EAX,21
   529 00000542 50                              	PUSH	EAX
   530 00000543 8B 46 04                        	MOV	EAX,DWORD [4+ESI]
   531 00000546 83 E8 2D                        	SUB	EAX,45
   532 00000549 50                              	PUSH	EAX
   533 0000054A 56                              	PUSH	ESI
   534 0000054B E8 [00000000]                   	CALL	_putfonts8_asc_sht
   535 00000550 83 C4 24                        	ADD	ESP,36
   536 00000553 6A 64                           	PUSH	100
   537 00000555 FF 75 D8                        	PUSH	DWORD [-40+EBP]
   538 00000558 E8 [00000000]                   	CALL	_timer_settime
   539 0000055D 5E                              	POP	ESI
   540 0000055E 5F                              	POP	EDI
   541 0000055F E9 FFFFFF15                     	JMP	L40
   542 00000564                                 L70:
   543 00000564 8A 96 [00000094]                	MOV	DL,BYTE [_t+ESI]
   544 0000056A 88 D0                           	MOV	AL,DL
   545 0000056C 83 E0 0F                        	AND	EAX,15
   546 0000056F 3C 09                           	CMP	AL,9
   547 00000571 77 84                           	JA	L60
   548 00000573 3A 96 [00000082]                	CMP	DL,BYTE [_max.1+ESI]
   549 00000579 0F 86 FFFFFF7C                  	JBE	L57
   550 0000057F E9 FFFFFF73                     	JMP	L60
   551 00000584                                 L69:
   552 00000584 FF 75 DC                        	PUSH	DWORD [-36+EBP]
   553 00000587 E8 [00000000]                   	CALL	_task_sleep
   554 0000058C E8 [00000000]                   	CALL	_io_sti
   555 00000591 58                              	POP	EAX
   556 00000592 E9 FFFFFEE2                     	JMP	L40
   557 00000597                                 	GLOBAL	_t
   558                                          [SECTION .data]
   559 00000092 00 00                           	ALIGNB	4
   560 00000094                                 _t:
   561 00000094 00 00 00 00 00 00 00            	RESB	7
