     1 00000000                                 [FORMAT "WCOFF"]
     2 00000000                                 [INSTRSET "i486p"]
     3 00000000                                 [OPTIMIZE 1]
     4 00000000                                 [OPTION 1]
     5 00000000                                 [BITS 32]
     6 00000000                                 	EXTERN	_io_out8
     7 00000000                                 	EXTERN	_sprintf
     8 00000000                                 	EXTERN	_io_load_eflags
     9 00000000                                 	EXTERN	_io_cli
    10 00000000                                 	EXTERN	_io_store_eflags
    11 00000000                                 	EXTERN	_task_timer
    12 00000000                                 	EXTERN	_fifo32_put
    13 00000000                                 	EXTERN	_task_switch
    14 00000000                                 [FILE "timer.c"]
    15                                          [SECTION .data]
    16 00000000                                 LC0:
    17 00000000 70 69 74 00                     	DB	"pit",0x00
    18                                          [SECTION .text]
    19 00000000                                 	GLOBAL	_init_pit
    20 00000000                                 _init_pit:
    21 00000000 55                              	PUSH	EBP
    22 00000001 89 E5                           	MOV	EBP,ESP
    23 00000003 6A 34                           	PUSH	52
    24 00000005 6A 43                           	PUSH	67
    25 00000007 E8 [00000000]                   	CALL	_io_out8
    26 0000000C 68 0000009C                     	PUSH	156
    27 00000011 6A 40                           	PUSH	64
    28 00000013 E8 [00000000]                   	CALL	_io_out8
    29 00000018 6A 2E                           	PUSH	46
    30 0000001A 6A 40                           	PUSH	64
    31 0000001C E8 [00000000]                   	CALL	_io_out8
    32 00000021 BA [0000426A]                   	MOV	EDX,_timerctl+16986
    33 00000026 C7 05 [00000010] 00000000       	MOV	DWORD [_timerctl],0
    34 00000030 83 C4 18                        	ADD	ESP,24
    35 00000033 B8 [00000024]                   	MOV	EAX,_timerctl+20
    36 00000038                                 L6:
    37 00000038 C6 00 00                        	MOV	BYTE [EAX],0
    38 0000003B 83 C0 22                        	ADD	EAX,34
    39 0000003E 39 D0                           	CMP	EAX,EDX
    40 00000040 7E F6                           	JLE	L6
    41 00000042 68 [00000000]                   	PUSH	LC0
    42 00000047 E8 00000022                     	CALL	_timer_alloc
    43 0000004C C6 40 08 02                     	MOV	BYTE [8+EAX],2
    44 00000050 C7 40 04 FFFFFFFF               	MOV	DWORD [4+EAX],-1
    45 00000057 C7 00 00000000                  	MOV	DWORD [EAX],0
    46 0000005D A3 [00000018]                   	MOV	DWORD [_timerctl+8],EAX
    47 00000062 C7 05 [00000014] FFFFFFFF       	MOV	DWORD [_timerctl+4],-1
    48 0000006C C9                              	LEAVE
    49 0000006D C3                              	RET
    50                                          [SECTION .data]
    51 00000004                                 LC1:
    52 00000004 25 2D 33 73 54 25 64 69 6E 69   	DB	"%-3sT%dinit",0x00
       0000000E 74 00 
    53                                          [SECTION .text]
    54 0000006E                                 	GLOBAL	_timer_alloc
    55 0000006E                                 _timer_alloc:
    56 0000006E 55                              	PUSH	EBP
    57 0000006F 31 D2                           	XOR	EDX,EDX
    58 00000071 89 E5                           	MOV	EBP,ESP
    59 00000073 31 C0                           	XOR	EAX,EAX
    60 00000075 53                              	PUSH	EBX
    61 00000076 BB [0000001C]                   	MOV	EBX,_timerctl+12
    62 0000007B                                 L15:
    63 0000007B 80 7B 08 00                     	CMP	BYTE [8+EBX],0
    64 0000007F 74 16                           	JE	L18
    65 00000081 42                              	INC	EDX
    66 00000082 83 C3 22                        	ADD	EBX,34
    67 00000085 83 C0 22                        	ADD	EAX,34
    68 00000088 81 FA 000001F3                  	CMP	EDX,499
    69 0000008E 7E EB                           	JLE	L15
    70 00000090 31 C0                           	XOR	EAX,EAX
    71 00000092                                 L9:
    72 00000092 8B 5D FC                        	MOV	EBX,DWORD [-4+EBP]
    73 00000095 C9                              	LEAVE
    74 00000096 C3                              	RET
    75 00000097                                 L18:
    76 00000097 52                              	PUSH	EDX
    77 00000098 05 [0000002E]                   	ADD	EAX,_timerctl+30
    78 0000009D FF 75 08                        	PUSH	DWORD [8+EBP]
    79 000000A0 68 [00000004]                   	PUSH	LC1
    80 000000A5 50                              	PUSH	EAX
    81 000000A6 C6 43 08 01                     	MOV	BYTE [8+EBX],1
    82 000000AA C6 43 09 00                     	MOV	BYTE [9+EBX],0
    83 000000AE E8 [00000000]                   	CALL	_sprintf
    84 000000B3 89 D8                           	MOV	EAX,EBX
    85 000000B5 EB DB                           	JMP	L9
    86 000000B7                                 	GLOBAL	_timer_free
    87 000000B7                                 _timer_free:
    88 000000B7 55                              	PUSH	EBP
    89 000000B8 89 E5                           	MOV	EBP,ESP
    90 000000BA 8B 45 08                        	MOV	EAX,DWORD [8+EBP]
    91 000000BD C6 40 08 00                     	MOV	BYTE [8+EAX],0
    92 000000C1 C6 40 12 00                     	MOV	BYTE [18+EAX],0
    93 000000C5 5D                              	POP	EBP
    94 000000C6 C3                              	RET
    95 000000C7                                 	GLOBAL	_timer_init
    96 000000C7                                 _timer_init:
    97 000000C7 55                              	PUSH	EBP
    98 000000C8 89 E5                           	MOV	EBP,ESP
    99 000000CA 8B 45 08                        	MOV	EAX,DWORD [8+EBP]
   100 000000CD 8B 55 0C                        	MOV	EDX,DWORD [12+EBP]
   101 000000D0 89 50 0A                        	MOV	DWORD [10+EAX],EDX
   102 000000D3 8B 55 10                        	MOV	EDX,DWORD [16+EBP]
   103 000000D6 89 50 0E                        	MOV	DWORD [14+EAX],EDX
   104 000000D9 5D                              	POP	EBP
   105 000000DA C3                              	RET
   106 000000DB                                 	GLOBAL	_timer_settime
   107 000000DB                                 _timer_settime:
   108 000000DB 55                              	PUSH	EBP
   109 000000DC A1 [00000010]                   	MOV	EAX,DWORD [_timerctl]
   110 000000E1 89 E5                           	MOV	EBP,ESP
   111 000000E3 56                              	PUSH	ESI
   112 000000E4 53                              	PUSH	EBX
   113 000000E5 8B 5D 08                        	MOV	EBX,DWORD [8+EBP]
   114 000000E8 03 45 0C                        	ADD	EAX,DWORD [12+EBP]
   115 000000EB C6 43 08 02                     	MOV	BYTE [8+EBX],2
   116 000000EF 89 43 04                        	MOV	DWORD [4+EBX],EAX
   117 000000F2 E8 [00000000]                   	CALL	_io_load_eflags
   118 000000F7 89 C6                           	MOV	ESI,EAX
   119 000000F9 E8 [00000000]                   	CALL	_io_cli
   120 000000FE A1 [00000018]                   	MOV	EAX,DWORD [_timerctl+8]
   121 00000103 8B 53 04                        	MOV	EDX,DWORD [4+EBX]
   122 00000106 3B 50 04                        	CMP	EDX,DWORD [4+EAX]
   123 00000109 76 18                           	JBE	L28
   124 0000010B                                 L23:
   125 0000010B 89 C1                           	MOV	ECX,EAX
   126 0000010D 8B 00                           	MOV	EAX,DWORD [EAX]
   127 0000010F 3B 50 04                        	CMP	EDX,DWORD [4+EAX]
   128 00000112 77 F7                           	JA	L23
   129 00000114 89 19                           	MOV	DWORD [ECX],EBX
   130 00000116 89 03                           	MOV	DWORD [EBX],EAX
   131 00000118                                 L27:
   132 00000118 89 75 08                        	MOV	DWORD [8+EBP],ESI
   133 0000011B 5B                              	POP	EBX
   134 0000011C 5E                              	POP	ESI
   135 0000011D 5D                              	POP	EBP
   136 0000011E E9 [00000000]                   	JMP	_io_store_eflags
   137 00000123                                 L28:
   138 00000123 89 1D [00000018]                	MOV	DWORD [_timerctl+8],EBX
   139 00000129 89 15 [00000014]                	MOV	DWORD [_timerctl+4],EDX
   140 0000012F 89 03                           	MOV	DWORD [EBX],EAX
   141 00000131 EB E5                           	JMP	L27
   142 00000133                                 	GLOBAL	_inthandler20
   143 00000133                                 _inthandler20:
   144 00000133 55                              	PUSH	EBP
   145 00000134 89 E5                           	MOV	EBP,ESP
   146 00000136 56                              	PUSH	ESI
   147 00000137 53                              	PUSH	EBX
   148 00000138 31 F6                           	XOR	ESI,ESI
   149 0000013A 6A 60                           	PUSH	96
   150 0000013C 6A 20                           	PUSH	32
   151 0000013E E8 [00000000]                   	CALL	_io_out8
   152 00000143 A1 [00000010]                   	MOV	EAX,DWORD [_timerctl]
   153 00000148 40                              	INC	EAX
   154 00000149 A3 [00000010]                   	MOV	DWORD [_timerctl],EAX
   155 0000014E 39 05 [00000014]                	CMP	DWORD [_timerctl+4],EAX
   156 00000154 59                              	POP	ECX
   157 00000155 5B                              	POP	EBX
   158 00000156 77 46                           	JA	L29
   159 00000158 8B 1D [00000018]                	MOV	EBX,DWORD [_timerctl+8]
   160 0000015E                                 L31:
   161 0000015E 8B 43 04                        	MOV	EAX,DWORD [4+EBX]
   162 00000161 3B 05 [00000010]                	CMP	EAX,DWORD [_timerctl]
   163 00000167 77 24                           	JA	L32
   164 00000169 C6 43 08 01                     	MOV	BYTE [8+EBX],1
   165 0000016D 3B 1D [00000000]                	CMP	EBX,DWORD [_task_timer]
   166 00000173 74 11                           	JE	L35
   167 00000175 FF 73 0E                        	PUSH	DWORD [14+EBX]
   168 00000178 FF 73 0A                        	PUSH	DWORD [10+EBX]
   169 0000017B E8 [00000000]                   	CALL	_fifo32_put
   170 00000180 58                              	POP	EAX
   171 00000181 5A                              	POP	EDX
   172 00000182                                 L36:
   173 00000182 8B 1B                           	MOV	EBX,DWORD [EBX]
   174 00000184 EB D8                           	JMP	L31
   175 00000186                                 L35:
   176 00000186 BE 00000001                     	MOV	ESI,1
   177 0000018B EB F5                           	JMP	L36
   178 0000018D                                 L32:
   179 0000018D A3 [00000014]                   	MOV	DWORD [_timerctl+4],EAX
   180 00000192 89 1D [00000018]                	MOV	DWORD [_timerctl+8],EBX
   181 00000198 89 F0                           	MOV	EAX,ESI
   182 0000019A 84 C0                           	TEST	AL,AL
   183 0000019C 75 07                           	JNE	L38
   184 0000019E                                 L29:
   185 0000019E 8D 65 F8                        	LEA	ESP,DWORD [-8+EBP]
   186 000001A1 5B                              	POP	EBX
   187 000001A2 5E                              	POP	ESI
   188 000001A3 5D                              	POP	EBP
   189 000001A4 C3                              	RET
   190 000001A5                                 L38:
   191 000001A5 8D 65 F8                        	LEA	ESP,DWORD [-8+EBP]
   192 000001A8 5B                              	POP	EBX
   193 000001A9 5E                              	POP	ESI
   194 000001AA 5D                              	POP	EBP
   195 000001AB E9 [00000000]                   	JMP	_task_switch
   196 000001B0                                 	GLOBAL	_timer_cancel
   197 000001B0                                 _timer_cancel:
   198 000001B0 55                              	PUSH	EBP
   199 000001B1 89 E5                           	MOV	EBP,ESP
   200 000001B3 56                              	PUSH	ESI
   201 000001B4 53                              	PUSH	EBX
   202 000001B5 8B 5D 08                        	MOV	EBX,DWORD [8+EBP]
   203 000001B8 E8 [00000000]                   	CALL	_io_load_eflags
   204 000001BD 89 C6                           	MOV	ESI,EAX
   205 000001BF E8 [00000000]                   	CALL	_io_cli
   206 000001C4 80 7B 08 02                     	CMP	BYTE [8+EBX],2
   207 000001C8 74 0F                           	JE	L47
   208 000001CA 56                              	PUSH	ESI
   209 000001CB E8 [00000000]                   	CALL	_io_store_eflags
   210 000001D0 31 C0                           	XOR	EAX,EAX
   211 000001D2                                 L39:
   212 000001D2 8D 65 F8                        	LEA	ESP,DWORD [-8+EBP]
   213 000001D5 5B                              	POP	EBX
   214 000001D6 5E                              	POP	ESI
   215 000001D7 5D                              	POP	EBP
   216 000001D8 C3                              	RET
   217 000001D9                                 L47:
   218 000001D9 A1 [00000018]                   	MOV	EAX,DWORD [_timerctl+8]
   219 000001DE 39 C3                           	CMP	EBX,EAX
   220 000001E0 74 1D                           	JE	L48
   221 000001E2                                 L41:
   222 000001E2 89 C2                           	MOV	EDX,EAX
   223 000001E4 8B 00                           	MOV	EAX,DWORD [EAX]
   224 000001E6 39 D8                           	CMP	EAX,EBX
   225 000001E8 75 F8                           	JNE	L41
   226 000001EA 8B 03                           	MOV	EAX,DWORD [EBX]
   227 000001EC 89 02                           	MOV	DWORD [EDX],EAX
   228 000001EE                                 L42:
   229 000001EE C6 43 08 01                     	MOV	BYTE [8+EBX],1
   230 000001F2 56                              	PUSH	ESI
   231 000001F3 E8 [00000000]                   	CALL	_io_store_eflags
   232 000001F8 B8 00000001                     	MOV	EAX,1
   233 000001FD EB D3                           	JMP	L39
   234 000001FF                                 L48:
   235 000001FF 8B 13                           	MOV	EDX,DWORD [EBX]
   236 00000201 89 15 [00000018]                	MOV	DWORD [_timerctl+8],EDX
   237 00000207 8B 42 04                        	MOV	EAX,DWORD [4+EDX]
   238 0000020A A3 [00000014]                   	MOV	DWORD [_timerctl+4],EAX
   239 0000020F EB DD                           	JMP	L42
   240 00000211                                 	GLOBAL	_timer_cancelall
   241 00000211                                 _timer_cancelall:
   242 00000211 55                              	PUSH	EBP
   243 00000212 89 E5                           	MOV	EBP,ESP
   244 00000214 57                              	PUSH	EDI
   245 00000215 56                              	PUSH	ESI
   246 00000216 53                              	PUSH	EBX
   247 00000217 BB [0000001C]                   	MOV	EBX,_timerctl+12
   248 0000021C 8B 7D 08                        	MOV	EDI,DWORD [8+EBP]
   249 0000021F E8 [00000000]                   	CALL	_io_load_eflags
   250 00000224 89 C6                           	MOV	ESI,EAX
   251 00000226 E8 [00000000]                   	CALL	_io_cli
   252 0000022B                                 L55:
   253 0000022B 80 7B 08 00                     	CMP	BYTE [8+EBX],0
   254 0000022F 74 0B                           	JE	L52
   255 00000231 80 7B 09 00                     	CMP	BYTE [9+EBX],0
   256 00000235 74 05                           	JE	L52
   257 00000237 39 7B 0A                        	CMP	DWORD [10+EBX],EDI
   258 0000023A 74 1A                           	JE	L58
   259 0000023C                                 L52:
   260 0000023C 83 C3 22                        	ADD	EBX,34
   261 0000023F 81 FB [00004262]                	CMP	EBX,_timerctl+16978
   262 00000245 7E E4                           	JLE	L55
   263 00000247 89 75 08                        	MOV	DWORD [8+EBP],ESI
   264 0000024A 8D 65 F4                        	LEA	ESP,DWORD [-12+EBP]
   265 0000024D 5B                              	POP	EBX
   266 0000024E 5E                              	POP	ESI
   267 0000024F 5F                              	POP	EDI
   268 00000250 5D                              	POP	EBP
   269 00000251 E9 [00000000]                   	JMP	_io_store_eflags
   270 00000256                                 L58:
   271 00000256 53                              	PUSH	EBX
   272 00000257 E8 FFFFFF54                     	CALL	_timer_cancel
   273 0000025C 53                              	PUSH	EBX
   274 0000025D E8 FFFFFE55                     	CALL	_timer_free
   275 00000262 58                              	POP	EAX
   276 00000263 5A                              	POP	EDX
   277 00000264 EB D6                           	JMP	L52
   278 00000266                                 	GLOBAL	_timerctl
   279                                          [SECTION .data]
   280 00000010                                 	ALIGNB	16
   281 00000010                                 _timerctl:
   282 00000010 00 00 00 00 00 00 00 00 00 00   	RESB	17012
       0000001A 00 00 00 00 00 00 00 00 00 00 
       00000024 00 00 00 00 00 00 00 00 00 00 
       0000002E 00 00 00 00 00 00 00 00 00 00 
       00000038 00 00 00 00 00 00 00 00 00 00 
       00000042 00 00 00 00 00 00 00 00 00 00 
       0000004C 00 00 00 00 00 00 00 00 00 00 
       00000056 00 00 00 00 00 00 00 00 00 00 
       00000060 00 00 00 00 00 00 00 00 00 00 
       0000006A 00 00 00 00 00 00 00 00 00 00 
       00000074 00 00 00 00 00 00 00 00 00 00 
       0000007E 00 00 00 00 00 00 00 00 00 00 
       00000088 00 00 00 00 00 00 00 00 00 00 
       00000092 00 00 00 00 00 00 00 00 00 00 
       0000009C 00 00 00 00 00 00 00 00 00 00 
       000000A6 00 00 00 00 00 00 00 00 00 00 
       000000B0 00 00 00 00 00 00 00 00 00 00 
       000000BA 00 00 00 00 00 00 00 00 00 00 
       000000C4 00 00 00 00 00 00 00 00 00 00 
       000000CE 00 00 00 00 00 00 00 00 00 00 
       000000D8 00 00 00 00 00 00 00 00 00 00 
       000000E2 00 00 00 00 00 00 00 00 00 00 
       000000EC 00 00 00 00 00 00 00 00 00 00 
       000000F6 00 00 00 00 00 00 00 00 00 00 
       00000100 00 00 00 00 00 00 00 00 00 00 
       0000010A 00 00 00 00 00 00 00 00 00 00 
       00000114 00 00 00 00 00 00 00 00 00 00 
       0000011E 00 00 00 00 00 00 00 00 00 00 
       00000128 00 00 00 00 00 00 00 00 00 00 
       00000132 00 00 00 00 00 00 00 00 00 00 
       0000013C 00 00 00 00 00 00 00 00 00 00 
       00000146 00 00 00 00 00 00 00 00 00 00 
       00000150 00 00 00 00 00 00 00 00 00 00 
       0000015A 00 00 00 00 00 00 00 00 00 00 
       00000164 00 00 00 00 00 00 00 00 00 00 
       0000016E 00 00 00 00 00 00 00 00 00 00 
       00000178 00 00 00 00 00 00 00 00 00 00 
       00000182 00 00 00 00 00 00 00 00 00 00 
       0000018C 00 00 00 00 00 00 00 00 00 00 
       00000196 00 00 00 00 00 00 00 00 00 00 
       000001A0 00 00 00 00 00 00 00 00 00 00 
       000001AA 00 00 00 00 00 00 00 00 00 00 
       000001B4 00 00 00 00 00 00 00 00 00 00 
       000001BE 00 00 00 00 00 00 00 00 00 00 
       000001C8 00 00 00 00 00 00 00 00 00 00 
       000001D2 00 00 00 00 00 00 00 00 00 00 
       000001DC 00 00 00 00 00 00 00 00 00 00 
       000001E6 00 00 00 00 00 00 00 00 00 00 
       000001F0 00 00 00 00 00 00 00 00 00 00 
       000001FA 00 00 00 00 00 00 00 00 00 00 
       00000204 00 00 00 00 00 00 00 00 00 00 
       0000020E 00 00 00 00 00 00 00 00 00 00 
       00000218 00 00 00 00 00 00 00 00 00 00 
       00000222 00 00 00 00 00 00 00 00 00 00 
       0000022C 00 00 00 00 00 00 00 00 00 00 
       00000236 00 00 00 00 00 00 00 00 00 00 
       00000240 00 00 00 00 00 00 00 00 00 00 
       0000024A 00 00 00 00 00 00 00 00 00 00 
       00000254 00 00 00 00 00 00 00 00 00 00 
       0000025E 00 00 00 00 00 00 00 00 00 00 
       00000268 00 00 00 00 00 00 00 00 00 00 
       00000272 00 00 00 00 00 00 00 00 00 00 
       0000027C 00 00 00 00 00 00 00 00 00 00 
       00000286 00 00 00 00 00 00 00 00 00 00 
       00000290 00 00 00 00 00 00 00 00 00 00 
       0000029A 00 00 00 00 00 00 00 00 00 00 
       000002A4 00 00 00 00 00 00 00 00 00 00 
       000002AE 00 00 00 00 00 00 00 00 00 00 
       000002B8 00 00 00 00 00 00 00 00 00 00 
       000002C2 00 00 00 00 00 00 00 00 00 00 
       000002CC 00 00 00 00 00 00 00 00 00 00 
       000002D6 00 00 00 00 00 00 00 00 00 00 
       000002E0 00 00 00 00 00 00 00 00 00 00 
       000002EA 00 00 00 00 00 00 00 00 00 00 
       000002F4 00 00 00 00 00 00 00 00 00 00 
       000002FE 00 00 00 00 00 00 00 00 00 00 
       00000308 00 00 00 00 00 00 00 00 00 00 
       00000312 00 00 00 00 00 00 00 00 00 00 
       0000031C 00 00 00 00 00 00 00 00 00 00 
       00000326 00 00 00 00 00 00 00 00 00 00 
       00000330 00 00 00 00 00 00 00 00 00 00 
       0000033A 00 00 00 00 00 00 00 00 00 00 
       00000344 00 00 00 00 00 00 00 00 00 00 
       0000034E 00 00 00 00 00 00 00 00 00 00 
       00000358 00 00 00 00 00 00 00 00 00 00 
       00000362 00 00 00 00 00 00 00 00 00 00 
       0000036C 00 00 00 00 00 00 00 00 00 00 
       00000376 00 00 00 00 00 00 00 00 00 00 
       00000380 00 00 00 00 00 00 00 00 00 00 
       0000038A 00 00 00 00 00 00 00 00 00 00 
       00000394 00 00 00 00 00 00 00 00 00 00 
       0000039E 00 00 00 00 00 00 00 00 00 00 
       000003A8 00 00 00 00 00 00 00 00 00 00 
       000003B2 00 00 00 00 00 00 00 00 00 00 
       000003BC 00 00 00 00 00 00 00 00 00 00 
       000003C6 00 00 00 00 00 00 00 00 00 00 
       000003D0 00 00 00 00 00 00 00 00 00 00 
       000003DA 00 00 00 00 00 00 00 00 00 00 
       000003E4 00 00 00 00 00 00 00 00 00 00 
       000003EE 00 00 00 00 00 00 00 00 00 00 
       000003F8 00 00 00 00 00 00 00 00 00 00 
       00000402 00 00 00 00 00 00 00 00 00 00 
       0000040C 00 00 00 00 00 00 00 00 00 00 
       00000416 00 00 00 00 00 00 00 00 00 00 
       00000420 00 00 00 00 00 00 00 00 00 00 
       0000042A 00 00 00 00 00 00 00 00 00 00 
       00000434 00 00 00 00 00 00 00 00 00 00 
       0000043E 00 00 00 00 00 00 00 00 00 00 
       00000448 00 00 00 00 00 00 00 00 00 00 
       00000452 00 00 00 00 00 00 00 00 00 00 
       0000045C 00 00 00 00 00 00 00 00 00 00 
       00000466 00 00 00 00 00 00 00 00 00 00 
       00000470 00 00 00 00 00 00 00 00 00 00 
       0000047A 00 00 00 00 00 00 00 00 00 00 
       00000484 00 00 00 00 00 00 00 00 00 00 
       0000048E 00 00 00 00 00 00 00 00 00 00 
       00000498 00 00 00 00 00 00 00 00 00 00 
       000004A2 00 00 00 00 00 00 00 00 00 00 
       000004AC 00 00 00 00 00 00 00 00 00 00 
       000004B6 00 00 00 00 00 00 00 00 00 00 
       000004C0 00 00 00 00 00 00 00 00 00 00 
       000004CA 00 00 00 00 00 00 00 00 00 00 
       000004D4 00 00 00 00 00 00 00 00 00 00 
       000004DE 00 00 00 00 00 00 00 00 00 00 
       000004E8 00 00 00 00 00 00 00 00 00 00 
       000004F2 00 00 00 00 00 00 00 00 00 00 
       000004FC 00 00 00 00 00 00 00 00 00 00 
       00000506 00 00 00 00 00 00 00 00 00 00 
       00000510 00 00 00 00 00 00 00 00 00 00 
       0000051A 00 00 00 00 00 00 00 00 00 00 
       00000524 00 00 00 00 00 00 00 00 00 00 
       0000052E 00 00 00 00 00 00 00 00 00 00 
       00000538 00 00 00 00 00 00 00 00 00 00 
       00000542 00 00 00 00 00 00 00 00 00 00 
       0000054C 00 00 00 00 00 00 00 00 00 00 
       00000556 00 00 00 00 00 00 00 00 00 00 
       00000560 00 00 00 00 00 00 00 00 00 00 
       0000056A 00 00 00 00 00 00 00 00 00 00 
       00000574 00 00 00 00 00 00 00 00 00 00 
       0000057E 00 00 00 00 00 00 00 00 00 00 
       00000588 00 00 00 00 00 00 00 00 00 00 
       00000592 00 00 00 00 00 00 00 00 00 00 
       0000059C 00 00 00 00 00 00 00 00 00 00 
       000005A6 00 00 00 00 00 00 00 00 00 00 
       000005B0 00 00 00 00 00 00 00 00 00 00 
       000005BA 00 00 00 00 00 00 00 00 00 00 
       000005C4 00 00 00 00 00 00 00 00 00 00 
       000005CE 00 00 00 00 00 00 00 00 00 00 
       000005D8 00 00 00 00 00 00 00 00 00 00 
       000005E2 00 00 00 00 00 00 00 00 00 00 
       000005EC 00 00 00 00 00 00 00 00 00 00 
       000005F6 00 00 00 00 00 00 00 00 00 00 
       00000600 00 00 00 00 00 00 00 00 00 00 
       0000060A 00 00 00 00 00 00 00 00 00 00 
       00000614 00 00 00 00 00 00 00 00 00 00 
       0000061E 00 00 00 00 00 00 00 00 00 00 
       00000628 00 00 00 00 00 00 00 00 00 00 
       00000632 00 00 00 00 00 00 00 00 00 00 
       0000063C 00 00 00 00 00 00 00 00 00 00 
       00000646 00 00 00 00 00 00 00 00 00 00 
       00000650 00 00 00 00 00 00 00 00 00 00 
       0000065A 00 00 00 00 00 00 00 00 00 00 
       00000664 00 00 00 00 00 00 00 00 00 00 
       0000066E 00 00 00 00 00 00 00 00 00 00 
       00000678 00 00 00 00 00 00 00 00 00 00 
       00000682 00 00 00 00 00 00 00 00 00 00 
       0000068C 00 00 00 00 00 00 00 00 00 00 
       00000696 00 00 00 00 00 00 00 00 00 00 
       000006A0 00 00 00 00 00 00 00 00 00 00 
       000006AA 00 00 00 00 00 00 00 00 00 00 
       000006B4 00 00 00 00 00 00 00 00 00 00 
       000006BE 00 00 00 00 00 00 00 00 00 00 
       000006C8 00 00 00 00 00 00 00 00 00 00 
       000006D2 00 00 00 00 00 00 00 00 00 00 
       000006DC 00 00 00 00 00 00 00 00 00 00 
       000006E6 00 00 00 00 00 00 00 00 00 00 
       000006F0 00 00 00 00 00 00 00 00 00 00 
       000006FA 00 00 00 00 00 00 00 00 00 00 
       00000704 00 00 00 00 00 00 00 00 00 00 
       0000070E 00 00 00 00 00 00 00 00 00 00 
       00000718 00 00 00 00 00 00 00 00 00 00 
       00000722 00 00 00 00 00 00 00 00 00 00 
       0000072C 00 00 00 00 00 00 00 00 00 00 
       00000736 00 00 00 00 00 00 00 00 00 00 
       00000740 00 00 00 00 00 00 00 00 00 00 
       0000074A 00 00 00 00 00 00 00 00 00 00 
       00000754 00 00 00 00 00 00 00 00 00 00 
       0000075E 00 00 00 00 00 00 00 00 00 00 
       00000768 00 00 00 00 00 00 00 00 00 00 
       00000772 00 00 00 00 00 00 00 00 00 00 
       0000077C 00 00 00 00 00 00 00 00 00 00 
       00000786 00 00 00 00 00 00 00 00 00 00 
       00000790 00 00 00 00 00 00 00 00 00 00 
       0000079A 00 00 00 00 00 00 00 00 00 00 
       000007A4 00 00 00 00 00 00 00 00 00 00 
       000007AE 00 00 00 00 00 00 00 00 00 00 
       000007B8 00 00 00 00 00 00 00 00 00 00 
       000007C2 00 00 00 00 00 00 00 00 00 00 
       000007CC 00 00 00 00 00 00 00 00 00 00 
       000007D6 00 00 00 00 00 00 00 00 00 00 
       000007E0 00 00 00 00 00 00 00 00 00 00 
       000007EA 00 00 00 00 00 00 00 00 00 00 
       000007F4 00 00 00 00 00 00 00 00 00 00 
       000007FE 00 00 00 00 00 00 00 00 00 00 
       00000808 00 00 00 00 00 00 00 00 00 00 
       00000812 00 00 00 00 00 00 00 00 00 00 
       0000081C 00 00 00 00 00 00 00 00 00 00 
       00000826 00 00 00 00 00 00 00 00 00 00 
       00000830 00 00 00 00 00 00 00 00 00 00 
       0000083A 00 00 00 00 00 00 00 00 00 00 
       00000844 00 00 00 00 00 00 00 00 00 00 
       0000084E 00 00 00 00 00 00 00 00 00 00 
       00000858 00 00 00 00 00 00 00 00 00 00 
       00000862 00 00 00 00 00 00 00 00 00 00 
       0000086C 00 00 00 00 00 00 00 00 00 00 
       00000876 00 00 00 00 00 00 00 00 00 00 
       00000880 00 00 00 00 00 00 00 00 00 00 
       0000088A 00 00 00 00 00 00 00 00 00 00 
       00000894 00 00 00 00 00 00 00 00 00 00 
       0000089E 00 00 00 00 00 00 00 00 00 00 
       000008A8 00 00 00 00 00 00 00 00 00 00 
       000008B2 00 00 00 00 00 00 00 00 00 00 
       000008BC 00 00 00 00 00 00 00 00 00 00 
       000008C6 00 00 00 00 00 00 00 00 00 00 
       000008D0 00 00 00 00 00 00 00 00 00 00 
       000008DA 00 00 00 00 00 00 00 00 00 00 
       000008E4 00 00 00 00 00 00 00 00 00 00 
       000008EE 00 00 00 00 00 00 00 00 00 00 
       000008F8 00 00 00 00 00 00 00 00 00 00 
       00000902 00 00 00 00 00 00 00 00 00 00 
       0000090C 00 00 00 00 00 00 00 00 00 00 
       00000916 00 00 00 00 00 00 00 00 00 00 
       00000920 00 00 00 00 00 00 00 00 00 00 
       0000092A 00 00 00 00 00 00 00 00 00 00 
       00000934 00 00 00 00 00 00 00 00 00 00 
       0000093E 00 00 00 00 00 00 00 00 00 00 
       00000948 00 00 00 00 00 00 00 00 00 00 
       00000952 00 00 00 00 00 00 00 00 00 00 
       0000095C 00 00 00 00 00 00 00 00 00 00 
       00000966 00 00 00 00 00 00 00 00 00 00 
       00000970 00 00 00 00 00 00 00 00 00 00 
       0000097A 00 00 00 00 00 00 00 00 00 00 
       00000984 00 00 00 00 00 00 00 00 00 00 
       0000098E 00 00 00 00 00 00 00 00 00 00 
       00000998 00 00 00 00 00 00 00 00 00 00 
       000009A2 00 00 00 00 00 00 00 00 00 00 
       000009AC 00 00 00 00 00 00 00 00 00 00 
       000009B6 00 00 00 00 00 00 00 00 00 00 
       000009C0 00 00 00 00 00 00 00 00 00 00 
       000009CA 00 00 00 00 00 00 00 00 00 00 
       000009D4 00 00 00 00 00 00 00 00 00 00 
       000009DE 00 00 00 00 00 00 00 00 00 00 
       000009E8 00 00 00 00 00 00 00 00 00 00 
       000009F2 00 00 00 00 00 00 00 00 00 00 
       000009FC 00 00 00 00 00 00 00 00 00 00 
       00000A06 00 00 00 00 00 00 00 00 00 00 
       00000A10 00 00 00 00 00 00 00 00 00 00 
       00000A1A 00 00 00 00 00 00 00 00 00 00 
       00000A24 00 00 00 00 00 00 00 00 00 00 
       00000A2E 00 00 00 00 00 00 00 00 00 00 
       00000A38 00 00 00 00 00 00 00 00 00 00 
       00000A42 00 00 00 00 00 00 00 00 00 00 
       00000A4C 00 00 00 00 00 00 00 00 00 00 
       00000A56 00 00 00 00 00 00 00 00 00 00 
       00000A60 00 00 00 00 00 00 00 00 00 00 
       00000A6A 00 00 00 00 00 00 00 00 00 00 
       00000A74 00 00 00 00 00 00 00 00 00 00 
       00000A7E 00 00 00 00 00 00 00 00 00 00 
       00000A88 00 00 00 00 00 00 00 00 00 00 
       00000A92 00 00 00 00 00 00 00 00 00 00 
       00000A9C 00 00 00 00 00 00 00 00 00 00 
       00000AA6 00 00 00 00 00 00 00 00 00 00 
       00000AB0 00 00 00 00 00 00 00 00 00 00 
       00000ABA 00 00 00 00 00 00 00 00 00 00 
       00000AC4 00 00 00 00 00 00 00 00 00 00 
       00000ACE 00 00 00 00 00 00 00 00 00 00 
       00000AD8 00 00 00 00 00 00 00 00 00 00 
       00000AE2 00 00 00 00 00 00 00 00 00 00 
       00000AEC 00 00 00 00 00 00 00 00 00 00 
       00000AF6 00 00 00 00 00 00 00 00 00 00 
       00000B00 00 00 00 00 00 00 00 00 00 00 
       00000B0A 00 00 00 00 00 00 00 00 00 00 
       00000B14 00 00 00 00 00 00 00 00 00 00 
       00000B1E 00 00 00 00 00 00 00 00 00 00 
       00000B28 00 00 00 00 00 00 00 00 00 00 
       00000B32 00 00 00 00 00 00 00 00 00 00 
       00000B3C 00 00 00 00 00 00 00 00 00 00 
       00000B46 00 00 00 00 00 00 00 00 00 00 
       00000B50 00 00 00 00 00 00 00 00 00 00 
       00000B5A 00 00 00 00 00 00 00 00 00 00 
       00000B64 00 00 00 00 00 00 00 00 00 00 
       00000B6E 00 00 00 00 00 00 00 00 00 00 
       00000B78 00 00 00 00 00 00 00 00 00 00 
       00000B82 00 00 00 00 00 00 00 00 00 00 
       00000B8C 00 00 00 00 00 00 00 00 00 00 
       00000B96 00 00 00 00 00 00 00 00 00 00 
       00000BA0 00 00 00 00 00 00 00 00 00 00 
       00000BAA 00 00 00 00 00 00 00 00 00 00 
       00000BB4 00 00 00 00 00 00 00 00 00 00 
       00000BBE 00 00 00 00 00 00 00 00 00 00 
       00000BC8 00 00 00 00 00 00 00 00 00 00 
       00000BD2 00 00 00 00 00 00 00 00 00 00 
       00000BDC 00 00 00 00 00 00 00 00 00 00 
       00000BE6 00 00 00 00 00 00 00 00 00 00 
       00000BF0 00 00 00 00 00 00 00 00 00 00 
       00000BFA 00 00 00 00 00 00 00 00 00 00 
       00000C04 00 00 00 00 00 00 00 00 00 00 
       00000C0E 00 00 00 00 00 00 00 00 00 00 
       00000C18 00 00 00 00 00 00 00 00 00 00 
       00000C22 00 00 00 00 00 00 00 00 00 00 
       00000C2C 00 00 00 00 00 00 00 00 00 00 
       00000C36 00 00 00 00 00 00 00 00 00 00 
       00000C40 00 00 00 00 00 00 00 00 00 00 
       00000C4A 00 00 00 00 00 00 00 00 00 00 
       00000C54 00 00 00 00 00 00 00 00 00 00 
       00000C5E 00 00 00 00 00 00 00 00 00 00 
       00000C68 00 00 00 00 00 00 00 00 00 00 
       00000C72 00 00 00 00 00 00 00 00 00 00 
       00000C7C 00 00 00 00 00 00 00 00 00 00 
       00000C86 00 00 00 00 00 00 00 00 00 00 
       00000C90 00 00 00 00 00 00 00 00 00 00 
       00000C9A 00 00 00 00 00 00 00 00 00 00 
       00000CA4 00 00 00 00 00 00 00 00 00 00 
       00000CAE 00 00 00 00 00 00 00 00 00 00 
       00000CB8 00 00 00 00 00 00 00 00 00 00 
       00000CC2 00 00 00 00 00 00 00 00 00 00 
       00000CCC 00 00 00 00 00 00 00 00 00 00 
       00000CD6 00 00 00 00 00 00 00 00 00 00 
       00000CE0 00 00 00 00 00 00 00 00 00 00 
       00000CEA 00 00 00 00 00 00 00 00 00 00 
       00000CF4 00 00 00 00 00 00 00 00 00 00 
       00000CFE 00 00 00 00 00 00 00 00 00 00 
       00000D08 00 00 00 00 00 00 00 00 00 00 
       00000D12 00 00 00 00 00 00 00 00 00 00 
       00000D1C 00 00 00 00 00 00 00 00 00 00 
       00000D26 00 00 00 00 00 00 00 00 00 00 
       00000D30 00 00 00 00 00 00 00 00 00 00 
       00000D3A 00 00 00 00 00 00 00 00 00 00 
       00000D44 00 00 00 00 00 00 00 00 00 00 
       00000D4E 00 00 00 00 00 00 00 00 00 00 
       00000D58 00 00 00 00 00 00 00 00 00 00 
       00000D62 00 00 00 00 00 00 00 00 00 00 
       00000D6C 00 00 00 00 00 00 00 00 00 00 
       00000D76 00 00 00 00 00 00 00 00 00 00 
       00000D80 00 00 00 00 00 00 00 00 00 00 
       00000D8A 00 00 00 00 00 00 00 00 00 00 
       00000D94 00 00 00 00 00 00 00 00 00 00 
       00000D9E 00 00 00 00 00 00 00 00 00 00 
       00000DA8 00 00 00 00 00 00 00 00 00 00 
       00000DB2 00 00 00 00 00 00 00 00 00 00 
       00000DBC 00 00 00 00 00 00 00 00 00 00 
       00000DC6 00 00 00 00 00 00 00 00 00 00 
       00000DD0 00 00 00 00 00 00 00 00 00 00 
       00000DDA 00 00 00 00 00 00 00 00 00 00 
       00000DE4 00 00 00 00 00 00 00 00 00 00 
       00000DEE 00 00 00 00 00 00 00 00 00 00 
       00000DF8 00 00 00 00 00 00 00 00 00 00 
       00000E02 00 00 00 00 00 00 00 00 00 00 
       00000E0C 00 00 00 00 00 00 00 00 00 00 
       00000E16 00 00 00 00 00 00 00 00 00 00 
       00000E20 00 00 00 00 00 00 00 00 00 00 
       00000E2A 00 00 00 00 00 00 00 00 00 00 
       00000E34 00 00 00 00 00 00 00 00 00 00 
       00000E3E 00 00 00 00 00 00 00 00 00 00 
       00000E48 00 00 00 00 00 00 00 00 00 00 
       00000E52 00 00 00 00 00 00 00 00 00 00 
       00000E5C 00 00 00 00 00 00 00 00 00 00 
       00000E66 00 00 00 00 00 00 00 00 00 00 
       00000E70 00 00 00 00 00 00 00 00 00 00 
       00000E7A 00 00 00 00 00 00 00 00 00 00 
       00000E84 00 00 00 00 00 00 00 00 00 00 
       00000E8E 00 00 00 00 00 00 00 00 00 00 
       00000E98 00 00 00 00 00 00 00 00 00 00 
       00000EA2 00 00 00 00 00 00 00 00 00 00 
       00000EAC 00 00 00 00 00 00 00 00 00 00 
       00000EB6 00 00 00 00 00 00 00 00 00 00 
       00000EC0 00 00 00 00 00 00 00 00 00 00 
       00000ECA 00 00 00 00 00 00 00 00 00 00 
       00000ED4 00 00 00 00 00 00 00 00 00 00 
       00000EDE 00 00 00 00 00 00 00 00 00 00 
       00000EE8 00 00 00 00 00 00 00 00 00 00 
       00000EF2 00 00 00 00 00 00 00 00 00 00 
       00000EFC 00 00 00 00 00 00 00 00 00 00 
       00000F06 00 00 00 00 00 00 00 00 00 00 
       00000F10 00 00 00 00 00 00 00 00 00 00 
       00000F1A 00 00 00 00 00 00 00 00 00 00 
       00000F24 00 00 00 00 00 00 00 00 00 00 
       00000F2E 00 00 00 00 00 00 00 00 00 00 
       00000F38 00 00 00 00 00 00 00 00 00 00 
       00000F42 00 00 00 00 00 00 00 00 00 00 
       00000F4C 00 00 00 00 00 00 00 00 00 00 
       00000F56 00 00 00 00 00 00 00 00 00 00 
       00000F60 00 00 00 00 00 00 00 00 00 00 
       00000F6A 00 00 00 00 00 00 00 00 00 00 
       00000F74 00 00 00 00 00 00 00 00 00 00 
       00000F7E 00 00 00 00 00 00 00 00 00 00 
       00000F88 00 00 00 00 00 00 00 00 00 00 
       00000F92 00 00 00 00 00 00 00 00 00 00 
       00000F9C 00 00 00 00 00 00 00 00 00 00 
       00000FA6 00 00 00 00 00 00 00 00 00 00 
       00000FB0 00 00 00 00 00 00 00 00 00 00 
       00000FBA 00 00 00 00 00 00 00 00 00 00 
       00000FC4 00 00 00 00 00 00 00 00 00 00 
       00000FCE 00 00 00 00 00 00 00 00 00 00 
       00000FD8 00 00 00 00 00 00 00 00 00 00 
       00000FE2 00 00 00 00 00 00 00 00 00 00 
       00000FEC 00 00 00 00 00 00 00 00 00 00 
       00000FF6 00 00 00 00 00 00 00 00 00 00 
       00001000 00 00 00 00 00 00 00 00 00 00 
       0000100A 00 00 00 00 00 00 00 00 00 00 
       00001014 00 00 00 00 00 00 00 00 00 00 
       0000101E 00 00 00 00 00 00 00 00 00 00 
       00001028 00 00 00 00 00 00 00 00 00 00 
       00001032 00 00 00 00 00 00 00 00 00 00 
       0000103C 00 00 00 00 00 00 00 00 00 00 
       00001046 00 00 00 00 00 00 00 00 00 00 
       00001050 00 00 00 00 00 00 00 00 00 00 
       0000105A 00 00 00 00 00 00 00 00 00 00 
       00001064 00 00 00 00 00 00 00 00 00 00 
       0000106E 00 00 00 00 00 00 00 00 00 00 
       00001078 00 00 00 00 00 00 00 00 00 00 
       00001082 00 00 00 00 00 00 00 00 00 00 
       0000108C 00 00 00 00 00 00 00 00 00 00 
       00001096 00 00 00 00 00 00 00 00 00 00 
       000010A0 00 00 00 00 00 00 00 00 00 00 
       000010AA 00 00 00 00 00 00 00 00 00 00 
       000010B4 00 00 00 00 00 00 00 00 00 00 
       000010BE 00 00 00 00 00 00 00 00 00 00 
       000010C8 00 00 00 00 00 00 00 00 00 00 
       000010D2 00 00 00 00 00 00 00 00 00 00 
       000010DC 00 00 00 00 00 00 00 00 00 00 
       000010E6 00 00 00 00 00 00 00 00 00 00 
       000010F0 00 00 00 00 00 00 00 00 00 00 
       000010FA 00 00 00 00 00 00 00 00 00 00 
       00001104 00 00 00 00 00 00 00 00 00 00 
       0000110E 00 00 00 00 00 00 00 00 00 00 
       00001118 00 00 00 00 00 00 00 00 00 00 
       00001122 00 00 00 00 00 00 00 00 00 00 
       0000112C 00 00 00 00 00 00 00 00 00 00 
       00001136 00 00 00 00 00 00 00 00 00 00 
       00001140 00 00 00 00 00 00 00 00 00 00 
       0000114A 00 00 00 00 00 00 00 00 00 00 
       00001154 00 00 00 00 00 00 00 00 00 00 
       0000115E 00 00 00 00 00 00 00 00 00 00 
       00001168 00 00 00 00 00 00 00 00 00 00 
       00001172 00 00 00 00 00 00 00 00 00 00 
       0000117C 00 00 00 00 00 00 00 00 00 00 
       00001186 00 00 00 00 00 00 00 00 00 00 
       00001190 00 00 00 00 00 00 00 00 00 00 
       0000119A 00 00 00 00 00 00 00 00 00 00 
       000011A4 00 00 00 00 00 00 00 00 00 00 
       000011AE 00 00 00 00 00 00 00 00 00 00 
       000011B8 00 00 00 00 00 00 00 00 00 00 
       000011C2 00 00 00 00 00 00 00 00 00 00 
       000011CC 00 00 00 00 00 00 00 00 00 00 
       000011D6 00 00 00 00 00 00 00 00 00 00 
       000011E0 00 00 00 00 00 00 00 00 00 00 
       000011EA 00 00 00 00 00 00 00 00 00 00 
       000011F4 00 00 00 00 00 00 00 00 00 00 
       000011FE 00 00 00 00 00 00 00 00 00 00 
       00001208 00 00 00 00 00 00 00 00 00 00 
       00001212 00 00 00 00 00 00 00 00 00 00 
       0000121C 00 00 00 00 00 00 00 00 00 00 
       00001226 00 00 00 00 00 00 00 00 00 00 
       00001230 00 00 00 00 00 00 00 00 00 00 
       0000123A 00 00 00 00 00 00 00 00 00 00 
       00001244 00 00 00 00 00 00 00 00 00 00 
       0000124E 00 00 00 00 00 00 00 00 00 00 
       00001258 00 00 00 00 00 00 00 00 00 00 
       00001262 00 00 00 00 00 00 00 00 00 00 
       0000126C 00 00 00 00 00 00 00 00 00 00 
       00001276 00 00 00 00 00 00 00 00 00 00 
       00001280 00 00 00 00 00 00 00 00 00 00 
       0000128A 00 00 00 00 00 00 00 00 00 00 
       00001294 00 00 00 00 00 00 00 00 00 00 
       0000129E 00 00 00 00 00 00 00 00 00 00 
       000012A8 00 00 00 00 00 00 00 00 00 00 
       000012B2 00 00 00 00 00 00 00 00 00 00 
       000012BC 00 00 00 00 00 00 00 00 00 00 
       000012C6 00 00 00 00 00 00 00 00 00 00 
       000012D0 00 00 00 00 00 00 00 00 00 00 
       000012DA 00 00 00 00 00 00 00 00 00 00 
       000012E4 00 00 00 00 00 00 00 00 00 00 
       000012EE 00 00 00 00 00 00 00 00 00 00 
       000012F8 00 00 00 00 00 00 00 00 00 00 
       00001302 00 00 00 00 00 00 00 00 00 00 
       0000130C 00 00 00 00 00 00 00 00 00 00 
       00001316 00 00 00 00 00 00 00 00 00 00 
       00001320 00 00 00 00 00 00 00 00 00 00 
       0000132A 00 00 00 00 00 00 00 00 00 00 
       00001334 00 00 00 00 00 00 00 00 00 00 
       0000133E 00 00 00 00 00 00 00 00 00 00 
       00001348 00 00 00 00 00 00 00 00 00 00 
       00001352 00 00 00 00 00 00 00 00 00 00 
       0000135C 00 00 00 00 00 00 00 00 00 00 
       00001366 00 00 00 00 00 00 00 00 00 00 
       00001370 00 00 00 00 00 00 00 00 00 00 
       0000137A 00 00 00 00 00 00 00 00 00 00 
       00001384 00 00 00 00 00 00 00 00 00 00 
       0000138E 00 00 00 00 00 00 00 00 00 00 
       00001398 00 00 00 00 00 00 00 00 00 00 
       000013A2 00 00 00 00 00 00 00 00 00 00 
       000013AC 00 00 00 00 00 00 00 00 00 00 
       000013B6 00 00 00 00 00 00 00 00 00 00 
       000013C0 00 00 00 00 00 00 00 00 00 00 
       000013CA 00 00 00 00 00 00 00 00 00 00 
       000013D4 00 00 00 00 00 00 00 00 00 00 
       000013DE 00 00 00 00 00 00 00 00 00 00 
       000013E8 00 00 00 00 00 00 00 00 00 00 
       000013F2 00 00 00 00 00 00 00 00 00 00 
       000013FC 00 00 00 00 00 00 00 00 00 00 
       00001406 00 00 00 00 00 00 00 00 00 00 
       00001410 00 00 00 00 00 00 00 00 00 00 
       0000141A 00 00 00 00 00 00 00 00 00 00 
       00001424 00 00 00 00 00 00 00 00 00 00 
       0000142E 00 00 00 00 00 00 00 00 00 00 
       00001438 00 00 00 00 00 00 00 00 00 00 
       00001442 00 00 00 00 00 00 00 00 00 00 
       0000144C 00 00 00 00 00 00 00 00 00 00 
       00001456 00 00 00 00 00 00 00 00 00 00 
       00001460 00 00 00 00 00 00 00 00 00 00 
       0000146A 00 00 00 00 00 00 00 00 00 00 
       00001474 00 00 00 00 00 00 00 00 00 00 
       0000147E 00 00 00 00 00 00 00 00 00 00 
       00001488 00 00 00 00 00 00 00 00 00 00 
       00001492 00 00 00 00 00 00 00 00 00 00 
       0000149C 00 00 00 00 00 00 00 00 00 00 
       000014A6 00 00 00 00 00 00 00 00 00 00 
       000014B0 00 00 00 00 00 00 00 00 00 00 
       000014BA 00 00 00 00 00 00 00 00 00 00 
       000014C4 00 00 00 00 00 00 00 00 00 00 
       000014CE 00 00 00 00 00 00 00 00 00 00 
       000014D8 00 00 00 00 00 00 00 00 00 00 
       000014E2 00 00 00 00 00 00 00 00 00 00 
       000014EC 00 00 00 00 00 00 00 00 00 00 
       000014F6 00 00 00 00 00 00 00 00 00 00 
       00001500 00 00 00 00 00 00 00 00 00 00 
       0000150A 00 00 00 00 00 00 00 00 00 00 
       00001514 00 00 00 00 00 00 00 00 00 00 
       0000151E 00 00 00 00 00 00 00 00 00 00 
       00001528 00 00 00 00 00 00 00 00 00 00 
       00001532 00 00 00 00 00 00 00 00 00 00 
       0000153C 00 00 00 00 00 00 00 00 00 00 
       00001546 00 00 00 00 00 00 00 00 00 00 
       00001550 00 00 00 00 00 00 00 00 00 00 
       0000155A 00 00 00 00 00 00 00 00 00 00 
       00001564 00 00 00 00 00 00 00 00 00 00 
       0000156E 00 00 00 00 00 00 00 00 00 00 
       00001578 00 00 00 00 00 00 00 00 00 00 
       00001582 00 00 00 00 00 00 00 00 00 00 
       0000158C 00 00 00 00 00 00 00 00 00 00 
       00001596 00 00 00 00 00 00 00 00 00 00 
       000015A0 00 00 00 00 00 00 00 00 00 00 
       000015AA 00 00 00 00 00 00 00 00 00 00 
       000015B4 00 00 00 00 00 00 00 00 00 00 
       000015BE 00 00 00 00 00 00 00 00 00 00 
       000015C8 00 00 00 00 00 00 00 00 00 00 
       000015D2 00 00 00 00 00 00 00 00 00 00 
       000015DC 00 00 00 00 00 00 00 00 00 00 
       000015E6 00 00 00 00 00 00 00 00 00 00 
       000015F0 00 00 00 00 00 00 00 00 00 00 
       000015FA 00 00 00 00 00 00 00 00 00 00 
       00001604 00 00 00 00 00 00 00 00 00 00 
       0000160E 00 00 00 00 00 00 00 00 00 00 
       00001618 00 00 00 00 00 00 00 00 00 00 
       00001622 00 00 00 00 00 00 00 00 00 00 
       0000162C 00 00 00 00 00 00 00 00 00 00 
       00001636 00 00 00 00 00 00 00 00 00 00 
       00001640 00 00 00 00 00 00 00 00 00 00 
       0000164A 00 00 00 00 00 00 00 00 00 00 
       00001654 00 00 00 00 00 00 00 00 00 00 
       0000165E 00 00 00 00 00 00 00 00 00 00 
       00001668 00 00 00 00 00 00 00 00 00 00 
       00001672 00 00 00 00 00 00 00 00 00 00 
       0000167C 00 00 00 00 00 00 00 00 00 00 
       00001686 00 00 00 00 00 00 00 00 00 00 
       00001690 00 00 00 00 00 00 00 00 00 00 
       0000169A 00 00 00 00 00 00 00 00 00 00 
       000016A4 00 00 00 00 00 00 00 00 00 00 
       000016AE 00 00 00 00 00 00 00 00 00 00 
       000016B8 00 00 00 00 00 00 00 00 00 00 
       000016C2 00 00 00 00 00 00 00 00 00 00 
       000016CC 00 00 00 00 00 00 00 00 00 00 
       000016D6 00 00 00 00 00 00 00 00 00 00 
       000016E0 00 00 00 00 00 00 00 00 00 00 
       000016EA 00 00 00 00 00 00 00 00 00 00 
       000016F4 00 00 00 00 00 00 00 00 00 00 
       000016FE 00 00 00 00 00 00 00 00 00 00 
       00001708 00 00 00 00 00 00 00 00 00 00 
       00001712 00 00 00 00 00 00 00 00 00 00 
       0000171C 00 00 00 00 00 00 00 00 00 00 
       00001726 00 00 00 00 00 00 00 00 00 00 
       00001730 00 00 00 00 00 00 00 00 00 00 
       0000173A 00 00 00 00 00 00 00 00 00 00 
       00001744 00 00 00 00 00 00 00 00 00 00 
       0000174E 00 00 00 00 00 00 00 00 00 00 
       00001758 00 00 00 00 00 00 00 00 00 00 
       00001762 00 00 00 00 00 00 00 00 00 00 
       0000176C 00 00 00 00 00 00 00 00 00 00 
       00001776 00 00 00 00 00 00 00 00 00 00 
       00001780 00 00 00 00 00 00 00 00 00 00 
       0000178A 00 00 00 00 00 00 00 00 00 00 
       00001794 00 00 00 00 00 00 00 00 00 00 
       0000179E 00 00 00 00 00 00 00 00 00 00 
       000017A8 00 00 00 00 00 00 00 00 00 00 
       000017B2 00 00 00 00 00 00 00 00 00 00 
       000017BC 00 00 00 00 00 00 00 00 00 00 
       000017C6 00 00 00 00 00 00 00 00 00 00 
       000017D0 00 00 00 00 00 00 00 00 00 00 
       000017DA 00 00 00 00 00 00 00 00 00 00 
       000017E4 00 00 00 00 00 00 00 00 00 00 
       000017EE 00 00 00 00 00 00 00 00 00 00 
       000017F8 00 00 00 00 00 00 00 00 00 00 
       00001802 00 00 00 00 00 00 00 00 00 00 
       0000180C 00 00 00 00 00 00 00 00 00 00 
       00001816 00 00 00 00 00 00 00 00 00 00 
       00001820 00 00 00 00 00 00 00 00 00 00 
       0000182A 00 00 00 00 00 00 00 00 00 00 
       00001834 00 00 00 00 00 00 00 00 00 00 
       0000183E 00 00 00 00 00 00 00 00 00 00 
       00001848 00 00 00 00 00 00 00 00 00 00 
       00001852 00 00 00 00 00 00 00 00 00 00 
       0000185C 00 00 00 00 00 00 00 00 00 00 
       00001866 00 00 00 00 00 00 00 00 00 00 
       00001870 00 00 00 00 00 00 00 00 00 00 
       0000187A 00 00 00 00 00 00 00 00 00 00 
       00001884 00 00 00 00 00 00 00 00 00 00 
       0000188E 00 00 00 00 00 00 00 00 00 00 
       00001898 00 00 00 00 00 00 00 00 00 00 
       000018A2 00 00 00 00 00 00 00 00 00 00 
       000018AC 00 00 00 00 00 00 00 00 00 00 
       000018B6 00 00 00 00 00 00 00 00 00 00 
       000018C0 00 00 00 00 00 00 00 00 00 00 
       000018CA 00 00 00 00 00 00 00 00 00 00 
       000018D4 00 00 00 00 00 00 00 00 00 00 
       000018DE 00 00 00 00 00 00 00 00 00 00 
       000018E8 00 00 00 00 00 00 00 00 00 00 
       000018F2 00 00 00 00 00 00 00 00 00 00 
       000018FC 00 00 00 00 00 00 00 00 00 00 
       00001906 00 00 00 00 00 00 00 00 00 00 
       00001910 00 00 00 00 00 00 00 00 00 00 
       0000191A 00 00 00 00 00 00 00 00 00 00 
       00001924 00 00 00 00 00 00 00 00 00 00 
       0000192E 00 00 00 00 00 00 00 00 00 00 
       00001938 00 00 00 00 00 00 00 00 00 00 
       00001942 00 00 00 00 00 00 00 00 00 00 
       0000194C 00 00 00 00 00 00 00 00 00 00 
       00001956 00 00 00 00 00 00 00 00 00 00 
       00001960 00 00 00 00 00 00 00 00 00 00 
       0000196A 00 00 00 00 00 00 00 00 00 00 
       00001974 00 00 00 00 00 00 00 00 00 00 
       0000197E 00 00 00 00 00 00 00 00 00 00 
       00001988 00 00 00 00 00 00 00 00 00 00 
       00001992 00 00 00 00 00 00 00 00 00 00 
       0000199C 00 00 00 00 00 00 00 00 00 00 
       000019A6 00 00 00 00 00 00 00 00 00 00 
       000019B0 00 00 00 00 00 00 00 00 00 00 
       000019BA 00 00 00 00 00 00 00 00 00 00 
       000019C4 00 00 00 00 00 00 00 00 00 00 
       000019CE 00 00 00 00 00 00 00 00 00 00 
       000019D8 00 00 00 00 00 00 00 00 00 00 
       000019E2 00 00 00 00 00 00 00 00 00 00 
       000019EC 00 00 00 00 00 00 00 00 00 00 
       000019F6 00 00 00 00 00 00 00 00 00 00 
       00001A00 00 00 00 00 00 00 00 00 00 00 
       00001A0A 00 00 00 00 00 00 00 00 00 00 
       00001A14 00 00 00 00 00 00 00 00 00 00 
       00001A1E 00 00 00 00 00 00 00 00 00 00 
       00001A28 00 00 00 00 00 00 00 00 00 00 
       00001A32 00 00 00 00 00 00 00 00 00 00 
       00001A3C 00 00 00 00 00 00 00 00 00 00 
       00001A46 00 00 00 00 00 00 00 00 00 00 
       00001A50 00 00 00 00 00 00 00 00 00 00 
       00001A5A 00 00 00 00 00 00 00 00 00 00 
       00001A64 00 00 00 00 00 00 00 00 00 00 
       00001A6E 00 00 00 00 00 00 00 00 00 00 
       00001A78 00 00 00 00 00 00 00 00 00 00 
       00001A82 00 00 00 00 00 00 00 00 00 00 
       00001A8C 00 00 00 00 00 00 00 00 00 00 
       00001A96 00 00 00 00 00 00 00 00 00 00 
       00001AA0 00 00 00 00 00 00 00 00 00 00 
       00001AAA 00 00 00 00 00 00 00 00 00 00 
       00001AB4 00 00 00 00 00 00 00 00 00 00 
       00001ABE 00 00 00 00 00 00 00 00 00 00 
       00001AC8 00 00 00 00 00 00 00 00 00 00 
       00001AD2 00 00 00 00 00 00 00 00 00 00 
       00001ADC 00 00 00 00 00 00 00 00 00 00 
       00001AE6 00 00 00 00 00 00 00 00 00 00 
       00001AF0 00 00 00 00 00 00 00 00 00 00 
       00001AFA 00 00 00 00 00 00 00 00 00 00 
       00001B04 00 00 00 00 00 00 00 00 00 00 
       00001B0E 00 00 00 00 00 00 00 00 00 00 
       00001B18 00 00 00 00 00 00 00 00 00 00 
       00001B22 00 00 00 00 00 00 00 00 00 00 
       00001B2C 00 00 00 00 00 00 00 00 00 00 
       00001B36 00 00 00 00 00 00 00 00 00 00 
       00001B40 00 00 00 00 00 00 00 00 00 00 
       00001B4A 00 00 00 00 00 00 00 00 00 00 
       00001B54 00 00 00 00 00 00 00 00 00 00 
       00001B5E 00 00 00 00 00 00 00 00 00 00 
       00001B68 00 00 00 00 00 00 00 00 00 00 
       00001B72 00 00 00 00 00 00 00 00 00 00 
       00001B7C 00 00 00 00 00 00 00 00 00 00 
       00001B86 00 00 00 00 00 00 00 00 00 00 
       00001B90 00 00 00 00 00 00 00 00 00 00 
       00001B9A 00 00 00 00 00 00 00 00 00 00 
       00001BA4 00 00 00 00 00 00 00 00 00 00 
       00001BAE 00 00 00 00 00 00 00 00 00 00 
       00001BB8 00 00 00 00 00 00 00 00 00 00 
       00001BC2 00 00 00 00 00 00 00 00 00 00 
       00001BCC 00 00 00 00 00 00 00 00 00 00 
       00001BD6 00 00 00 00 00 00 00 00 00 00 
       00001BE0 00 00 00 00 00 00 00 00 00 00 
       00001BEA 00 00 00 00 00 00 00 00 00 00 
       00001BF4 00 00 00 00 00 00 00 00 00 00 
       00001BFE 00 00 00 00 00 00 00 00 00 00 
       00001C08 00 00 00 00 00 00 00 00 00 00 
       00001C12 00 00 00 00 00 00 00 00 00 00 
       00001C1C 00 00 00 00 00 00 00 00 00 00 
       00001C26 00 00 00 00 00 00 00 00 00 00 
       00001C30 00 00 00 00 00 00 00 00 00 00 
       00001C3A 00 00 00 00 00 00 00 00 00 00 
       00001C44 00 00 00 00 00 00 00 00 00 00 
       00001C4E 00 00 00 00 00 00 00 00 00 00 
       00001C58 00 00 00 00 00 00 00 00 00 00 
       00001C62 00 00 00 00 00 00 00 00 00 00 
       00001C6C 00 00 00 00 00 00 00 00 00 00 
       00001C76 00 00 00 00 00 00 00 00 00 00 
       00001C80 00 00 00 00 00 00 00 00 00 00 
       00001C8A 00 00 00 00 00 00 00 00 00 00 
       00001C94 00 00 00 00 00 00 00 00 00 00 
       00001C9E 00 00 00 00 00 00 00 00 00 00 
       00001CA8 00 00 00 00 00 00 00 00 00 00 
       00001CB2 00 00 00 00 00 00 00 00 00 00 
       00001CBC 00 00 00 00 00 00 00 00 00 00 
       00001CC6 00 00 00 00 00 00 00 00 00 00 
       00001CD0 00 00 00 00 00 00 00 00 00 00 
       00001CDA 00 00 00 00 00 00 00 00 00 00 
       00001CE4 00 00 00 00 00 00 00 00 00 00 
       00001CEE 00 00 00 00 00 00 00 00 00 00 
       00001CF8 00 00 00 00 00 00 00 00 00 00 
       00001D02 00 00 00 00 00 00 00 00 00 00 
       00001D0C 00 00 00 00 00 00 00 00 00 00 
       00001D16 00 00 00 00 00 00 00 00 00 00 
       00001D20 00 00 00 00 00 00 00 00 00 00 
       00001D2A 00 00 00 00 00 00 00 00 00 00 
       00001D34 00 00 00 00 00 00 00 00 00 00 
       00001D3E 00 00 00 00 00 00 00 00 00 00 
       00001D48 00 00 00 00 00 00 00 00 00 00 
       00001D52 00 00 00 00 00 00 00 00 00 00 
       00001D5C 00 00 00 00 00 00 00 00 00 00 
       00001D66 00 00 00 00 00 00 00 00 00 00 
       00001D70 00 00 00 00 00 00 00 00 00 00 
       00001D7A 00 00 00 00 00 00 00 00 00 00 
       00001D84 00 00 00 00 00 00 00 00 00 00 
       00001D8E 00 00 00 00 00 00 00 00 00 00 
       00001D98 00 00 00 00 00 00 00 00 00 00 
       00001DA2 00 00 00 00 00 00 00 00 00 00 
       00001DAC 00 00 00 00 00 00 00 00 00 00 
       00001DB6 00 00 00 00 00 00 00 00 00 00 
       00001DC0 00 00 00 00 00 00 00 00 00 00 
       00001DCA 00 00 00 00 00 00 00 00 00 00 
       00001DD4 00 00 00 00 00 00 00 00 00 00 
       00001DDE 00 00 00 00 00 00 00 00 00 00 
       00001DE8 00 00 00 00 00 00 00 00 00 00 
       00001DF2 00 00 00 00 00 00 00 00 00 00 
       00001DFC 00 00 00 00 00 00 00 00 00 00 
       00001E06 00 00 00 00 00 00 00 00 00 00 
       00001E10 00 00 00 00 00 00 00 00 00 00 
       00001E1A 00 00 00 00 00 00 00 00 00 00 
       00001E24 00 00 00 00 00 00 00 00 00 00 
       00001E2E 00 00 00 00 00 00 00 00 00 00 
       00001E38 00 00 00 00 00 00 00 00 00 00 
       00001E42 00 00 00 00 00 00 00 00 00 00 
       00001E4C 00 00 00 00 00 00 00 00 00 00 
       00001E56 00 00 00 00 00 00 00 00 00 00 
       00001E60 00 00 00 00 00 00 00 00 00 00 
       00001E6A 00 00 00 00 00 00 00 00 00 00 
       00001E74 00 00 00 00 00 00 00 00 00 00 
       00001E7E 00 00 00 00 00 00 00 00 00 00 
       00001E88 00 00 00 00 00 00 00 00 00 00 
       00001E92 00 00 00 00 00 00 00 00 00 00 
       00001E9C 00 00 00 00 00 00 00 00 00 00 
       00001EA6 00 00 00 00 00 00 00 00 00 00 
       00001EB0 00 00 00 00 00 00 00 00 00 00 
       00001EBA 00 00 00 00 00 00 00 00 00 00 
       00001EC4 00 00 00 00 00 00 00 00 00 00 
       00001ECE 00 00 00 00 00 00 00 00 00 00 
       00001ED8 00 00 00 00 00 00 00 00 00 00 
       00001EE2 00 00 00 00 00 00 00 00 00 00 
       00001EEC 00 00 00 00 00 00 00 00 00 00 
       00001EF6 00 00 00 00 00 00 00 00 00 00 
       00001F00 00 00 00 00 00 00 00 00 00 00 
       00001F0A 00 00 00 00 00 00 00 00 00 00 
       00001F14 00 00 00 00 00 00 00 00 00 00 
       00001F1E 00 00 00 00 00 00 00 00 00 00 
       00001F28 00 00 00 00 00 00 00 00 00 00 
       00001F32 00 00 00 00 00 00 00 00 00 00 
       00001F3C 00 00 00 00 00 00 00 00 00 00 
       00001F46 00 00 00 00 00 00 00 00 00 00 
       00001F50 00 00 00 00 00 00 00 00 00 00 
       00001F5A 00 00 00 00 00 00 00 00 00 00 
       00001F64 00 00 00 00 00 00 00 00 00 00 
       00001F6E 00 00 00 00 00 00 00 00 00 00 
       00001F78 00 00 00 00 00 00 00 00 00 00 
       00001F82 00 00 00 00 00 00 00 00 00 00 
       00001F8C 00 00 00 00 00 00 00 00 00 00 
       00001F96 00 00 00 00 00 00 00 00 00 00 
       00001FA0 00 00 00 00 00 00 00 00 00 00 
       00001FAA 00 00 00 00 00 00 00 00 00 00 
       00001FB4 00 00 00 00 00 00 00 00 00 00 
       00001FBE 00 00 00 00 00 00 00 00 00 00 
       00001FC8 00 00 00 00 00 00 00 00 00 00 
       00001FD2 00 00 00 00 00 00 00 00 00 00 
       00001FDC 00 00 00 00 00 00 00 00 00 00 
       00001FE6 00 00 00 00 00 00 00 00 00 00 
       00001FF0 00 00 00 00 00 00 00 00 00 00 
       00001FFA 00 00 00 00 00 00 00 00 00 00 
       00002004 00 00 00 00 00 00 00 00 00 00 
       0000200E 00 00 00 00 00 00 00 00 00 00 
       00002018 00 00 00 00 00 00 00 00 00 00 
       00002022 00 00 00 00 00 00 00 00 00 00 
       0000202C 00 00 00 00 00 00 00 00 00 00 
       00002036 00 00 00 00 00 00 00 00 00 00 
       00002040 00 00 00 00 00 00 00 00 00 00 
       0000204A 00 00 00 00 00 00 00 00 00 00 
       00002054 00 00 00 00 00 00 00 00 00 00 
       0000205E 00 00 00 00 00 00 00 00 00 00 
       00002068 00 00 00 00 00 00 00 00 00 00 
       00002072 00 00 00 00 00 00 00 00 00 00 
       0000207C 00 00 00 00 00 00 00 00 00 00 
       00002086 00 00 00 00 00 00 00 00 00 00 
       00002090 00 00 00 00 00 00 00 00 00 00 
       0000209A 00 00 00 00 00 00 00 00 00 00 
       000020A4 00 00 00 00 00 00 00 00 00 00 
       000020AE 00 00 00 00 00 00 00 00 00 00 
       000020B8 00 00 00 00 00 00 00 00 00 00 
       000020C2 00 00 00 00 00 00 00 00 00 00 
       000020CC 00 00 00 00 00 00 00 00 00 00 
       000020D6 00 00 00 00 00 00 00 00 00 00 
       000020E0 00 00 00 00 00 00 00 00 00 00 
       000020EA 00 00 00 00 00 00 00 00 00 00 
       000020F4 00 00 00 00 00 00 00 00 00 00 
       000020FE 00 00 00 00 00 00 00 00 00 00 
       00002108 00 00 00 00 00 00 00 00 00 00 
       00002112 00 00 00 00 00 00 00 00 00 00 
       0000211C 00 00 00 00 00 00 00 00 00 00 
       00002126 00 00 00 00 00 00 00 00 00 00 
       00002130 00 00 00 00 00 00 00 00 00 00 
       0000213A 00 00 00 00 00 00 00 00 00 00 
       00002144 00 00 00 00 00 00 00 00 00 00 
       0000214E 00 00 00 00 00 00 00 00 00 00 
       00002158 00 00 00 00 00 00 00 00 00 00 
       00002162 00 00 00 00 00 00 00 00 00 00 
       0000216C 00 00 00 00 00 00 00 00 00 00 
       00002176 00 00 00 00 00 00 00 00 00 00 
       00002180 00 00 00 00 00 00 00 00 00 00 
       0000218A 00 00 00 00 00 00 00 00 00 00 
       00002194 00 00 00 00 00 00 00 00 00 00 
       0000219E 00 00 00 00 00 00 00 00 00 00 
       000021A8 00 00 00 00 00 00 00 00 00 00 
       000021B2 00 00 00 00 00 00 00 00 00 00 
       000021BC 00 00 00 00 00 00 00 00 00 00 
       000021C6 00 00 00 00 00 00 00 00 00 00 
       000021D0 00 00 00 00 00 00 00 00 00 00 
       000021DA 00 00 00 00 00 00 00 00 00 00 
       000021E4 00 00 00 00 00 00 00 00 00 00 
       000021EE 00 00 00 00 00 00 00 00 00 00 
       000021F8 00 00 00 00 00 00 00 00 00 00 
       00002202 00 00 00 00 00 00 00 00 00 00 
       0000220C 00 00 00 00 00 00 00 00 00 00 
       00002216 00 00 00 00 00 00 00 00 00 00 
       00002220 00 00 00 00 00 00 00 00 00 00 
       0000222A 00 00 00 00 00 00 00 00 00 00 
       00002234 00 00 00 00 00 00 00 00 00 00 
       0000223E 00 00 00 00 00 00 00 00 00 00 
       00002248 00 00 00 00 00 00 00 00 00 00 
       00002252 00 00 00 00 00 00 00 00 00 00 
       0000225C 00 00 00 00 00 00 00 00 00 00 
       00002266 00 00 00 00 00 00 00 00 00 00 
       00002270 00 00 00 00 00 00 00 00 00 00 
       0000227A 00 00 00 00 00 00 00 00 00 00 
       00002284 00 00 00 00 00 00 00 00 00 00 
       0000228E 00 00 00 00 00 00 00 00 00 00 
       00002298 00 00 00 00 00 00 00 00 00 00 
       000022A2 00 00 00 00 00 00 00 00 00 00 
       000022AC 00 00 00 00 00 00 00 00 00 00 
       000022B6 00 00 00 00 00 00 00 00 00 00 
       000022C0 00 00 00 00 00 00 00 00 00 00 
       000022CA 00 00 00 00 00 00 00 00 00 00 
       000022D4 00 00 00 00 00 00 00 00 00 00 
       000022DE 00 00 00 00 00 00 00 00 00 00 
       000022E8 00 00 00 00 00 00 00 00 00 00 
       000022F2 00 00 00 00 00 00 00 00 00 00 
       000022FC 00 00 00 00 00 00 00 00 00 00 
       00002306 00 00 00 00 00 00 00 00 00 00 
       00002310 00 00 00 00 00 00 00 00 00 00 
       0000231A 00 00 00 00 00 00 00 00 00 00 
       00002324 00 00 00 00 00 00 00 00 00 00 
       0000232E 00 00 00 00 00 00 00 00 00 00 
       00002338 00 00 00 00 00 00 00 00 00 00 
       00002342 00 00 00 00 00 00 00 00 00 00 
       0000234C 00 00 00 00 00 00 00 00 00 00 
       00002356 00 00 00 00 00 00 00 00 00 00 
       00002360 00 00 00 00 00 00 00 00 00 00 
       0000236A 00 00 00 00 00 00 00 00 00 00 
       00002374 00 00 00 00 00 00 00 00 00 00 
       0000237E 00 00 00 00 00 00 00 00 00 00 
       00002388 00 00 00 00 00 00 00 00 00 00 
       00002392 00 00 00 00 00 00 00 00 00 00 
       0000239C 00 00 00 00 00 00 00 00 00 00 
       000023A6 00 00 00 00 00 00 00 00 00 00 
       000023B0 00 00 00 00 00 00 00 00 00 00 
       000023BA 00 00 00 00 00 00 00 00 00 00 
       000023C4 00 00 00 00 00 00 00 00 00 00 
       000023CE 00 00 00 00 00 00 00 00 00 00 
       000023D8 00 00 00 00 00 00 00 00 00 00 
       000023E2 00 00 00 00 00 00 00 00 00 00 
       000023EC 00 00 00 00 00 00 00 00 00 00 
       000023F6 00 00 00 00 00 00 00 00 00 00 
       00002400 00 00 00 00 00 00 00 00 00 00 
       0000240A 00 00 00 00 00 00 00 00 00 00 
       00002414 00 00 00 00 00 00 00 00 00 00 
       0000241E 00 00 00 00 00 00 00 00 00 00 
       00002428 00 00 00 00 00 00 00 00 00 00 
       00002432 00 00 00 00 00 00 00 00 00 00 
       0000243C 00 00 00 00 00 00 00 00 00 00 
       00002446 00 00 00 00 00 00 00 00 00 00 
       00002450 00 00 00 00 00 00 00 00 00 00 
       0000245A 00 00 00 00 00 00 00 00 00 00 
       00002464 00 00 00 00 00 00 00 00 00 00 
       0000246E 00 00 00 00 00 00 00 00 00 00 
       00002478 00 00 00 00 00 00 00 00 00 00 
       00002482 00 00 00 00 00 00 00 00 00 00 
       0000248C 00 00 00 00 00 00 00 00 00 00 
       00002496 00 00 00 00 00 00 00 00 00 00 
       000024A0 00 00 00 00 00 00 00 00 00 00 
       000024AA 00 00 00 00 00 00 00 00 00 00 
       000024B4 00 00 00 00 00 00 00 00 00 00 
       000024BE 00 00 00 00 00 00 00 00 00 00 
       000024C8 00 00 00 00 00 00 00 00 00 00 
       000024D2 00 00 00 00 00 00 00 00 00 00 
       000024DC 00 00 00 00 00 00 00 00 00 00 
       000024E6 00 00 00 00 00 00 00 00 00 00 
       000024F0 00 00 00 00 00 00 00 00 00 00 
       000024FA 00 00 00 00 00 00 00 00 00 00 
       00002504 00 00 00 00 00 00 00 00 00 00 
       0000250E 00 00 00 00 00 00 00 00 00 00 
       00002518 00 00 00 00 00 00 00 00 00 00 
       00002522 00 00 00 00 00 00 00 00 00 00 
       0000252C 00 00 00 00 00 00 00 00 00 00 
       00002536 00 00 00 00 00 00 00 00 00 00 
       00002540 00 00 00 00 00 00 00 00 00 00 
       0000254A 00 00 00 00 00 00 00 00 00 00 
       00002554 00 00 00 00 00 00 00 00 00 00 
       0000255E 00 00 00 00 00 00 00 00 00 00 
       00002568 00 00 00 00 00 00 00 00 00 00 
       00002572 00 00 00 00 00 00 00 00 00 00 
       0000257C 00 00 00 00 00 00 00 00 00 00 
       00002586 00 00 00 00 00 00 00 00 00 00 
       00002590 00 00 00 00 00 00 00 00 00 00 
       0000259A 00 00 00 00 00 00 00 00 00 00 
       000025A4 00 00 00 00 00 00 00 00 00 00 
       000025AE 00 00 00 00 00 00 00 00 00 00 
       000025B8 00 00 00 00 00 00 00 00 00 00 
       000025C2 00 00 00 00 00 00 00 00 00 00 
       000025CC 00 00 00 00 00 00 00 00 00 00 
       000025D6 00 00 00 00 00 00 00 00 00 00 
       000025E0 00 00 00 00 00 00 00 00 00 00 
       000025EA 00 00 00 00 00 00 00 00 00 00 
       000025F4 00 00 00 00 00 00 00 00 00 00 
       000025FE 00 00 00 00 00 00 00 00 00 00 
       00002608 00 00 00 00 00 00 00 00 00 00 
       00002612 00 00 00 00 00 00 00 00 00 00 
       0000261C 00 00 00 00 00 00 00 00 00 00 
       00002626 00 00 00 00 00 00 00 00 00 00 
       00002630 00 00 00 00 00 00 00 00 00 00 
       0000263A 00 00 00 00 00 00 00 00 00 00 
       00002644 00 00 00 00 00 00 00 00 00 00 
       0000264E 00 00 00 00 00 00 00 00 00 00 
       00002658 00 00 00 00 00 00 00 00 00 00 
       00002662 00 00 00 00 00 00 00 00 00 00 
       0000266C 00 00 00 00 00 00 00 00 00 00 
       00002676 00 00 00 00 00 00 00 00 00 00 
       00002680 00 00 00 00 00 00 00 00 00 00 
       0000268A 00 00 00 00 00 00 00 00 00 00 
       00002694 00 00 00 00 00 00 00 00 00 00 
       0000269E 00 00 00 00 00 00 00 00 00 00 
       000026A8 00 00 00 00 00 00 00 00 00 00 
       000026B2 00 00 00 00 00 00 00 00 00 00 
       000026BC 00 00 00 00 00 00 00 00 00 00 
       000026C6 00 00 00 00 00 00 00 00 00 00 
       000026D0 00 00 00 00 00 00 00 00 00 00 
       000026DA 00 00 00 00 00 00 00 00 00 00 
       000026E4 00 00 00 00 00 00 00 00 00 00 
       000026EE 00 00 00 00 00 00 00 00 00 00 
       000026F8 00 00 00 00 00 00 00 00 00 00 
       00002702 00 00 00 00 00 00 00 00 00 00 
       0000270C 00 00 00 00 00 00 00 00 00 00 
       00002716 00 00 00 00 00 00 00 00 00 00 
       00002720 00 00 00 00 00 00 00 00 00 00 
       0000272A 00 00 00 00 00 00 00 00 00 00 
       00002734 00 00 00 00 00 00 00 00 00 00 
       0000273E 00 00 00 00 00 00 00 00 00 00 
       00002748 00 00 00 00 00 00 00 00 00 00 
       00002752 00 00 00 00 00 00 00 00 00 00 
       0000275C 00 00 00 00 00 00 00 00 00 00 
       00002766 00 00 00 00 00 00 00 00 00 00 
       00002770 00 00 00 00 00 00 00 00 00 00 
       0000277A 00 00 00 00 00 00 00 00 00 00 
       00002784 00 00 00 00 00 00 00 00 00 00 
       0000278E 00 00 00 00 00 00 00 00 00 00 
       00002798 00 00 00 00 00 00 00 00 00 00 
       000027A2 00 00 00 00 00 00 00 00 00 00 
       000027AC 00 00 00 00 00 00 00 00 00 00 
       000027B6 00 00 00 00 00 00 00 00 00 00 
       000027C0 00 00 00 00 00 00 00 00 00 00 
       000027CA 00 00 00 00 00 00 00 00 00 00 
       000027D4 00 00 00 00 00 00 00 00 00 00 
       000027DE 00 00 00 00 00 00 00 00 00 00 
       000027E8 00 00 00 00 00 00 00 00 00 00 
       000027F2 00 00 00 00 00 00 00 00 00 00 
       000027FC 00 00 00 00 00 00 00 00 00 00 
       00002806 00 00 00 00 00 00 00 00 00 00 
       00002810 00 00 00 00 00 00 00 00 00 00 
       0000281A 00 00 00 00 00 00 00 00 00 00 
       00002824 00 00 00 00 00 00 00 00 00 00 
       0000282E 00 00 00 00 00 00 00 00 00 00 
       00002838 00 00 00 00 00 00 00 00 00 00 
       00002842 00 00 00 00 00 00 00 00 00 00 
       0000284C 00 00 00 00 00 00 00 00 00 00 
       00002856 00 00 00 00 00 00 00 00 00 00 
       00002860 00 00 00 00 00 00 00 00 00 00 
       0000286A 00 00 00 00 00 00 00 00 00 00 
       00002874 00 00 00 00 00 00 00 00 00 00 
       0000287E 00 00 00 00 00 00 00 00 00 00 
       00002888 00 00 00 00 00 00 00 00 00 00 
       00002892 00 00 00 00 00 00 00 00 00 00 
       0000289C 00 00 00 00 00 00 00 00 00 00 
       000028A6 00 00 00 00 00 00 00 00 00 00 
       000028B0 00 00 00 00 00 00 00 00 00 00 
       000028BA 00 00 00 00 00 00 00 00 00 00 
       000028C4 00 00 00 00 00 00 00 00 00 00 
       000028CE 00 00 00 00 00 00 00 00 00 00 
       000028D8 00 00 00 00 00 00 00 00 00 00 
       000028E2 00 00 00 00 00 00 00 00 00 00 
       000028EC 00 00 00 00 00 00 00 00 00 00 
       000028F6 00 00 00 00 00 00 00 00 00 00 
       00002900 00 00 00 00 00 00 00 00 00 00 
       0000290A 00 00 00 00 00 00 00 00 00 00 
       00002914 00 00 00 00 00 00 00 00 00 00 
       0000291E 00 00 00 00 00 00 00 00 00 00 
       00002928 00 00 00 00 00 00 00 00 00 00 
       00002932 00 00 00 00 00 00 00 00 00 00 
       0000293C 00 00 00 00 00 00 00 00 00 00 
       00002946 00 00 00 00 00 00 00 00 00 00 
       00002950 00 00 00 00 00 00 00 00 00 00 
       0000295A 00 00 00 00 00 00 00 00 00 00 
       00002964 00 00 00 00 00 00 00 00 00 00 
       0000296E 00 00 00 00 00 00 00 00 00 00 
       00002978 00 00 00 00 00 00 00 00 00 00 
       00002982 00 00 00 00 00 00 00 00 00 00 
       0000298C 00 00 00 00 00 00 00 00 00 00 
       00002996 00 00 00 00 00 00 00 00 00 00 
       000029A0 00 00 00 00 00 00 00 00 00 00 
       000029AA 00 00 00 00 00 00 00 00 00 00 
       000029B4 00 00 00 00 00 00 00 00 00 00 
       000029BE 00 00 00 00 00 00 00 00 00 00 
       000029C8 00 00 00 00 00 00 00 00 00 00 
       000029D2 00 00 00 00 00 00 00 00 00 00 
       000029DC 00 00 00 00 00 00 00 00 00 00 
       000029E6 00 00 00 00 00 00 00 00 00 00 
       000029F0 00 00 00 00 00 00 00 00 00 00 
       000029FA 00 00 00 00 00 00 00 00 00 00 
       00002A04 00 00 00 00 00 00 00 00 00 00 
       00002A0E 00 00 00 00 00 00 00 00 00 00 
       00002A18 00 00 00 00 00 00 00 00 00 00 
       00002A22 00 00 00 00 00 00 00 00 00 00 
       00002A2C 00 00 00 00 00 00 00 00 00 00 
       00002A36 00 00 00 00 00 00 00 00 00 00 
       00002A40 00 00 00 00 00 00 00 00 00 00 
       00002A4A 00 00 00 00 00 00 00 00 00 00 
       00002A54 00 00 00 00 00 00 00 00 00 00 
       00002A5E 00 00 00 00 00 00 00 00 00 00 
       00002A68 00 00 00 00 00 00 00 00 00 00 
       00002A72 00 00 00 00 00 00 00 00 00 00 
       00002A7C 00 00 00 00 00 00 00 00 00 00 
       00002A86 00 00 00 00 00 00 00 00 00 00 
       00002A90 00 00 00 00 00 00 00 00 00 00 
       00002A9A 00 00 00 00 00 00 00 00 00 00 
       00002AA4 00 00 00 00 00 00 00 00 00 00 
       00002AAE 00 00 00 00 00 00 00 00 00 00 
       00002AB8 00 00 00 00 00 00 00 00 00 00 
       00002AC2 00 00 00 00 00 00 00 00 00 00 
       00002ACC 00 00 00 00 00 00 00 00 00 00 
       00002AD6 00 00 00 00 00 00 00 00 00 00 
       00002AE0 00 00 00 00 00 00 00 00 00 00 
       00002AEA 00 00 00 00 00 00 00 00 00 00 
       00002AF4 00 00 00 00 00 00 00 00 00 00 
       00002AFE 00 00 00 00 00 00 00 00 00 00 
       00002B08 00 00 00 00 00 00 00 00 00 00 
       00002B12 00 00 00 00 00 00 00 00 00 00 
       00002B1C 00 00 00 00 00 00 00 00 00 00 
       00002B26 00 00 00 00 00 00 00 00 00 00 
       00002B30 00 00 00 00 00 00 00 00 00 00 
       00002B3A 00 00 00 00 00 00 00 00 00 00 
       00002B44 00 00 00 00 00 00 00 00 00 00 
       00002B4E 00 00 00 00 00 00 00 00 00 00 
       00002B58 00 00 00 00 00 00 00 00 00 00 
       00002B62 00 00 00 00 00 00 00 00 00 00 
       00002B6C 00 00 00 00 00 00 00 00 00 00 
       00002B76 00 00 00 00 00 00 00 00 00 00 
       00002B80 00 00 00 00 00 00 00 00 00 00 
       00002B8A 00 00 00 00 00 00 00 00 00 00 
       00002B94 00 00 00 00 00 00 00 00 00 00 
       00002B9E 00 00 00 00 00 00 00 00 00 00 
       00002BA8 00 00 00 00 00 00 00 00 00 00 
       00002BB2 00 00 00 00 00 00 00 00 00 00 
       00002BBC 00 00 00 00 00 00 00 00 00 00 
       00002BC6 00 00 00 00 00 00 00 00 00 00 
       00002BD0 00 00 00 00 00 00 00 00 00 00 
       00002BDA 00 00 00 00 00 00 00 00 00 00 
       00002BE4 00 00 00 00 00 00 00 00 00 00 
       00002BEE 00 00 00 00 00 00 00 00 00 00 
       00002BF8 00 00 00 00 00 00 00 00 00 00 
       00002C02 00 00 00 00 00 00 00 00 00 00 
       00002C0C 00 00 00 00 00 00 00 00 00 00 
       00002C16 00 00 00 00 00 00 00 00 00 00 
       00002C20 00 00 00 00 00 00 00 00 00 00 
       00002C2A 00 00 00 00 00 00 00 00 00 00 
       00002C34 00 00 00 00 00 00 00 00 00 00 
       00002C3E 00 00 00 00 00 00 00 00 00 00 
       00002C48 00 00 00 00 00 00 00 00 00 00 
       00002C52 00 00 00 00 00 00 00 00 00 00 
       00002C5C 00 00 00 00 00 00 00 00 00 00 
       00002C66 00 00 00 00 00 00 00 00 00 00 
       00002C70 00 00 00 00 00 00 00 00 00 00 
       00002C7A 00 00 00 00 00 00 00 00 00 00 
       00002C84 00 00 00 00 00 00 00 00 00 00 
       00002C8E 00 00 00 00 00 00 00 00 00 00 
       00002C98 00 00 00 00 00 00 00 00 00 00 
       00002CA2 00 00 00 00 00 00 00 00 00 00 
       00002CAC 00 00 00 00 00 00 00 00 00 00 
       00002CB6 00 00 00 00 00 00 00 00 00 00 
       00002CC0 00 00 00 00 00 00 00 00 00 00 
       00002CCA 00 00 00 00 00 00 00 00 00 00 
       00002CD4 00 00 00 00 00 00 00 00 00 00 
       00002CDE 00 00 00 00 00 00 00 00 00 00 
       00002CE8 00 00 00 00 00 00 00 00 00 00 
       00002CF2 00 00 00 00 00 00 00 00 00 00 
       00002CFC 00 00 00 00 00 00 00 00 00 00 
       00002D06 00 00 00 00 00 00 00 00 00 00 
       00002D10 00 00 00 00 00 00 00 00 00 00 
       00002D1A 00 00 00 00 00 00 00 00 00 00 
       00002D24 00 00 00 00 00 00 00 00 00 00 
       00002D2E 00 00 00 00 00 00 00 00 00 00 
       00002D38 00 00 00 00 00 00 00 00 00 00 
       00002D42 00 00 00 00 00 00 00 00 00 00 
       00002D4C 00 00 00 00 00 00 00 00 00 00 
       00002D56 00 00 00 00 00 00 00 00 00 00 
       00002D60 00 00 00 00 00 00 00 00 00 00 
       00002D6A 00 00 00 00 00 00 00 00 00 00 
       00002D74 00 00 00 00 00 00 00 00 00 00 
       00002D7E 00 00 00 00 00 00 00 00 00 00 
       00002D88 00 00 00 00 00 00 00 00 00 00 
       00002D92 00 00 00 00 00 00 00 00 00 00 
       00002D9C 00 00 00 00 00 00 00 00 00 00 
       00002DA6 00 00 00 00 00 00 00 00 00 00 
       00002DB0 00 00 00 00 00 00 00 00 00 00 
       00002DBA 00 00 00 00 00 00 00 00 00 00 
       00002DC4 00 00 00 00 00 00 00 00 00 00 
       00002DCE 00 00 00 00 00 00 00 00 00 00 
       00002DD8 00 00 00 00 00 00 00 00 00 00 
       00002DE2 00 00 00 00 00 00 00 00 00 00 
       00002DEC 00 00 00 00 00 00 00 00 00 00 
       00002DF6 00 00 00 00 00 00 00 00 00 00 
       00002E00 00 00 00 00 00 00 00 00 00 00 
       00002E0A 00 00 00 00 00 00 00 00 00 00 
       00002E14 00 00 00 00 00 00 00 00 00 00 
       00002E1E 00 00 00 00 00 00 00 00 00 00 
       00002E28 00 00 00 00 00 00 00 00 00 00 
       00002E32 00 00 00 00 00 00 00 00 00 00 
       00002E3C 00 00 00 00 00 00 00 00 00 00 
       00002E46 00 00 00 00 00 00 00 00 00 00 
       00002E50 00 00 00 00 00 00 00 00 00 00 
       00002E5A 00 00 00 00 00 00 00 00 00 00 
       00002E64 00 00 00 00 00 00 00 00 00 00 
       00002E6E 00 00 00 00 00 00 00 00 00 00 
       00002E78 00 00 00 00 00 00 00 00 00 00 
       00002E82 00 00 00 00 00 00 00 00 00 00 
       00002E8C 00 00 00 00 00 00 00 00 00 00 
       00002E96 00 00 00 00 00 00 00 00 00 00 
       00002EA0 00 00 00 00 00 00 00 00 00 00 
       00002EAA 00 00 00 00 00 00 00 00 00 00 
       00002EB4 00 00 00 00 00 00 00 00 00 00 
       00002EBE 00 00 00 00 00 00 00 00 00 00 
       00002EC8 00 00 00 00 00 00 00 00 00 00 
       00002ED2 00 00 00 00 00 00 00 00 00 00 
       00002EDC 00 00 00 00 00 00 00 00 00 00 
       00002EE6 00 00 00 00 00 00 00 00 00 00 
       00002EF0 00 00 00 00 00 00 00 00 00 00 
       00002EFA 00 00 00 00 00 00 00 00 00 00 
       00002F04 00 00 00 00 00 00 00 00 00 00 
       00002F0E 00 00 00 00 00 00 00 00 00 00 
       00002F18 00 00 00 00 00 00 00 00 00 00 
       00002F22 00 00 00 00 00 00 00 00 00 00 
       00002F2C 00 00 00 00 00 00 00 00 00 00 
       00002F36 00 00 00 00 00 00 00 00 00 00 
       00002F40 00 00 00 00 00 00 00 00 00 00 
       00002F4A 00 00 00 00 00 00 00 00 00 00 
       00002F54 00 00 00 00 00 00 00 00 00 00 
       00002F5E 00 00 00 00 00 00 00 00 00 00 
       00002F68 00 00 00 00 00 00 00 00 00 00 
       00002F72 00 00 00 00 00 00 00 00 00 00 
       00002F7C 00 00 00 00 00 00 00 00 00 00 
       00002F86 00 00 00 00 00 00 00 00 00 00 
       00002F90 00 00 00 00 00 00 00 00 00 00 
       00002F9A 00 00 00 00 00 00 00 00 00 00 
       00002FA4 00 00 00 00 00 00 00 00 00 00 
       00002FAE 00 00 00 00 00 00 00 00 00 00 
       00002FB8 00 00 00 00 00 00 00 00 00 00 
       00002FC2 00 00 00 00 00 00 00 00 00 00 
       00002FCC 00 00 00 00 00 00 00 00 00 00 
       00002FD6 00 00 00 00 00 00 00 00 00 00 
       00002FE0 00 00 00 00 00 00 00 00 00 00 
       00002FEA 00 00 00 00 00 00 00 00 00 00 
       00002FF4 00 00 00 00 00 00 00 00 00 00 
       00002FFE 00 00 00 00 00 00 00 00 00 00 
       00003008 00 00 00 00 00 00 00 00 00 00 
       00003012 00 00 00 00 00 00 00 00 00 00 
       0000301C 00 00 00 00 00 00 00 00 00 00 
       00003026 00 00 00 00 00 00 00 00 00 00 
       00003030 00 00 00 00 00 00 00 00 00 00 
       0000303A 00 00 00 00 00 00 00 00 00 00 
       00003044 00 00 00 00 00 00 00 00 00 00 
       0000304E 00 00 00 00 00 00 00 00 00 00 
       00003058 00 00 00 00 00 00 00 00 00 00 
       00003062 00 00 00 00 00 00 00 00 00 00 
       0000306C 00 00 00 00 00 00 00 00 00 00 
       00003076 00 00 00 00 00 00 00 00 00 00 
       00003080 00 00 00 00 00 00 00 00 00 00 
       0000308A 00 00 00 00 00 00 00 00 00 00 
       00003094 00 00 00 00 00 00 00 00 00 00 
       0000309E 00 00 00 00 00 00 00 00 00 00 
       000030A8 00 00 00 00 00 00 00 00 00 00 
       000030B2 00 00 00 00 00 00 00 00 00 00 
       000030BC 00 00 00 00 00 00 00 00 00 00 
       000030C6 00 00 00 00 00 00 00 00 00 00 
       000030D0 00 00 00 00 00 00 00 00 00 00 
       000030DA 00 00 00 00 00 00 00 00 00 00 
       000030E4 00 00 00 00 00 00 00 00 00 00 
       000030EE 00 00 00 00 00 00 00 00 00 00 
       000030F8 00 00 00 00 00 00 00 00 00 00 
       00003102 00 00 00 00 00 00 00 00 00 00 
       0000310C 00 00 00 00 00 00 00 00 00 00 
       00003116 00 00 00 00 00 00 00 00 00 00 
       00003120 00 00 00 00 00 00 00 00 00 00 
       0000312A 00 00 00 00 00 00 00 00 00 00 
       00003134 00 00 00 00 00 00 00 00 00 00 
       0000313E 00 00 00 00 00 00 00 00 00 00 
       00003148 00 00 00 00 00 00 00 00 00 00 
       00003152 00 00 00 00 00 00 00 00 00 00 
       0000315C 00 00 00 00 00 00 00 00 00 00 
       00003166 00 00 00 00 00 00 00 00 00 00 
       00003170 00 00 00 00 00 00 00 00 00 00 
       0000317A 00 00 00 00 00 00 00 00 00 00 
       00003184 00 00 00 00 00 00 00 00 00 00 
       0000318E 00 00 00 00 00 00 00 00 00 00 
       00003198 00 00 00 00 00 00 00 00 00 00 
       000031A2 00 00 00 00 00 00 00 00 00 00 
       000031AC 00 00 00 00 00 00 00 00 00 00 
       000031B6 00 00 00 00 00 00 00 00 00 00 
       000031C0 00 00 00 00 00 00 00 00 00 00 
       000031CA 00 00 00 00 00 00 00 00 00 00 
       000031D4 00 00 00 00 00 00 00 00 00 00 
       000031DE 00 00 00 00 00 00 00 00 00 00 
       000031E8 00 00 00 00 00 00 00 00 00 00 
       000031F2 00 00 00 00 00 00 00 00 00 00 
       000031FC 00 00 00 00 00 00 00 00 00 00 
       00003206 00 00 00 00 00 00 00 00 00 00 
       00003210 00 00 00 00 00 00 00 00 00 00 
       0000321A 00 00 00 00 00 00 00 00 00 00 
       00003224 00 00 00 00 00 00 00 00 00 00 
       0000322E 00 00 00 00 00 00 00 00 00 00 
       00003238 00 00 00 00 00 00 00 00 00 00 
       00003242 00 00 00 00 00 00 00 00 00 00 
       0000324C 00 00 00 00 00 00 00 00 00 00 
       00003256 00 00 00 00 00 00 00 00 00 00 
       00003260 00 00 00 00 00 00 00 00 00 00 
       0000326A 00 00 00 00 00 00 00 00 00 00 
       00003274 00 00 00 00 00 00 00 00 00 00 
       0000327E 00 00 00 00 00 00 00 00 00 00 
       00003288 00 00 00 00 00 00 00 00 00 00 
       00003292 00 00 00 00 00 00 00 00 00 00 
       0000329C 00 00 00 00 00 00 00 00 00 00 
       000032A6 00 00 00 00 00 00 00 00 00 00 
       000032B0 00 00 00 00 00 00 00 00 00 00 
       000032BA 00 00 00 00 00 00 00 00 00 00 
       000032C4 00 00 00 00 00 00 00 00 00 00 
       000032CE 00 00 00 00 00 00 00 00 00 00 
       000032D8 00 00 00 00 00 00 00 00 00 00 
       000032E2 00 00 00 00 00 00 00 00 00 00 
       000032EC 00 00 00 00 00 00 00 00 00 00 
       000032F6 00 00 00 00 00 00 00 00 00 00 
       00003300 00 00 00 00 00 00 00 00 00 00 
       0000330A 00 00 00 00 00 00 00 00 00 00 
       00003314 00 00 00 00 00 00 00 00 00 00 
       0000331E 00 00 00 00 00 00 00 00 00 00 
       00003328 00 00 00 00 00 00 00 00 00 00 
       00003332 00 00 00 00 00 00 00 00 00 00 
       0000333C 00 00 00 00 00 00 00 00 00 00 
       00003346 00 00 00 00 00 00 00 00 00 00 
       00003350 00 00 00 00 00 00 00 00 00 00 
       0000335A 00 00 00 00 00 00 00 00 00 00 
       00003364 00 00 00 00 00 00 00 00 00 00 
       0000336E 00 00 00 00 00 00 00 00 00 00 
       00003378 00 00 00 00 00 00 00 00 00 00 
       00003382 00 00 00 00 00 00 00 00 00 00 
       0000338C 00 00 00 00 00 00 00 00 00 00 
       00003396 00 00 00 00 00 00 00 00 00 00 
       000033A0 00 00 00 00 00 00 00 00 00 00 
       000033AA 00 00 00 00 00 00 00 00 00 00 
       000033B4 00 00 00 00 00 00 00 00 00 00 
       000033BE 00 00 00 00 00 00 00 00 00 00 
       000033C8 00 00 00 00 00 00 00 00 00 00 
       000033D2 00 00 00 00 00 00 00 00 00 00 
       000033DC 00 00 00 00 00 00 00 00 00 00 
       000033E6 00 00 00 00 00 00 00 00 00 00 
       000033F0 00 00 00 00 00 00 00 00 00 00 
       000033FA 00 00 00 00 00 00 00 00 00 00 
       00003404 00 00 00 00 00 00 00 00 00 00 
       0000340E 00 00 00 00 00 00 00 00 00 00 
       00003418 00 00 00 00 00 00 00 00 00 00 
       00003422 00 00 00 00 00 00 00 00 00 00 
       0000342C 00 00 00 00 00 00 00 00 00 00 
       00003436 00 00 00 00 00 00 00 00 00 00 
       00003440 00 00 00 00 00 00 00 00 00 00 
       0000344A 00 00 00 00 00 00 00 00 00 00 
       00003454 00 00 00 00 00 00 00 00 00 00 
       0000345E 00 00 00 00 00 00 00 00 00 00 
       00003468 00 00 00 00 00 00 00 00 00 00 
       00003472 00 00 00 00 00 00 00 00 00 00 
       0000347C 00 00 00 00 00 00 00 00 00 00 
       00003486 00 00 00 00 00 00 00 00 00 00 
       00003490 00 00 00 00 00 00 00 00 00 00 
       0000349A 00 00 00 00 00 00 00 00 00 00 
       000034A4 00 00 00 00 00 00 00 00 00 00 
       000034AE 00 00 00 00 00 00 00 00 00 00 
       000034B8 00 00 00 00 00 00 00 00 00 00 
       000034C2 00 00 00 00 00 00 00 00 00 00 
       000034CC 00 00 00 00 00 00 00 00 00 00 
       000034D6 00 00 00 00 00 00 00 00 00 00 
       000034E0 00 00 00 00 00 00 00 00 00 00 
       000034EA 00 00 00 00 00 00 00 00 00 00 
       000034F4 00 00 00 00 00 00 00 00 00 00 
       000034FE 00 00 00 00 00 00 00 00 00 00 
       00003508 00 00 00 00 00 00 00 00 00 00 
       00003512 00 00 00 00 00 00 00 00 00 00 
       0000351C 00 00 00 00 00 00 00 00 00 00 
       00003526 00 00 00 00 00 00 00 00 00 00 
       00003530 00 00 00 00 00 00 00 00 00 00 
       0000353A 00 00 00 00 00 00 00 00 00 00 
       00003544 00 00 00 00 00 00 00 00 00 00 
       0000354E 00 00 00 00 00 00 00 00 00 00 
       00003558 00 00 00 00 00 00 00 00 00 00 
       00003562 00 00 00 00 00 00 00 00 00 00 
       0000356C 00 00 00 00 00 00 00 00 00 00 
       00003576 00 00 00 00 00 00 00 00 00 00 
       00003580 00 00 00 00 00 00 00 00 00 00 
       0000358A 00 00 00 00 00 00 00 00 00 00 
       00003594 00 00 00 00 00 00 00 00 00 00 
       0000359E 00 00 00 00 00 00 00 00 00 00 
       000035A8 00 00 00 00 00 00 00 00 00 00 
       000035B2 00 00 00 00 00 00 00 00 00 00 
       000035BC 00 00 00 00 00 00 00 00 00 00 
       000035C6 00 00 00 00 00 00 00 00 00 00 
       000035D0 00 00 00 00 00 00 00 00 00 00 
       000035DA 00 00 00 00 00 00 00 00 00 00 
       000035E4 00 00 00 00 00 00 00 00 00 00 
       000035EE 00 00 00 00 00 00 00 00 00 00 
       000035F8 00 00 00 00 00 00 00 00 00 00 
       00003602 00 00 00 00 00 00 00 00 00 00 
       0000360C 00 00 00 00 00 00 00 00 00 00 
       00003616 00 00 00 00 00 00 00 00 00 00 
       00003620 00 00 00 00 00 00 00 00 00 00 
       0000362A 00 00 00 00 00 00 00 00 00 00 
       00003634 00 00 00 00 00 00 00 00 00 00 
       0000363E 00 00 00 00 00 00 00 00 00 00 
       00003648 00 00 00 00 00 00 00 00 00 00 
       00003652 00 00 00 00 00 00 00 00 00 00 
       0000365C 00 00 00 00 00 00 00 00 00 00 
       00003666 00 00 00 00 00 00 00 00 00 00 
       00003670 00 00 00 00 00 00 00 00 00 00 
       0000367A 00 00 00 00 00 00 00 00 00 00 
       00003684 00 00 00 00 00 00 00 00 00 00 
       0000368E 00 00 00 00 00 00 00 00 00 00 
       00003698 00 00 00 00 00 00 00 00 00 00 
       000036A2 00 00 00 00 00 00 00 00 00 00 
       000036AC 00 00 00 00 00 00 00 00 00 00 
       000036B6 00 00 00 00 00 00 00 00 00 00 
       000036C0 00 00 00 00 00 00 00 00 00 00 
       000036CA 00 00 00 00 00 00 00 00 00 00 
       000036D4 00 00 00 00 00 00 00 00 00 00 
       000036DE 00 00 00 00 00 00 00 00 00 00 
       000036E8 00 00 00 00 00 00 00 00 00 00 
       000036F2 00 00 00 00 00 00 00 00 00 00 
       000036FC 00 00 00 00 00 00 00 00 00 00 
       00003706 00 00 00 00 00 00 00 00 00 00 
       00003710 00 00 00 00 00 00 00 00 00 00 
       0000371A 00 00 00 00 00 00 00 00 00 00 
       00003724 00 00 00 00 00 00 00 00 00 00 
       0000372E 00 00 00 00 00 00 00 00 00 00 
       00003738 00 00 00 00 00 00 00 00 00 00 
       00003742 00 00 00 00 00 00 00 00 00 00 
       0000374C 00 00 00 00 00 00 00 00 00 00 
       00003756 00 00 00 00 00 00 00 00 00 00 
       00003760 00 00 00 00 00 00 00 00 00 00 
       0000376A 00 00 00 00 00 00 00 00 00 00 
       00003774 00 00 00 00 00 00 00 00 00 00 
       0000377E 00 00 00 00 00 00 00 00 00 00 
       00003788 00 00 00 00 00 00 00 00 00 00 
       00003792 00 00 00 00 00 00 00 00 00 00 
       0000379C 00 00 00 00 00 00 00 00 00 00 
       000037A6 00 00 00 00 00 00 00 00 00 00 
       000037B0 00 00 00 00 00 00 00 00 00 00 
       000037BA 00 00 00 00 00 00 00 00 00 00 
       000037C4 00 00 00 00 00 00 00 00 00 00 
       000037CE 00 00 00 00 00 00 00 00 00 00 
       000037D8 00 00 00 00 00 00 00 00 00 00 
       000037E2 00 00 00 00 00 00 00 00 00 00 
       000037EC 00 00 00 00 00 00 00 00 00 00 
       000037F6 00 00 00 00 00 00 00 00 00 00 
       00003800 00 00 00 00 00 00 00 00 00 00 
       0000380A 00 00 00 00 00 00 00 00 00 00 
       00003814 00 00 00 00 00 00 00 00 00 00 
       0000381E 00 00 00 00 00 00 00 00 00 00 
       00003828 00 00 00 00 00 00 00 00 00 00 
       00003832 00 00 00 00 00 00 00 00 00 00 
       0000383C 00 00 00 00 00 00 00 00 00 00 
       00003846 00 00 00 00 00 00 00 00 00 00 
       00003850 00 00 00 00 00 00 00 00 00 00 
       0000385A 00 00 00 00 00 00 00 00 00 00 
       00003864 00 00 00 00 00 00 00 00 00 00 
       0000386E 00 00 00 00 00 00 00 00 00 00 
       00003878 00 00 00 00 00 00 00 00 00 00 
       00003882 00 00 00 00 00 00 00 00 00 00 
       0000388C 00 00 00 00 00 00 00 00 00 00 
       00003896 00 00 00 00 00 00 00 00 00 00 
       000038A0 00 00 00 00 00 00 00 00 00 00 
       000038AA 00 00 00 00 00 00 00 00 00 00 
       000038B4 00 00 00 00 00 00 00 00 00 00 
       000038BE 00 00 00 00 00 00 00 00 00 00 
       000038C8 00 00 00 00 00 00 00 00 00 00 
       000038D2 00 00 00 00 00 00 00 00 00 00 
       000038DC 00 00 00 00 00 00 00 00 00 00 
       000038E6 00 00 00 00 00 00 00 00 00 00 
       000038F0 00 00 00 00 00 00 00 00 00 00 
       000038FA 00 00 00 00 00 00 00 00 00 00 
       00003904 00 00 00 00 00 00 00 00 00 00 
       0000390E 00 00 00 00 00 00 00 00 00 00 
       00003918 00 00 00 00 00 00 00 00 00 00 
       00003922 00 00 00 00 00 00 00 00 00 00 
       0000392C 00 00 00 00 00 00 00 00 00 00 
       00003936 00 00 00 00 00 00 00 00 00 00 
       00003940 00 00 00 00 00 00 00 00 00 00 
       0000394A 00 00 00 00 00 00 00 00 00 00 
       00003954 00 00 00 00 00 00 00 00 00 00 
       0000395E 00 00 00 00 00 00 00 00 00 00 
       00003968 00 00 00 00 00 00 00 00 00 00 
       00003972 00 00 00 00 00 00 00 00 00 00 
       0000397C 00 00 00 00 00 00 00 00 00 00 
       00003986 00 00 00 00 00 00 00 00 00 00 
       00003990 00 00 00 00 00 00 00 00 00 00 
       0000399A 00 00 00 00 00 00 00 00 00 00 
       000039A4 00 00 00 00 00 00 00 00 00 00 
       000039AE 00 00 00 00 00 00 00 00 00 00 
       000039B8 00 00 00 00 00 00 00 00 00 00 
       000039C2 00 00 00 00 00 00 00 00 00 00 
       000039CC 00 00 00 00 00 00 00 00 00 00 
       000039D6 00 00 00 00 00 00 00 00 00 00 
       000039E0 00 00 00 00 00 00 00 00 00 00 
       000039EA 00 00 00 00 00 00 00 00 00 00 
       000039F4 00 00 00 00 00 00 00 00 00 00 
       000039FE 00 00 00 00 00 00 00 00 00 00 
       00003A08 00 00 00 00 00 00 00 00 00 00 
       00003A12 00 00 00 00 00 00 00 00 00 00 
       00003A1C 00 00 00 00 00 00 00 00 00 00 
       00003A26 00 00 00 00 00 00 00 00 00 00 
       00003A30 00 00 00 00 00 00 00 00 00 00 
       00003A3A 00 00 00 00 00 00 00 00 00 00 
       00003A44 00 00 00 00 00 00 00 00 00 00 
       00003A4E 00 00 00 00 00 00 00 00 00 00 
       00003A58 00 00 00 00 00 00 00 00 00 00 
       00003A62 00 00 00 00 00 00 00 00 00 00 
       00003A6C 00 00 00 00 00 00 00 00 00 00 
       00003A76 00 00 00 00 00 00 00 00 00 00 
       00003A80 00 00 00 00 00 00 00 00 00 00 
       00003A8A 00 00 00 00 00 00 00 00 00 00 
       00003A94 00 00 00 00 00 00 00 00 00 00 
       00003A9E 00 00 00 00 00 00 00 00 00 00 
       00003AA8 00 00 00 00 00 00 00 00 00 00 
       00003AB2 00 00 00 00 00 00 00 00 00 00 
       00003ABC 00 00 00 00 00 00 00 00 00 00 
       00003AC6 00 00 00 00 00 00 00 00 00 00 
       00003AD0 00 00 00 00 00 00 00 00 00 00 
       00003ADA 00 00 00 00 00 00 00 00 00 00 
       00003AE4 00 00 00 00 00 00 00 00 00 00 
       00003AEE 00 00 00 00 00 00 00 00 00 00 
       00003AF8 00 00 00 00 00 00 00 00 00 00 
       00003B02 00 00 00 00 00 00 00 00 00 00 
       00003B0C 00 00 00 00 00 00 00 00 00 00 
       00003B16 00 00 00 00 00 00 00 00 00 00 
       00003B20 00 00 00 00 00 00 00 00 00 00 
       00003B2A 00 00 00 00 00 00 00 00 00 00 
       00003B34 00 00 00 00 00 00 00 00 00 00 
       00003B3E 00 00 00 00 00 00 00 00 00 00 
       00003B48 00 00 00 00 00 00 00 00 00 00 
       00003B52 00 00 00 00 00 00 00 00 00 00 
       00003B5C 00 00 00 00 00 00 00 00 00 00 
       00003B66 00 00 00 00 00 00 00 00 00 00 
       00003B70 00 00 00 00 00 00 00 00 00 00 
       00003B7A 00 00 00 00 00 00 00 00 00 00 
       00003B84 00 00 00 00 00 00 00 00 00 00 
       00003B8E 00 00 00 00 00 00 00 00 00 00 
       00003B98 00 00 00 00 00 00 00 00 00 00 
       00003BA2 00 00 00 00 00 00 00 00 00 00 
       00003BAC 00 00 00 00 00 00 00 00 00 00 
       00003BB6 00 00 00 00 00 00 00 00 00 00 
       00003BC0 00 00 00 00 00 00 00 00 00 00 
       00003BCA 00 00 00 00 00 00 00 00 00 00 
       00003BD4 00 00 00 00 00 00 00 00 00 00 
       00003BDE 00 00 00 00 00 00 00 00 00 00 
       00003BE8 00 00 00 00 00 00 00 00 00 00 
       00003BF2 00 00 00 00 00 00 00 00 00 00 
       00003BFC 00 00 00 00 00 00 00 00 00 00 
       00003C06 00 00 00 00 00 00 00 00 00 00 
       00003C10 00 00 00 00 00 00 00 00 00 00 
       00003C1A 00 00 00 00 00 00 00 00 00 00 
       00003C24 00 00 00 00 00 00 00 00 00 00 
       00003C2E 00 00 00 00 00 00 00 00 00 00 
       00003C38 00 00 00 00 00 00 00 00 00 00 
       00003C42 00 00 00 00 00 00 00 00 00 00 
       00003C4C 00 00 00 00 00 00 00 00 00 00 
       00003C56 00 00 00 00 00 00 00 00 00 00 
       00003C60 00 00 00 00 00 00 00 00 00 00 
       00003C6A 00 00 00 00 00 00 00 00 00 00 
       00003C74 00 00 00 00 00 00 00 00 00 00 
       00003C7E 00 00 00 00 00 00 00 00 00 00 
       00003C88 00 00 00 00 00 00 00 00 00 00 
       00003C92 00 00 00 00 00 00 00 00 00 00 
       00003C9C 00 00 00 00 00 00 00 00 00 00 
       00003CA6 00 00 00 00 00 00 00 00 00 00 
       00003CB0 00 00 00 00 00 00 00 00 00 00 
       00003CBA 00 00 00 00 00 00 00 00 00 00 
       00003CC4 00 00 00 00 00 00 00 00 00 00 
       00003CCE 00 00 00 00 00 00 00 00 00 00 
       00003CD8 00 00 00 00 00 00 00 00 00 00 
       00003CE2 00 00 00 00 00 00 00 00 00 00 
       00003CEC 00 00 00 00 00 00 00 00 00 00 
       00003CF6 00 00 00 00 00 00 00 00 00 00 
       00003D00 00 00 00 00 00 00 00 00 00 00 
       00003D0A 00 00 00 00 00 00 00 00 00 00 
       00003D14 00 00 00 00 00 00 00 00 00 00 
       00003D1E 00 00 00 00 00 00 00 00 00 00 
       00003D28 00 00 00 00 00 00 00 00 00 00 
       00003D32 00 00 00 00 00 00 00 00 00 00 
       00003D3C 00 00 00 00 00 00 00 00 00 00 
       00003D46 00 00 00 00 00 00 00 00 00 00 
       00003D50 00 00 00 00 00 00 00 00 00 00 
       00003D5A 00 00 00 00 00 00 00 00 00 00 
       00003D64 00 00 00 00 00 00 00 00 00 00 
       00003D6E 00 00 00 00 00 00 00 00 00 00 
       00003D78 00 00 00 00 00 00 00 00 00 00 
       00003D82 00 00 00 00 00 00 00 00 00 00 
       00003D8C 00 00 00 00 00 00 00 00 00 00 
       00003D96 00 00 00 00 00 00 00 00 00 00 
       00003DA0 00 00 00 00 00 00 00 00 00 00 
       00003DAA 00 00 00 00 00 00 00 00 00 00 
       00003DB4 00 00 00 00 00 00 00 00 00 00 
       00003DBE 00 00 00 00 00 00 00 00 00 00 
       00003DC8 00 00 00 00 00 00 00 00 00 00 
       00003DD2 00 00 00 00 00 00 00 00 00 00 
       00003DDC 00 00 00 00 00 00 00 00 00 00 
       00003DE6 00 00 00 00 00 00 00 00 00 00 
       00003DF0 00 00 00 00 00 00 00 00 00 00 
       00003DFA 00 00 00 00 00 00 00 00 00 00 
       00003E04 00 00 00 00 00 00 00 00 00 00 
       00003E0E 00 00 00 00 00 00 00 00 00 00 
       00003E18 00 00 00 00 00 00 00 00 00 00 
       00003E22 00 00 00 00 00 00 00 00 00 00 
       00003E2C 00 00 00 00 00 00 00 00 00 00 
       00003E36 00 00 00 00 00 00 00 00 00 00 
       00003E40 00 00 00 00 00 00 00 00 00 00 
       00003E4A 00 00 00 00 00 00 00 00 00 00 
       00003E54 00 00 00 00 00 00 00 00 00 00 
       00003E5E 00 00 00 00 00 00 00 00 00 00 
       00003E68 00 00 00 00 00 00 00 00 00 00 
       00003E72 00 00 00 00 00 00 00 00 00 00 
       00003E7C 00 00 00 00 00 00 00 00 00 00 
       00003E86 00 00 00 00 00 00 00 00 00 00 
       00003E90 00 00 00 00 00 00 00 00 00 00 
       00003E9A 00 00 00 00 00 00 00 00 00 00 
       00003EA4 00 00 00 00 00 00 00 00 00 00 
       00003EAE 00 00 00 00 00 00 00 00 00 00 
       00003EB8 00 00 00 00 00 00 00 00 00 00 
       00003EC2 00 00 00 00 00 00 00 00 00 00 
       00003ECC 00 00 00 00 00 00 00 00 00 00 
       00003ED6 00 00 00 00 00 00 00 00 00 00 
       00003EE0 00 00 00 00 00 00 00 00 00 00 
       00003EEA 00 00 00 00 00 00 00 00 00 00 
       00003EF4 00 00 00 00 00 00 00 00 00 00 
       00003EFE 00 00 00 00 00 00 00 00 00 00 
       00003F08 00 00 00 00 00 00 00 00 00 00 
       00003F12 00 00 00 00 00 00 00 00 00 00 
       00003F1C 00 00 00 00 00 00 00 00 00 00 
       00003F26 00 00 00 00 00 00 00 00 00 00 
       00003F30 00 00 00 00 00 00 00 00 00 00 
       00003F3A 00 00 00 00 00 00 00 00 00 00 
       00003F44 00 00 00 00 00 00 00 00 00 00 
       00003F4E 00 00 00 00 00 00 00 00 00 00 
       00003F58 00 00 00 00 00 00 00 00 00 00 
       00003F62 00 00 00 00 00 00 00 00 00 00 
       00003F6C 00 00 00 00 00 00 00 00 00 00 
       00003F76 00 00 00 00 00 00 00 00 00 00 
       00003F80 00 00 00 00 00 00 00 00 00 00 
       00003F8A 00 00 00 00 00 00 00 00 00 00 
       00003F94 00 00 00 00 00 00 00 00 00 00 
       00003F9E 00 00 00 00 00 00 00 00 00 00 
       00003FA8 00 00 00 00 00 00 00 00 00 00 
       00003FB2 00 00 00 00 00 00 00 00 00 00 
       00003FBC 00 00 00 00 00 00 00 00 00 00 
       00003FC6 00 00 00 00 00 00 00 00 00 00 
       00003FD0 00 00 00 00 00 00 00 00 00 00 
       00003FDA 00 00 00 00 00 00 00 00 00 00 
       00003FE4 00 00 00 00 00 00 00 00 00 00 
       00003FEE 00 00 00 00 00 00 00 00 00 00 
       00003FF8 00 00 00 00 00 00 00 00 00 00 
       00004002 00 00 00 00 00 00 00 00 00 00 
       0000400C 00 00 00 00 00 00 00 00 00 00 
       00004016 00 00 00 00 00 00 00 00 00 00 
       00004020 00 00 00 00 00 00 00 00 00 00 
       0000402A 00 00 00 00 00 00 00 00 00 00 
       00004034 00 00 00 00 00 00 00 00 00 00 
       0000403E 00 00 00 00 00 00 00 00 00 00 
       00004048 00 00 00 00 00 00 00 00 00 00 
       00004052 00 00 00 00 00 00 00 00 00 00 
       0000405C 00 00 00 00 00 00 00 00 00 00 
       00004066 00 00 00 00 00 00 00 00 00 00 
       00004070 00 00 00 00 00 00 00 00 00 00 
       0000407A 00 00 00 00 00 00 00 00 00 00 
       00004084 00 00 00 00 00 00 00 00 00 00 
       0000408E 00 00 00 00 00 00 00 00 00 00 
       00004098 00 00 00 00 00 00 00 00 00 00 
       000040A2 00 00 00 00 00 00 00 00 00 00 
       000040AC 00 00 00 00 00 00 00 00 00 00 
       000040B6 00 00 00 00 00 00 00 00 00 00 
       000040C0 00 00 00 00 00 00 00 00 00 00 
       000040CA 00 00 00 00 00 00 00 00 00 00 
       000040D4 00 00 00 00 00 00 00 00 00 00 
       000040DE 00 00 00 00 00 00 00 00 00 00 
       000040E8 00 00 00 00 00 00 00 00 00 00 
       000040F2 00 00 00 00 00 00 00 00 00 00 
       000040FC 00 00 00 00 00 00 00 00 00 00 
       00004106 00 00 00 00 00 00 00 00 00 00 
       00004110 00 00 00 00 00 00 00 00 00 00 
       0000411A 00 00 00 00 00 00 00 00 00 00 
       00004124 00 00 00 00 00 00 00 00 00 00 
       0000412E 00 00 00 00 00 00 00 00 00 00 
       00004138 00 00 00 00 00 00 00 00 00 00 
       00004142 00 00 00 00 00 00 00 00 00 00 
       0000414C 00 00 00 00 00 00 00 00 00 00 
       00004156 00 00 00 00 00 00 00 00 00 00 
       00004160 00 00 00 00 00 00 00 00 00 00 
       0000416A 00 00 00 00 00 00 00 00 00 00 
       00004174 00 00 00 00 00 00 00 00 00 00 
       0000417E 00 00 00 00 00 00 00 00 00 00 
       00004188 00 00 00 00 00 00 00 00 00 00 
       00004192 00 00 00 00 00 00 00 00 00 00 
       0000419C 00 00 00 00 00 00 00 00 00 00 
       000041A6 00 00 00 00 00 00 00 00 00 00 
       000041B0 00 00 00 00 00 00 00 00 00 00 
       000041BA 00 00 00 00 00 00 00 00 00 00 
       000041C4 00 00 00 00 00 00 00 00 00 00 
       000041CE 00 00 00 00 00 00 00 00 00 00 
       000041D8 00 00 00 00 00 00 00 00 00 00 
       000041E2 00 00 00 00 00 00 00 00 00 00 
       000041EC 00 00 00 00 00 00 00 00 00 00 
       000041F6 00 00 00 00 00 00 00 00 00 00 
       00004200 00 00 00 00 00 00 00 00 00 00 
       0000420A 00 00 00 00 00 00 00 00 00 00 
       00004214 00 00 00 00 00 00 00 00 00 00 
       0000421E 00 00 00 00 00 00 00 00 00 00 
       00004228 00 00 00 00 00 00 00 00 00 00 
       00004232 00 00 00 00 00 00 00 00 00 00 
       0000423C 00 00 00 00 00 00 00 00 00 00 
       00004246 00 00 00 00 00 00 00 00 00 00 
       00004250 00 00 00 00 00 00 00 00 00 00 
       0000425A 00 00 00 00 00 00 00 00 00 00 
       00004264 00 00 00 00 00 00 00 00 00 00 
       0000426E 00 00 00 00 00 00 00 00 00 00 
       00004278 00 00 00 00 00 00 00 00 00 00 
       00004282 00 00 
