     1 00000000                                 [FORMAT "WCOFF"]
     2 00000000                                 [INSTRSET "i486p"]
     3 00000000                                 [OPTIMIZE 1]
     4 00000000                                 [OPTION 1]
     5 00000000                                 [BITS 32]
     6 00000000                                 	EXTERN	_boxfill8
     7 00000000                                 	EXTERN	_dbg_putstr0
     8 00000000                                 	EXTERN	_putfonts8_asc
     9 00000000                                 	EXTERN	_table_16_65536
    10 00000000                                 	EXTERN	_task_now
    11 00000000                                 	EXTERN	_sheet_refresh
    12 00000000                                 [FILE "window.c"]
    13                                          [SECTION .text]
    14 00000000                                 	GLOBAL	_make_window8
    15 00000000                                 _make_window8:
    16 00000000 55                              	PUSH	EBP
    17 00000001 89 E5                           	MOV	EBP,ESP
    18 00000003 57                              	PUSH	EDI
    19 00000004 56                              	PUSH	ESI
    20 00000005 53                              	PUSH	EBX
    21 00000006 83 EC 18                        	SUB	ESP,24
    22 00000009 8B 45 10                        	MOV	EAX,DWORD [16+EBP]
    23 0000000C 8B 5D 0C                        	MOV	EBX,DWORD [12+EBP]
    24 0000000F 89 45 F0                        	MOV	DWORD [-16+EBP],EAX
    25 00000012 8B 75 08                        	MOV	ESI,DWORD [8+EBP]
    26 00000015 8B 45 14                        	MOV	EAX,DWORD [20+EBP]
    27 00000018 89 45 EC                        	MOV	DWORD [-20+EBP],EAX
    28 0000001B 0F BE 45 18                     	MOVSX	EAX,BYTE [24+EBP]
    29 0000001F 89 45 E8                        	MOV	DWORD [-24+EBP],EAX
    30 00000022 8D 43 FF                        	LEA	EAX,DWORD [-1+EBX]
    31 00000025 6A 00                           	PUSH	0
    32 00000027 89 45 E4                        	MOV	DWORD [-28+EBP],EAX
    33 0000002A 50                              	PUSH	EAX
    34 0000002B 6A 00                           	PUSH	0
    35 0000002D 6A 00                           	PUSH	0
    36 0000002F 6A 08                           	PUSH	8
    37 00000031 53                              	PUSH	EBX
    38 00000032 56                              	PUSH	ESI
    39 00000033 E8 [00000000]                   	CALL	_boxfill8
    40 00000038 8D 43 FE                        	LEA	EAX,DWORD [-2+EBX]
    41 0000003B 6A 01                           	PUSH	1
    42 0000003D 89 45 E0                        	MOV	DWORD [-32+EBP],EAX
    43 00000040 50                              	PUSH	EAX
    44 00000041 6A 01                           	PUSH	1
    45 00000043 6A 01                           	PUSH	1
    46 00000045 6A 07                           	PUSH	7
    47 00000047 53                              	PUSH	EBX
    48 00000048 56                              	PUSH	ESI
    49 00000049 E8 [00000000]                   	CALL	_boxfill8
    50 0000004E 8B 45 F0                        	MOV	EAX,DWORD [-16+EBP]
    51 00000051 83 C4 38                        	ADD	ESP,56
    52 00000054 48                              	DEC	EAX
    53 00000055 89 45 DC                        	MOV	DWORD [-36+EBP],EAX
    54 00000058 50                              	PUSH	EAX
    55 00000059 6A 00                           	PUSH	0
    56 0000005B 6A 00                           	PUSH	0
    57 0000005D 6A 00                           	PUSH	0
    58 0000005F 6A 08                           	PUSH	8
    59 00000061 53                              	PUSH	EBX
    60 00000062 56                              	PUSH	ESI
    61 00000063 E8 [00000000]                   	CALL	_boxfill8
    62 00000068 8B 7D F0                        	MOV	EDI,DWORD [-16+EBP]
    63 0000006B 83 EF 02                        	SUB	EDI,2
    64 0000006E 57                              	PUSH	EDI
    65 0000006F 6A 01                           	PUSH	1
    66 00000071 6A 01                           	PUSH	1
    67 00000073 6A 01                           	PUSH	1
    68 00000075 6A 07                           	PUSH	7
    69 00000077 53                              	PUSH	EBX
    70 00000078 56                              	PUSH	ESI
    71 00000079 E8 [00000000]                   	CALL	_boxfill8
    72 0000007E 83 C4 38                        	ADD	ESP,56
    73 00000081 57                              	PUSH	EDI
    74 00000082 FF 75 E0                        	PUSH	DWORD [-32+EBP]
    75 00000085 6A 01                           	PUSH	1
    76 00000087 FF 75 E0                        	PUSH	DWORD [-32+EBP]
    77 0000008A 6A 0F                           	PUSH	15
    78 0000008C 53                              	PUSH	EBX
    79 0000008D 56                              	PUSH	ESI
    80 0000008E E8 [00000000]                   	CALL	_boxfill8
    81 00000093 FF 75 DC                        	PUSH	DWORD [-36+EBP]
    82 00000096 FF 75 E4                        	PUSH	DWORD [-28+EBP]
    83 00000099 6A 00                           	PUSH	0
    84 0000009B FF 75 E4                        	PUSH	DWORD [-28+EBP]
    85 0000009E 6A 00                           	PUSH	0
    86 000000A0 53                              	PUSH	EBX
    87 000000A1 56                              	PUSH	ESI
    88 000000A2 E8 [00000000]                   	CALL	_boxfill8
    89 000000A7 83 C4 38                        	ADD	ESP,56
    90 000000AA 6A 08                           	PUSH	8
    91 000000AC FF 75 EC                        	PUSH	DWORD [-20+EBP]
    92 000000AF E8 [00000000]                   	CALL	_dbg_putstr0
    93 000000B4 8B 45 F0                        	MOV	EAX,DWORD [-16+EBP]
    94 000000B7 83 E8 03                        	SUB	EAX,3
    95 000000BA 50                              	PUSH	EAX
    96 000000BB 8D 43 FD                        	LEA	EAX,DWORD [-3+EBX]
    97 000000BE 50                              	PUSH	EAX
    98 000000BF 6A 02                           	PUSH	2
    99 000000C1 6A 02                           	PUSH	2
   100 000000C3 6A 08                           	PUSH	8
   101 000000C5 53                              	PUSH	EBX
   102 000000C6 56                              	PUSH	ESI
   103 000000C7 E8 [00000000]                   	CALL	_boxfill8
   104 000000CC 83 C4 24                        	ADD	ESP,36
   105 000000CF 57                              	PUSH	EDI
   106 000000D0 FF 75 E0                        	PUSH	DWORD [-32+EBP]
   107 000000D3 57                              	PUSH	EDI
   108 000000D4 6A 01                           	PUSH	1
   109 000000D6 6A 0F                           	PUSH	15
   110 000000D8 53                              	PUSH	EBX
   111 000000D9 56                              	PUSH	ESI
   112 000000DA E8 [00000000]                   	CALL	_boxfill8
   113 000000DF FF 75 DC                        	PUSH	DWORD [-36+EBP]
   114 000000E2 FF 75 E4                        	PUSH	DWORD [-28+EBP]
   115 000000E5 FF 75 DC                        	PUSH	DWORD [-36+EBP]
   116 000000E8 6A 00                           	PUSH	0
   117 000000EA 6A 00                           	PUSH	0
   118 000000EC 53                              	PUSH	EBX
   119 000000ED 56                              	PUSH	ESI
   120 000000EE E8 [00000000]                   	CALL	_boxfill8
   121 000000F3 89 75 08                        	MOV	DWORD [8+EBP],ESI
   122 000000F6 8B 45 E8                        	MOV	EAX,DWORD [-24+EBP]
   123 000000F9 89 5D 0C                        	MOV	DWORD [12+EBP],EBX
   124 000000FC 89 45 14                        	MOV	DWORD [20+EBP],EAX
   125 000000FF 83 C4 38                        	ADD	ESP,56
   126 00000102 8B 45 EC                        	MOV	EAX,DWORD [-20+EBP]
   127 00000105 89 45 10                        	MOV	DWORD [16+EBP],EAX
   128 00000108 8D 65 F4                        	LEA	ESP,DWORD [-12+EBP]
   129 0000010B 5B                              	POP	EBX
   130 0000010C 5E                              	POP	ESI
   131 0000010D 5F                              	POP	EDI
   132 0000010E 5D                              	POP	EBP
   133 0000010F EB 00                           	JMP	_make_wtitle8
   134                                          [SECTION .data]
   135 00000000                                 _closebtn.0:
   136 00000000 4F 4F 4F 4F 4F 4F 4F 4F 4F 4F   	DB	"OOOOOOOOOOOOOOO@"
       0000000A 4F 4F 4F 4F 4F 40 
   137 00000010 4F 51 51 51 51 51 51 51 51 51   	DB	"OQQQQQQQQQQQQQ$@"
       0000001A 51 51 51 51 24 40 
   138 00000020 4F 51 51 51 51 51 51 51 51 51   	DB	"OQQQQQQQQQQQQQ$@"
       0000002A 51 51 51 51 24 40 
   139 00000030 4F 51 51 51 40 40 51 51 51 51   	DB	"OQQQ@@QQQQ@@QQ$@"
       0000003A 40 40 51 51 24 40 
   140 00000040 4F 51 51 51 51 40 40 51 51 40   	DB	"OQQQQ@@QQ@@QQQ$@"
       0000004A 40 51 51 51 24 40 
   141 00000050 4F 51 51 51 51 51 40 40 40 40   	DB	"OQQQQQ@@@@QQQQ$@"
       0000005A 51 51 51 51 24 40 
   142 00000060 4F 51 51 51 51 51 51 40 40 51   	DB	"OQQQQQQ@@QQQQQ$@"
       0000006A 51 51 51 51 24 40 
   143 00000070 4F 51 51 51 51 51 40 40 40 40   	DB	"OQQQQQ@@@@QQQQ$@"
       0000007A 51 51 51 51 24 40 
   144 00000080 4F 51 51 51 51 40 40 51 51 40   	DB	"OQQQQ@@QQ@@QQQ$@"
       0000008A 40 51 51 51 24 40 
   145 00000090 4F 51 51 51 40 40 51 51 51 51   	DB	"OQQQ@@QQQQ@@QQ$@"
       0000009A 40 40 51 51 24 40 
   146 000000A0 4F 51 51 51 51 51 51 51 51 51   	DB	"OQQQQQQQQQQQQQ$@"
       000000AA 51 51 51 51 24 40 
   147 000000B0 4F 51 51 51 51 51 51 51 51 51   	DB	"OQQQQQQQQQQQQQ$@"
       000000BA 51 51 51 51 24 40 
   148 000000C0 4F 24 24 24 24 24 24 24 24 24   	DB	"O$$$$$$$$$$$$$$@"
       000000CA 24 24 24 24 24 40 
   149 000000D0 40 40 40 40 40 40 40 40 40 40   	DB	"@@@@@@@@@@@@@@@@"
       000000DA 40 40 40 40 40 40 
   150 000000E0                                 _maxbtn.1:
   151 000000E0 4F 4F 4F 4F 4F 4F 4F 4F 4F 4F   	DB	"OOOOOOOOOOOOOOO@"
       000000EA 4F 4F 4F 4F 4F 40 
   152 000000F0 4F 51 51 51 51 51 51 51 51 51   	DB	"OQQQQQQQQQQQQQ$@"
       000000FA 51 51 51 51 24 40 
   153 00000100 4F 51 51 40 40 40 40 40 40 40   	DB	"OQQ@@@@@@@@@QQ$@"
       0000010A 40 40 51 51 24 40 
   154 00000110 4F 51 51 40 40 40 40 40 40 40   	DB	"OQQ@@@@@@@@@QQ$@"
       0000011A 40 40 51 51 24 40 
   155 00000120 4F 51 51 40 40 51 51 51 51 51   	DB	"OQQ@@QQQQQ@@QQ$@"
       0000012A 40 40 51 51 24 40 
   156 00000130 4F 51 51 40 40 51 51 51 51 51   	DB	"OQQ@@QQQQQ@@QQ$@"
       0000013A 40 40 51 51 24 40 
   157 00000140 4F 51 51 40 40 51 51 51 51 51   	DB	"OQQ@@QQQQQ@@QQ$@"
       0000014A 40 40 51 51 24 40 
   158 00000150 4F 51 51 40 40 51 51 51 51 51   	DB	"OQQ@@QQQQQ@@QQ$@"
       0000015A 40 40 51 51 24 40 
   159 00000160 4F 51 51 40 40 40 40 40 40 40   	DB	"OQQ@@@@@@@@@QQ$@"
       0000016A 40 40 51 51 24 40 
   160 00000170 4F 51 51 40 40 40 40 40 40 40   	DB	"OQQ@@@@@@@@@QQ$@"
       0000017A 40 40 51 51 24 40 
   161 00000180 4F 51 51 51 51 51 51 51 51 51   	DB	"OQQQQQQQQQQQQQ$@"
       0000018A 51 51 51 51 24 40 
   162 00000190 4F 51 51 51 51 51 51 51 51 51   	DB	"OQQQQQQQQQQQQQ$@"
       0000019A 51 51 51 51 24 40 
   163 000001A0 4F 24 24 24 24 24 24 24 24 24   	DB	"O$$$$$$$$$$$$$$@"
       000001AA 24 24 24 24 24 40 
   164 000001B0 40 40 40 40 40 40 40 40 40 40   	DB	"@@@@@@@@@@@@@@@@"
       000001BA 40 40 40 40 40 40 
   165 000001C0                                 _minbtn.2:
   166 000001C0 4F 4F 4F 4F 4F 4F 4F 4F 4F 4F   	DB	"OOOOOOOOOOOOOOO@"
       000001CA 4F 4F 4F 4F 4F 40 
   167 000001D0 4F 51 51 51 51 51 51 51 51 51   	DB	"OQQQQQQQQQQQQQ$@"
       000001DA 51 51 51 51 24 40 
   168 000001E0 4F 51 51 51 51 51 51 51 51 51   	DB	"OQQQQQQQQQQQQQ$@"
       000001EA 51 51 51 51 24 40 
   169 000001F0 4F 51 51 51 51 51 51 51 51 51   	DB	"OQQQQQQQQQQQQQ$@"
       000001FA 51 51 51 51 24 40 
   170 00000200 4F 51 51 51 51 51 51 51 51 51   	DB	"OQQQQQQQQQQQQQ$@"
       0000020A 51 51 51 51 24 40 
   171 00000210 4F 51 51 51 51 51 51 51 51 51   	DB	"OQQQQQQQQQQQQQ$@"
       0000021A 51 51 51 51 24 40 
   172 00000220 4F 51 51 51 51 51 51 51 51 51   	DB	"OQQQQQQQQQQQQQ$@"
       0000022A 51 51 51 51 24 40 
   173 00000230 4F 51 51 51 51 51 51 51 51 51   	DB	"OQQQQQQQQQQQQQ$@"
       0000023A 51 51 51 51 24 40 
   174 00000240 4F 51 51 51 40 40 40 40 40 40   	DB	"OQQQ@@@@@@@@QQ$@"
       0000024A 40 40 51 51 24 40 
   175 00000250 4F 51 51 51 40 40 40 40 40 40   	DB	"OQQQ@@@@@@@@QQ$@"
       0000025A 40 40 51 51 24 40 
   176 00000260 4F 51 51 51 51 51 51 51 51 51   	DB	"OQQQQQQQQQQQQQ$@"
       0000026A 51 51 51 51 24 40 
   177 00000270 4F 51 51 51 51 51 51 51 51 51   	DB	"OQQQQQQQQQQQQQ$@"
       0000027A 51 51 51 51 24 40 
   178 00000280 4F 24 24 24 24 24 24 24 24 24   	DB	"O$$$$$$$$$$$$$$@"
       0000028A 24 24 24 24 24 40 
   179 00000290 40 40 40 40 40 40 40 40 40 40   	DB	"@@@@@@@@@@@@@@@@"
       0000029A 40 40 40 40 40 40 
   180                                          [SECTION .text]
   181 00000111                                 	GLOBAL	_make_wtitle8
   182 00000111                                 _make_wtitle8:
   183 00000111 55                              	PUSH	EBP
   184 00000112 89 E5                           	MOV	EBP,ESP
   185 00000114 57                              	PUSH	EDI
   186 00000115 56                              	PUSH	ESI
   187 00000116 53                              	PUSH	EBX
   188 00000117 83 EC 0C                        	SUB	ESP,12
   189 0000011A 80 7D 14 00                     	CMP	BYTE [20+EBP],0
   190 0000011E 0F 84 0000018A                  	JE	L3
   191 00000124 B2 D1                           	MOV	DL,-47
   192 00000126                                 L4:
   193 00000126 8B 45 0C                        	MOV	EAX,DWORD [12+EBP]
   194 00000129 6A 14                           	PUSH	20
   195 0000012B 83 E8 04                        	SUB	EAX,4
   196 0000012E 31 FF                           	XOR	EDI,EDI
   197 00000130 50                              	PUSH	EAX
   198 00000131 6A 03                           	PUSH	3
   199 00000133 6A 03                           	PUSH	3
   200 00000135 0F B6 C2                        	MOVZX	EAX,DL
   201 00000138 50                              	PUSH	EAX
   202 00000139 FF 75 0C                        	PUSH	DWORD [12+EBP]
   203 0000013C FF 75 08                        	PUSH	DWORD [8+EBP]
   204 0000013F E8 [00000000]                   	CALL	_boxfill8
   205 00000144 FF 75 10                        	PUSH	DWORD [16+EBP]
   206 00000147 6A 01                           	PUSH	1
   207 00000149 6A 07                           	PUSH	7
   208 0000014B 6A 04                           	PUSH	4
   209 0000014D 6A 18                           	PUSH	24
   210 0000014F FF 75 0C                        	PUSH	DWORD [12+EBP]
   211 00000152 FF 75 08                        	PUSH	DWORD [8+EBP]
   212 00000155 E8 [00000000]                   	CALL	_putfonts8_asc
   213 0000015A 83 C4 38                        	ADD	ESP,56
   214 0000015D 6B 75 0C 05                     	IMUL	ESI,DWORD [12+EBP],5
   215 00000161 C7 45 E8 00000000               	MOV	DWORD [-24+EBP],0
   216 00000168                                 L20:
   217 00000168 8B 45 0C                        	MOV	EAX,DWORD [12+EBP]
   218 0000016B 8B 55 08                        	MOV	EDX,DWORD [8+EBP]
   219 0000016E 01 F0                           	ADD	EAX,ESI
   220 00000170 31 DB                           	XOR	EBX,EBX
   221 00000172 8D 4C 42 D6                     	LEA	ECX,DWORD [-42+EDX+EAX*2]
   222 00000176                                 L19:
   223 00000176 8B 45 E8                        	MOV	EAX,DWORD [-24+EBP]
   224 00000179 8A 94 03 [00000000]             	MOV	DL,BYTE [_closebtn.0+EBX+EAX*1]
   225 00000180 80 FA 40                        	CMP	DL,64
   226 00000183 0F 84 0000011E                  	JE	L65
   227 00000189 80 FA 24                        	CMP	DL,36
   228 0000018C 0F 84 0000010E                  	JE	L66
   229 00000192 80 FA 51                        	CMP	DL,81
   230 00000195 B2 08                           	MOV	DL,8
   231 00000197 0F 95 C0                        	SETNE	AL
   232 0000019A 28 C2                           	SUB	DL,AL
   233 0000019C                                 L14:
   234 0000019C 0F B6 C2                        	MOVZX	EAX,DL
   235 0000019F 43                              	INC	EBX
   236 000001A0 66 8B 84 00 [00000000]          	MOV	AX,WORD [_table_16_65536+EAX+EAX*1]
   237 000001A8 66 89 01                        	MOV	WORD [ECX],AX
   238 000001AB 83 C1 02                        	ADD	ECX,2
   239 000001AE 83 FB 0F                        	CMP	EBX,15
   240 000001B1 7E C3                           	JLE	L19
   241 000001B3 47                              	INC	EDI
   242 000001B4 03 75 0C                        	ADD	ESI,DWORD [12+EBP]
   243 000001B7 83 45 E8 10                     	ADD	DWORD [-24+EBP],16
   244 000001BB 83 FF 0D                        	CMP	EDI,13
   245 000001BE 7E A8                           	JLE	L20
   246 000001C0 6B 75 0C 05                     	IMUL	ESI,DWORD [12+EBP],5
   247 000001C4 31 FF                           	XOR	EDI,EDI
   248 000001C6 C7 45 EC 00000000               	MOV	DWORD [-20+EBP],0
   249 000001CD                                 L36:
   250 000001CD 8B 45 0C                        	MOV	EAX,DWORD [12+EBP]
   251 000001D0 8B 55 08                        	MOV	EDX,DWORD [8+EBP]
   252 000001D3 01 F0                           	ADD	EAX,ESI
   253 000001D5 31 DB                           	XOR	EBX,EBX
   254 000001D7 8D 4C 42 B4                     	LEA	ECX,DWORD [-76+EDX+EAX*2]
   255 000001DB                                 L35:
   256 000001DB 8B 45 EC                        	MOV	EAX,DWORD [-20+EBP]
   257 000001DE 8A 94 03 [000000E0]             	MOV	DL,BYTE [_maxbtn.1+EBX+EAX*1]
   258 000001E5 80 FA 40                        	CMP	DL,64
   259 000001E8 0F 84 000000AB                  	JE	L67
   260 000001EE 80 FA 24                        	CMP	DL,36
   261 000001F1 0F 84 0000009B                  	JE	L68
   262 000001F7 80 FA 51                        	CMP	DL,81
   263 000001FA B2 08                           	MOV	DL,8
   264 000001FC 0F 95 C0                        	SETNE	AL
   265 000001FF 28 C2                           	SUB	DL,AL
   266 00000201                                 L30:
   267 00000201 0F B6 C2                        	MOVZX	EAX,DL
   268 00000204 43                              	INC	EBX
   269 00000205 66 8B 84 00 [00000000]          	MOV	AX,WORD [_table_16_65536+EAX+EAX*1]
   270 0000020D 66 89 01                        	MOV	WORD [ECX],AX
   271 00000210 83 C1 02                        	ADD	ECX,2
   272 00000213 83 FB 0F                        	CMP	EBX,15
   273 00000216 7E C3                           	JLE	L35
   274 00000218 47                              	INC	EDI
   275 00000219 03 75 0C                        	ADD	ESI,DWORD [12+EBP]
   276 0000021C 83 45 EC 10                     	ADD	DWORD [-20+EBP],16
   277 00000220 83 FF 0D                        	CMP	EDI,13
   278 00000223 7E A8                           	JLE	L36
   279 00000225 6B 75 0C 05                     	IMUL	ESI,DWORD [12+EBP],5
   280 00000229 31 FF                           	XOR	EDI,EDI
   281 0000022B C7 45 F0 00000000               	MOV	DWORD [-16+EBP],0
   282 00000232                                 L52:
   283 00000232 8B 45 0C                        	MOV	EAX,DWORD [12+EBP]
   284 00000235 8B 55 08                        	MOV	EDX,DWORD [8+EBP]
   285 00000238 01 F0                           	ADD	EAX,ESI
   286 0000023A 31 DB                           	XOR	EBX,EBX
   287 0000023C 8D 4C 42 92                     	LEA	ECX,DWORD [-110+EDX+EAX*2]
   288 00000240                                 L51:
   289 00000240 8B 45 F0                        	MOV	EAX,DWORD [-16+EBP]
   290 00000243 8A 94 03 [000001C0]             	MOV	DL,BYTE [_minbtn.2+EBX+EAX*1]
   291 0000024A 80 FA 40                        	CMP	DL,64
   292 0000024D 74 3F                           	JE	L69
   293 0000024F 80 FA 24                        	CMP	DL,36
   294 00000252 74 36                           	JE	L70
   295 00000254 80 FA 51                        	CMP	DL,81
   296 00000257 B2 08                           	MOV	DL,8
   297 00000259 0F 95 C0                        	SETNE	AL
   298 0000025C 28 C2                           	SUB	DL,AL
   299 0000025E                                 L46:
   300 0000025E 0F B6 C2                        	MOVZX	EAX,DL
   301 00000261 43                              	INC	EBX
   302 00000262 66 8B 84 00 [00000000]          	MOV	AX,WORD [_table_16_65536+EAX+EAX*1]
   303 0000026A 66 89 01                        	MOV	WORD [ECX],AX
   304 0000026D 83 C1 02                        	ADD	ECX,2
   305 00000270 83 FB 0F                        	CMP	EBX,15
   306 00000273 7E CB                           	JLE	L51
   307 00000275 47                              	INC	EDI
   308 00000276 03 75 0C                        	ADD	ESI,DWORD [12+EBP]
   309 00000279 83 45 F0 10                     	ADD	DWORD [-16+EBP],16
   310 0000027D 83 FF 0D                        	CMP	EDI,13
   311 00000280 7E B0                           	JLE	L52
   312 00000282 8D 65 F4                        	LEA	ESP,DWORD [-12+EBP]
   313 00000285 5B                              	POP	EBX
   314 00000286 5E                              	POP	ESI
   315 00000287 5F                              	POP	EDI
   316 00000288 5D                              	POP	EBP
   317 00000289 C3                              	RET
   318 0000028A                                 L70:
   319 0000028A B2 0F                           	MOV	DL,15
   320 0000028C EB D0                           	JMP	L46
   321 0000028E                                 L69:
   322 0000028E 31 D2                           	XOR	EDX,EDX
   323 00000290 EB CC                           	JMP	L46
   324 00000292                                 L68:
   325 00000292 B2 0F                           	MOV	DL,15
   326 00000294 E9 FFFFFF68                     	JMP	L30
   327 00000299                                 L67:
   328 00000299 31 D2                           	XOR	EDX,EDX
   329 0000029B E9 FFFFFF61                     	JMP	L30
   330 000002A0                                 L66:
   331 000002A0 B2 0F                           	MOV	DL,15
   332 000002A2 E9 FFFFFEF5                     	JMP	L14
   333 000002A7                                 L65:
   334 000002A7 31 D2                           	XOR	EDX,EDX
   335 000002A9 E9 FFFFFEEE                     	JMP	L14
   336 000002AE                                 L3:
   337 000002AE B2 0F                           	MOV	DL,15
   338 000002B0 E9 FFFFFE71                     	JMP	L4
   339 000002B5                                 	GLOBAL	_putfonts8_asc_sht
   340 000002B5                                 _putfonts8_asc_sht:
   341 000002B5 55                              	PUSH	EBP
   342 000002B6 89 E5                           	MOV	EBP,ESP
   343 000002B8 57                              	PUSH	EDI
   344 000002B9 56                              	PUSH	ESI
   345 000002BA 53                              	PUSH	EBX
   346 000002BB 83 EC 18                        	SUB	ESP,24
   347 000002BE 8B 45 0C                        	MOV	EAX,DWORD [12+EBP]
   348 000002C1 8B 55 14                        	MOV	EDX,DWORD [20+EBP]
   349 000002C4 8B 4D 1C                        	MOV	ECX,DWORD [28+EBP]
   350 000002C7 89 45 F0                        	MOV	DWORD [-16+EBP],EAX
   351 000002CA 8B 45 20                        	MOV	EAX,DWORD [32+EBP]
   352 000002CD 89 55 EC                        	MOV	DWORD [-20+EBP],EDX
   353 000002D0 89 4D E8                        	MOV	DWORD [-24+EBP],ECX
   354 000002D3 89 45 E4                        	MOV	DWORD [-28+EBP],EAX
   355 000002D6 8B 7D 08                        	MOV	EDI,DWORD [8+EBP]
   356 000002D9 8B 75 10                        	MOV	ESI,DWORD [16+EBP]
   357 000002DC 8B 5D 18                        	MOV	EBX,DWORD [24+EBP]
   358 000002DF E8 [00000000]                   	CALL	_task_now
   359 000002E4 0F B6 DB                        	MOVZX	EBX,BL
   360 000002E7 89 45 E0                        	MOV	DWORD [-32+EBP],EAX
   361 000002EA 8D 46 0F                        	LEA	EAX,DWORD [15+ESI]
   362 000002ED 50                              	PUSH	EAX
   363 000002EE 8B 4D F0                        	MOV	ECX,DWORD [-16+EBP]
   364 000002F1 8B 55 E4                        	MOV	EDX,DWORD [-28+EBP]
   365 000002F4 8D 14 D1                        	LEA	EDX,DWORD [ECX+EDX*8]
   366 000002F7 89 D0                           	MOV	EAX,EDX
   367 000002F9 89 55 DC                        	MOV	DWORD [-36+EBP],EDX
   368 000002FC 48                              	DEC	EAX
   369 000002FD 50                              	PUSH	EAX
   370 000002FE 56                              	PUSH	ESI
   371 000002FF 51                              	PUSH	ECX
   372 00000300 53                              	PUSH	EBX
   373 00000301 FF 77 04                        	PUSH	DWORD [4+EDI]
   374 00000304 FF 37                           	PUSH	DWORD [EDI]
   375 00000306 E8 [00000000]                   	CALL	_boxfill8
   376 0000030B 8B 4D E0                        	MOV	ECX,DWORD [-32+EBP]
   377 0000030E 83 C4 1C                        	ADD	ESP,28
   378 00000311 80 B9 000000BC 00               	CMP	BYTE [188+ECX],0
   379 00000318 74 09                           	JE	L72
   380 0000031A 80 B9 000000BD 00               	CMP	BYTE [189+ECX],0
   381 00000321 75 42                           	JNE	L75
   382 00000323                                 L72:
   383 00000323 FF 75 E8                        	PUSH	DWORD [-24+EBP]
   384 00000326 6A 01                           	PUSH	1
   385 00000328 0F B6 45 EC                     	MOVZX	EAX,BYTE [-20+EBP]
   386 0000032C 50                              	PUSH	EAX
   387 0000032D 56                              	PUSH	ESI
   388 0000032E FF 75 F0                        	PUSH	DWORD [-16+EBP]
   389 00000331 FF 77 04                        	PUSH	DWORD [4+EDI]
   390 00000334 FF 37                           	PUSH	DWORD [EDI]
   391 00000336 E8 [00000000]                   	CALL	_putfonts8_asc
   392 0000033B 89 75 10                        	MOV	DWORD [16+EBP],ESI
   393 0000033E 8B 4D F0                        	MOV	ECX,DWORD [-16+EBP]
   394 00000341 8B 55 E4                        	MOV	EDX,DWORD [-28+EBP]
   395 00000344 8D 46 10                        	LEA	EAX,DWORD [16+ESI]
   396 00000347 83 C4 1C                        	ADD	ESP,28
   397 0000034A 89 45 18                        	MOV	DWORD [24+EBP],EAX
   398 0000034D 89 4D 0C                        	MOV	DWORD [12+EBP],ECX
   399 00000350 8D 04 D1                        	LEA	EAX,DWORD [ECX+EDX*8]
   400 00000353 89 45 14                        	MOV	DWORD [20+EBP],EAX
   401 00000356                                 L74:
   402 00000356 89 7D 08                        	MOV	DWORD [8+EBP],EDI
   403 00000359 8D 65 F4                        	LEA	ESP,DWORD [-12+EBP]
   404 0000035C 5B                              	POP	EBX
   405 0000035D 5E                              	POP	ESI
   406 0000035E 5F                              	POP	EDI
   407 0000035F 5D                              	POP	EBP
   408 00000360 E9 [00000000]                   	JMP	_sheet_refresh
   409 00000365                                 L75:
   410 00000365 FF 75 E8                        	PUSH	DWORD [-24+EBP]
   411 00000368 6A 01                           	PUSH	1
   412 0000036A 0F B6 45 EC                     	MOVZX	EAX,BYTE [-20+EBP]
   413 0000036E 50                              	PUSH	EAX
   414 0000036F 56                              	PUSH	ESI
   415 00000370 FF 75 F0                        	PUSH	DWORD [-16+EBP]
   416 00000373 FF 77 04                        	PUSH	DWORD [4+EDI]
   417 00000376 FF 37                           	PUSH	DWORD [EDI]
   418 00000378 E8 [00000000]                   	CALL	_putfonts8_asc
   419 0000037D 89 75 10                        	MOV	DWORD [16+EBP],ESI
   420 00000380 8D 46 10                        	LEA	EAX,DWORD [16+ESI]
   421 00000383 83 C4 1C                        	ADD	ESP,28
   422 00000386 89 45 18                        	MOV	DWORD [24+EBP],EAX
   423 00000389 8B 45 DC                        	MOV	EAX,DWORD [-36+EBP]
   424 0000038C 89 45 14                        	MOV	DWORD [20+EBP],EAX
   425 0000038F 8B 45 F0                        	MOV	EAX,DWORD [-16+EBP]
   426 00000392 83 E8 08                        	SUB	EAX,8
   427 00000395 89 45 0C                        	MOV	DWORD [12+EBP],EAX
   428 00000398 EB BC                           	JMP	L74
   429 0000039A                                 	GLOBAL	_make_textbox8
   430 0000039A                                 _make_textbox8:
   431 0000039A 55                              	PUSH	EBP
   432 0000039B 89 E5                           	MOV	EBP,ESP
   433 0000039D 57                              	PUSH	EDI
   434 0000039E 56                              	PUSH	ESI
   435 0000039F 53                              	PUSH	EBX
   436 000003A0 83 EC 14                        	SUB	ESP,20
   437 000003A3 8B 45 0C                        	MOV	EAX,DWORD [12+EBP]
   438 000003A6 8B 75 10                        	MOV	ESI,DWORD [16+EBP]
   439 000003A9 03 45 14                        	ADD	EAX,DWORD [20+EBP]
   440 000003AC 83 EE 03                        	SUB	ESI,3
   441 000003AF 56                              	PUSH	ESI
   442 000003B0 89 45 F0                        	MOV	DWORD [-16+EBP],EAX
   443 000003B3 8B 45 10                        	MOV	EAX,DWORD [16+EBP]
   444 000003B6 03 45 18                        	ADD	EAX,DWORD [24+EBP]
   445 000003B9 89 45 EC                        	MOV	DWORD [-20+EBP],EAX
   446 000003BC 8B 45 F0                        	MOV	EAX,DWORD [-16+EBP]
   447 000003BF 40                              	INC	EAX
   448 000003C0 50                              	PUSH	EAX
   449 000003C1 89 45 E8                        	MOV	DWORD [-24+EBP],EAX
   450 000003C4 8B 45 0C                        	MOV	EAX,DWORD [12+EBP]
   451 000003C7 56                              	PUSH	ESI
   452 000003C8 83 E8 02                        	SUB	EAX,2
   453 000003CB 50                              	PUSH	EAX
   454 000003CC 89 45 E4                        	MOV	DWORD [-28+EBP],EAX
   455 000003CF 8B 45 08                        	MOV	EAX,DWORD [8+EBP]
   456 000003D2 6A 0F                           	PUSH	15
   457 000003D4 FF 70 04                        	PUSH	DWORD [4+EAX]
   458 000003D7 FF 30                           	PUSH	DWORD [EAX]
   459 000003D9 E8 [00000000]                   	CALL	_boxfill8
   460 000003DE 8B 7D 0C                        	MOV	EDI,DWORD [12+EBP]
   461 000003E1 8B 45 EC                        	MOV	EAX,DWORD [-20+EBP]
   462 000003E4 83 EF 03                        	SUB	EDI,3
   463 000003E7 40                              	INC	EAX
   464 000003E8 50                              	PUSH	EAX
   465 000003E9 89 45 E0                        	MOV	DWORD [-32+EBP],EAX
   466 000003EC 57                              	PUSH	EDI
   467 000003ED 8B 45 08                        	MOV	EAX,DWORD [8+EBP]
   468 000003F0 56                              	PUSH	ESI
   469 000003F1 57                              	PUSH	EDI
   470 000003F2 6A 0F                           	PUSH	15
   471 000003F4 FF 70 04                        	PUSH	DWORD [4+EAX]
   472 000003F7 FF 30                           	PUSH	DWORD [EAX]
   473 000003F9 E8 [00000000]                   	CALL	_boxfill8
   474 000003FE 8B 45 08                        	MOV	EAX,DWORD [8+EBP]
   475 00000401 83 C4 38                        	ADD	ESP,56
   476 00000404 8B 5D EC                        	MOV	EBX,DWORD [-20+EBP]
   477 00000407 83 C3 02                        	ADD	EBX,2
   478 0000040A 53                              	PUSH	EBX
   479 0000040B FF 75 E8                        	PUSH	DWORD [-24+EBP]
   480 0000040E 53                              	PUSH	EBX
   481 0000040F 57                              	PUSH	EDI
   482 00000410 6A 07                           	PUSH	7
   483 00000412 FF 70 04                        	PUSH	DWORD [4+EAX]
   484 00000415 FF 30                           	PUSH	DWORD [EAX]
   485 00000417 E8 [00000000]                   	CALL	_boxfill8
   486 0000041C 8B 45 F0                        	MOV	EAX,DWORD [-16+EBP]
   487 0000041F 53                              	PUSH	EBX
   488 00000420 83 C0 02                        	ADD	EAX,2
   489 00000423 50                              	PUSH	EAX
   490 00000424 56                              	PUSH	ESI
   491 00000425 50                              	PUSH	EAX
   492 00000426 8B 45 08                        	MOV	EAX,DWORD [8+EBP]
   493 00000429 6A 07                           	PUSH	7
   494 0000042B FF 70 04                        	PUSH	DWORD [4+EAX]
   495 0000042E FF 30                           	PUSH	DWORD [EAX]
   496 00000430 E8 [00000000]                   	CALL	_boxfill8
   497 00000435 8B 45 08                        	MOV	EAX,DWORD [8+EBP]
   498 00000438 83 C4 38                        	ADD	ESP,56
   499 0000043B 8B 5D 10                        	MOV	EBX,DWORD [16+EBP]
   500 0000043E 83 EB 02                        	SUB	EBX,2
   501 00000441 8B 7D 0C                        	MOV	EDI,DWORD [12+EBP]
   502 00000444 53                              	PUSH	EBX
   503 00000445 4F                              	DEC	EDI
   504 00000446 FF 75 F0                        	PUSH	DWORD [-16+EBP]
   505 00000449 53                              	PUSH	EBX
   506 0000044A 57                              	PUSH	EDI
   507 0000044B 6A 00                           	PUSH	0
   508 0000044D FF 70 04                        	PUSH	DWORD [4+EAX]
   509 00000450 FF 30                           	PUSH	DWORD [EAX]
   510 00000452 E8 [00000000]                   	CALL	_boxfill8
   511 00000457 8B 45 08                        	MOV	EAX,DWORD [8+EBP]
   512 0000045A FF 75 EC                        	PUSH	DWORD [-20+EBP]
   513 0000045D FF 75 E4                        	PUSH	DWORD [-28+EBP]
   514 00000460 53                              	PUSH	EBX
   515 00000461 FF 75 E4                        	PUSH	DWORD [-28+EBP]
   516 00000464 6A 00                           	PUSH	0
   517 00000466 FF 70 04                        	PUSH	DWORD [4+EAX]
   518 00000469 FF 30                           	PUSH	DWORD [EAX]
   519 0000046B E8 [00000000]                   	CALL	_boxfill8
   520 00000470 8B 45 08                        	MOV	EAX,DWORD [8+EBP]
   521 00000473 83 C4 38                        	ADD	ESP,56
   522 00000476 FF 75 E0                        	PUSH	DWORD [-32+EBP]
   523 00000479 FF 75 F0                        	PUSH	DWORD [-16+EBP]
   524 0000047C FF 75 E0                        	PUSH	DWORD [-32+EBP]
   525 0000047F FF 75 E4                        	PUSH	DWORD [-28+EBP]
   526 00000482 6A 08                           	PUSH	8
   527 00000484 FF 70 04                        	PUSH	DWORD [4+EAX]
   528 00000487 FF 30                           	PUSH	DWORD [EAX]
   529 00000489 E8 [00000000]                   	CALL	_boxfill8
   530 0000048E 8B 45 08                        	MOV	EAX,DWORD [8+EBP]
   531 00000491 FF 75 E0                        	PUSH	DWORD [-32+EBP]
   532 00000494 FF 75 E8                        	PUSH	DWORD [-24+EBP]
   533 00000497 53                              	PUSH	EBX
   534 00000498 FF 75 E8                        	PUSH	DWORD [-24+EBP]
   535 0000049B 6A 08                           	PUSH	8
   536 0000049D FF 70 04                        	PUSH	DWORD [4+EAX]
   537 000004A0 FF 30                           	PUSH	DWORD [EAX]
   538 000004A2 E8 [00000000]                   	CALL	_boxfill8
   539 000004A7 8B 45 10                        	MOV	EAX,DWORD [16+EBP]
   540 000004AA 83 C4 38                        	ADD	ESP,56
   541 000004AD 48                              	DEC	EAX
   542 000004AE FF 75 EC                        	PUSH	DWORD [-20+EBP]
   543 000004B1 FF 75 F0                        	PUSH	DWORD [-16+EBP]
   544 000004B4 50                              	PUSH	EAX
   545 000004B5 57                              	PUSH	EDI
   546 000004B6 0F B6 45 1C                     	MOVZX	EAX,BYTE [28+EBP]
   547 000004BA 50                              	PUSH	EAX
   548 000004BB 8B 45 08                        	MOV	EAX,DWORD [8+EBP]
   549 000004BE FF 70 04                        	PUSH	DWORD [4+EAX]
   550 000004C1 FF 30                           	PUSH	DWORD [EAX]
   551 000004C3 E8 [00000000]                   	CALL	_boxfill8
   552 000004C8 8D 65 F4                        	LEA	ESP,DWORD [-12+EBP]
   553 000004CB 5B                              	POP	EBX
   554 000004CC 5E                              	POP	ESI
   555 000004CD 5F                              	POP	EDI
   556 000004CE 5D                              	POP	EBP
   557 000004CF C3                              	RET
   558 000004D0                                 	GLOBAL	_change_wtitle8
   559 000004D0                                 _change_wtitle8:
   560 000004D0 55                              	PUSH	EBP
   561 000004D1 89 E5                           	MOV	EBP,ESP
   562 000004D3 57                              	PUSH	EDI
   563 000004D4 56                              	PUSH	ESI
   564 000004D5 53                              	PUSH	EBX
   565 000004D6 83 EC 18                        	SUB	ESP,24
   566 000004D9 8B 45 08                        	MOV	EAX,DWORD [8+EBP]
   567 000004DC 80 7D 0C 00                     	CMP	BYTE [12+EBP],0
   568 000004E0 8B 10                           	MOV	EDX,DWORD [EAX]
   569 000004E2 8B 48 04                        	MOV	ECX,DWORD [4+EAX]
   570 000004E5 89 55 E4                        	MOV	DWORD [-28+EBP],EDX
   571 000004E8 0F 84 000000A0                  	JE	L78
   572 000004EE C6 45 EB D1                     	MOV	BYTE [-21+EBP],-47
   573 000004F2 C6 45 EA 0F                     	MOV	BYTE [-22+EBP],15
   574 000004F6                                 L79:
   575 000004F6 6B F9 03                        	IMUL	EDI,ECX,3
   576 000004F9 66 A1 [0000000E]                	MOV	AX,WORD [_table_16_65536+14]
   577 000004FF 89 7D E0                        	MOV	DWORD [-32+EBP],EDI
   578 00000502 66 89 45 DE                     	MOV	WORD [-34+EBP],AX
   579 00000506 C7 45 EC 00000011               	MOV	DWORD [-20+EBP],17
   580 0000050D                                 L92:
   581 0000050D C7 45 F0 00000003               	MOV	DWORD [-16+EBP],3
   582 00000514 8D 41 FC                        	LEA	EAX,DWORD [-4+ECX]
   583 00000517 39 45 F0                        	CMP	DWORD [-16+EBP],EAX
   584 0000051A 7F 39                           	JG	L96
   585 0000051C 8B 55 E4                        	MOV	EDX,DWORD [-28+EBP]
   586 0000051F 8B 45 E0                        	MOV	EAX,DWORD [-32+EBP]
   587 00000522 8D 74 7A 06                     	LEA	ESI,DWORD [6+EDX+EDI*2]
   588 00000526 8D 5C 42 06                     	LEA	EBX,DWORD [6+EDX+EAX*2]
   589 0000052A                                 L91:
   590 0000052A 66 8B 13                        	MOV	DX,WORD [EBX]
   591 0000052D 66 3B 55 DE                     	CMP	DX,WORD [-34+EBP]
   592 00000531 74 51                           	JE	L97
   593 00000533                                 L88:
   594 00000533 0F B6 45 EA                     	MOVZX	EAX,BYTE [-22+EBP]
   595 00000537 66 3B 94 00 [00000000]          	CMP	DX,WORD [_table_16_65536+EAX+EAX*1]
   596 0000053F 74 35                           	JE	L98
   597 00000541                                 L89:
   598 00000541 66 89 16                        	MOV	WORD [ESI],DX
   599 00000544 FF 45 F0                        	INC	DWORD [-16+EBP]
   600 00000547 8D 41 FC                        	LEA	EAX,DWORD [-4+ECX]
   601 0000054A 83 C6 02                        	ADD	ESI,2
   602 0000054D 83 C3 02                        	ADD	EBX,2
   603 00000550 39 45 F0                        	CMP	DWORD [-16+EBP],EAX
   604 00000553 7E D5                           	JLE	L91
   605 00000555                                 L96:
   606 00000555 01 CF                           	ADD	EDI,ECX
   607 00000557 01 4D E0                        	ADD	DWORD [-32+EBP],ECX
   608 0000055A FF 4D EC                        	DEC	DWORD [-20+EBP]
   609 0000055D 79 AE                           	JNS	L92
   610 0000055F 6A 15                           	PUSH	21
   611 00000561 51                              	PUSH	ECX
   612 00000562 6A 03                           	PUSH	3
   613 00000564 6A 03                           	PUSH	3
   614 00000566 FF 75 08                        	PUSH	DWORD [8+EBP]
   615 00000569 E8 [00000000]                   	CALL	_sheet_refresh
   616 0000056E 8D 65 F4                        	LEA	ESP,DWORD [-12+EBP]
   617 00000571 5B                              	POP	EBX
   618 00000572 5E                              	POP	ESI
   619 00000573 5F                              	POP	EDI
   620 00000574 5D                              	POP	EBP
   621 00000575 C3                              	RET
   622 00000576                                 L98:
   623 00000576 0F B6 45 EB                     	MOVZX	EAX,BYTE [-21+EBP]
   624 0000057A 66 8B 94 00 [00000000]          	MOV	DX,WORD [_table_16_65536+EAX+EAX*1]
   625 00000582 EB BD                           	JMP	L89
   626 00000584                                 L97:
   627 00000584 8D 41 EA                        	LEA	EAX,DWORD [-22+ECX]
   628 00000587 39 45 F0                        	CMP	DWORD [-16+EBP],EAX
   629 0000058A 7E B5                           	JLE	L89
   630 0000058C EB A5                           	JMP	L88
   631 0000058E                                 L78:
   632 0000058E C6 45 EB 0F                     	MOV	BYTE [-21+EBP],15
   633 00000592 C6 45 EA D1                     	MOV	BYTE [-22+EBP],-47
   634 00000596 E9 FFFFFF5B                     	JMP	L79
   635 0000059B                                 	GLOBAL	_set_title
   636 0000059B                                 _set_title:
   637 0000059B 55                              	PUSH	EBP
   638 0000059C 89 E5                           	MOV	EBP,ESP
   639 0000059E 57                              	PUSH	EDI
   640 0000059F 56                              	PUSH	ESI
   641 000005A0 53                              	PUSH	EBX
   642 000005A1 83 EC 10                        	SUB	ESP,16
   643 000005A4 8B 45 08                        	MOV	EAX,DWORD [8+EBP]
   644 000005A7 C7 45 F0 00000011               	MOV	DWORD [-16+EBP],17
   645 000005AE 8B 70 04                        	MOV	ESI,DWORD [4+EAX]
   646 000005B1 8B 10                           	MOV	EDX,DWORD [EAX]
   647 000005B3 6B DE 03                        	IMUL	EBX,ESI,3
   648 000005B6 89 55 EC                        	MOV	DWORD [-20+EBP],EDX
   649 000005B9                                 L109:
   650 000005B9 8D 7E EA                        	LEA	EDI,DWORD [-22+ESI]
   651 000005BC B9 00000003                     	MOV	ECX,3
   652 000005C1 89 7D E4                        	MOV	DWORD [-28+EBP],EDI
   653 000005C4 39 F9                           	CMP	ECX,EDI
   654 000005C6 7F 17                           	JG	L113
   655 000005C8                                 L108:
   656 000005C8 66 8B 3D [000001A2]             	MOV	DI,WORD [_table_16_65536+418]
   657 000005CF 8D 04 19                        	LEA	EAX,DWORD [ECX+EBX*1]
   658 000005D2 8B 55 EC                        	MOV	EDX,DWORD [-20+EBP]
   659 000005D5 41                              	INC	ECX
   660 000005D6 3B 4D E4                        	CMP	ECX,DWORD [-28+EBP]
   661 000005D9 66 89 3C 42                     	MOV	WORD [EDX+EAX*2],DI
   662 000005DD 7E E9                           	JLE	L108
   663 000005DF                                 L113:
   664 000005DF 01 F3                           	ADD	EBX,ESI
   665 000005E1 FF 4D F0                        	DEC	DWORD [-16+EBP]
   666 000005E4 79 D3                           	JNS	L109
   667 000005E6 FF 75 0C                        	PUSH	DWORD [12+EBP]
   668 000005E9 6A 01                           	PUSH	1
   669 000005EB 6A 07                           	PUSH	7
   670 000005ED 6A 04                           	PUSH	4
   671 000005EF 6A 18                           	PUSH	24
   672 000005F1 56                              	PUSH	ESI
   673 000005F2 FF 75 EC                        	PUSH	DWORD [-20+EBP]
   674 000005F5 E8 [00000000]                   	CALL	_putfonts8_asc
   675 000005FA 6A 15                           	PUSH	21
   676 000005FC 56                              	PUSH	ESI
   677 000005FD 6A 03                           	PUSH	3
   678 000005FF 6A 03                           	PUSH	3
   679 00000601 FF 75 08                        	PUSH	DWORD [8+EBP]
   680 00000604 E8 [00000000]                   	CALL	_sheet_refresh
   681 00000609 8D 65 F4                        	LEA	ESP,DWORD [-12+EBP]
   682 0000060C 5B                              	POP	EBX
   683 0000060D 5E                              	POP	ESI
   684 0000060E 5F                              	POP	EDI
   685 0000060F 5D                              	POP	EBP
   686 00000610 C3                              	RET
   687                                          [SECTION .data]
   688 000002A0                                 _leftbtn.3:
   689 000002A0 4F 4F 4F 4F 4F 4F 4F 4F 4F 4F   	DB	"OOOOOOOOOOOOOOO@"
       000002AA 4F 4F 4F 4F 4F 40 
   690 000002B0 4F 51 51 51 51 51 51 51 51 51   	DB	"OQQQQQQQQQQQQQ$@"
       000002BA 51 51 51 51 24 40 
   691 000002C0 4F 51 51 51 51 51 51 51 51 51   	DB	"OQQQQQQQQQQQQQ$@"
       000002CA 51 51 51 51 24 40 
   692 000002D0 4F 51 51 51 51 51 51 51 51 40   	DB	"OQQQQQQQQ@QQQQ$@"
       000002DA 51 51 51 51 24 40 
   693 000002E0 4F 51 51 51 51 51 51 51 40 40   	DB	"OQQQQQQQ@@QQQQ$@"
       000002EA 51 51 51 51 24 40 
   694 000002F0 4F 51 51 51 51 51 51 40 40 40   	DB	"OQQQQQQ@@@QQQQ$@"
       000002FA 51 51 51 51 24 40 
   695 00000300 4F 51 51 51 51 51 40 40 40 40   	DB	"OQQQQQ@@@@QQQQ$@"
       0000030A 51 51 51 51 24 40 
   696 00000310 4F 51 51 51 51 51 51 40 40 40   	DB	"OQQQQQQ@@@QQQQ$@"
       0000031A 51 51 51 51 24 40 
   697 00000320 4F 51 51 51 51 51 51 51 40 40   	DB	"OQQQQQQQ@@QQQQ$@"
       0000032A 51 51 51 51 24 40 
   698 00000330 4F 51 51 51 51 51 51 51 51 40   	DB	"OQQQQQQQQ@QQQQ$@"
       0000033A 51 51 51 51 24 40 
   699 00000340 4F 51 51 51 51 51 51 51 51 51   	DB	"OQQQQQQQQQQQQQ$@"
       0000034A 51 51 51 51 24 40 
   700 00000350 4F 51 51 51 51 51 51 51 51 51   	DB	"OQQQQQQQQQQQQQ$@"
       0000035A 51 51 51 51 24 40 
   701 00000360 4F 24 24 24 24 24 24 24 24 24   	DB	"O$$$$$$$$$$$$$$@"
       0000036A 24 24 24 24 24 40 
   702 00000370 40 40 40 40 40 40 40 40 40 40   	DB	"@@@@@@@@@@@@@@@@"
       0000037A 40 40 40 40 40 40 
   703 00000380                                 _rightbtn.4:
   704 00000380 4F 4F 4F 4F 4F 4F 4F 4F 4F 4F   	DB	"OOOOOOOOOOOOOOO@"
       0000038A 4F 4F 4F 4F 4F 40 
   705 00000390 4F 51 51 51 51 51 51 51 51 51   	DB	"OQQQQQQQQQQQQQ$@"
       0000039A 51 51 51 51 24 40 
   706 000003A0 4F 51 51 51 51 51 51 51 51 51   	DB	"OQQQQQQQQQQQQQ$@"
       000003AA 51 51 51 51 24 40 
   707 000003B0 4F 51 51 51 51 40 51 51 51 51   	DB	"OQQQQ@QQQQQQQQ$@"
       000003BA 51 51 51 51 24 40 
   708 000003C0 4F 51 51 51 51 40 40 51 51 51   	DB	"OQQQQ@@QQQQQQQ$@"
       000003CA 51 51 51 51 24 40 
   709 000003D0 4F 51 51 51 51 40 40 40 51 51   	DB	"OQQQQ@@@QQQQQQ$@"
       000003DA 51 51 51 51 24 40 
   710 000003E0 4F 51 51 51 51 40 40 40 40 51   	DB	"OQQQQ@@@@QQQQQ$@"
       000003EA 51 51 51 51 24 40 
   711 000003F0 4F 51 51 51 51 40 40 40 51 51   	DB	"OQQQQ@@@QQQQQQ$@"
       000003FA 51 51 51 51 24 40 
   712 00000400 4F 51 51 51 51 40 40 51 51 51   	DB	"OQQQQ@@QQQQQQQ$@"
       0000040A 51 51 51 51 24 40 
   713 00000410 4F 51 51 51 51 40 51 51 51 51   	DB	"OQQQQ@QQQQQQQQ$@"
       0000041A 51 51 51 51 24 40 
   714 00000420 4F 51 51 51 51 51 51 51 51 51   	DB	"OQQQQQQQQQQQQQ$@"
       0000042A 51 51 51 51 24 40 
   715 00000430 4F 51 51 51 51 51 51 51 51 51   	DB	"OQQQQQQQQQQQQQ$@"
       0000043A 51 51 51 51 24 40 
   716 00000440 4F 24 24 24 24 24 24 24 24 24   	DB	"O$$$$$$$$$$$$$$@"
       0000044A 24 24 24 24 24 40 
   717 00000450 40 40 40 40 40 40 40 40 40 40   	DB	"@@@@@@@@@@@@@@@@"
       0000045A 40 40 40 40 40 40 
   718 00000460                                 _slidbtn.5:
   719 00000460 30 30 30 40                     	DB	"000@"
   720 00000464 30 51 24 40                     	DB	"0Q$@"
   721 00000468 30 51 24 40                     	DB	"0Q$@"
   722 0000046C 30 51 24 40                     	DB	"0Q$@"
   723 00000470 30 51 24 40                     	DB	"0Q$@"
   724 00000474 30 51 24 40                     	DB	"0Q$@"
   725 00000478 30 51 24 40                     	DB	"0Q$@"
   726 0000047C 30 51 24 40                     	DB	"0Q$@"
   727 00000480 30 51 24 40                     	DB	"0Q$@"
   728 00000484 30 51 24 40                     	DB	"0Q$@"
   729 00000488 30 51 24 40                     	DB	"0Q$@"
   730 0000048C 30 51 24 40                     	DB	"0Q$@"
   731 00000490 30 24 24 40                     	DB	"0$$@"
   732 00000494 40 40 40 40                     	DB	"@@@@"
   733                                          [SECTION .text]
   734 00000611                                 	GLOBAL	_make_h_scroll
   735 00000611                                 _make_h_scroll:
   736 00000611 55                              	PUSH	EBP
   737 00000612 89 E5                           	MOV	EBP,ESP
   738 00000614 57                              	PUSH	EDI
   739 00000615 56                              	PUSH	ESI
   740 00000616 31 F6                           	XOR	ESI,ESI
   741 00000618 53                              	PUSH	EBX
   742 00000619 31 DB                           	XOR	EBX,EBX
   743 0000061B 51                              	PUSH	ECX
   744 0000061C 51                              	PUSH	ECX
   745 0000061D                                 L130:
   746 0000061D 31 C9                           	XOR	ECX,ECX
   747 0000061F                                 L129:
   748 0000061F 8A 94 31 [000002A0]             	MOV	DL,BYTE [_leftbtn.3+ECX+ESI*1]
   749 00000626 80 FA 40                        	CMP	DL,64
   750 00000629 0F 84 000000EC                  	JE	L169
   751 0000062F 80 FA 24                        	CMP	DL,36
   752 00000632 0F 84 000000DC                  	JE	L170
   753 00000638 80 FA 51                        	CMP	DL,81
   754 0000063B B2 08                           	MOV	DL,8
   755 0000063D 0F 95 C0                        	SETNE	AL
   756 00000640 28 C2                           	SUB	DL,AL
   757 00000642                                 L124:
   758 00000642 8B 7D 08                        	MOV	EDI,DWORD [8+EBP]
   759 00000645 8B 45 10                        	MOV	EAX,DWORD [16+EBP]
   760 00000648 01 D8                           	ADD	EAX,EBX
   761 0000064A 8B 7F 04                        	MOV	EDI,DWORD [4+EDI]
   762 0000064D 0F AF C7                        	IMUL	EAX,EDI
   763 00000650 03 45 0C                        	ADD	EAX,DWORD [12+EBP]
   764 00000653 89 7D F0                        	MOV	DWORD [-16+EBP],EDI
   765 00000656 0F B6 D2                        	MOVZX	EDX,DL
   766 00000659 01 C8                           	ADD	EAX,ECX
   767 0000065B 41                              	INC	ECX
   768 0000065C 66 8B 94 12 [00000000]          	MOV	DX,WORD [_table_16_65536+EDX+EDX*1]
   769 00000664 89 45 EC                        	MOV	DWORD [-20+EBP],EAX
   770 00000667 8B 45 08                        	MOV	EAX,DWORD [8+EBP]
   771 0000066A 83 F9 0F                        	CMP	ECX,15
   772 0000066D 8B 38                           	MOV	EDI,DWORD [EAX]
   773 0000066F 8B 45 EC                        	MOV	EAX,DWORD [-20+EBP]
   774 00000672 66 89 14 47                     	MOV	WORD [EDI+EAX*2],DX
   775 00000676 7E A7                           	JLE	L129
   776 00000678 43                              	INC	EBX
   777 00000679 83 C6 10                        	ADD	ESI,16
   778 0000067C 83 FB 0D                        	CMP	EBX,13
   779 0000067F 7E 9C                           	JLE	L130
   780 00000681 31 DB                           	XOR	EBX,EBX
   781 00000683 31 F6                           	XOR	ESI,ESI
   782 00000685                                 L146:
   783 00000685 31 C9                           	XOR	ECX,ECX
   784 00000687                                 L145:
   785 00000687 8A 94 31 [00000380]             	MOV	DL,BYTE [_rightbtn.4+ECX+ESI*1]
   786 0000068E 80 FA 40                        	CMP	DL,64
   787 00000691 74 7D                           	JE	L171
   788 00000693 80 FA 24                        	CMP	DL,36
   789 00000696 74 74                           	JE	L172
   790 00000698 80 FA 51                        	CMP	DL,81
   791 0000069B B2 08                           	MOV	DL,8
   792 0000069D 0F 95 C0                        	SETNE	AL
   793 000006A0 28 C2                           	SUB	DL,AL
   794 000006A2                                 L140:
   795 000006A2 8B 45 10                        	MOV	EAX,DWORD [16+EBP]
   796 000006A5 01 D8                           	ADD	EAX,EBX
   797 000006A7 0F AF 45 F0                     	IMUL	EAX,DWORD [-16+EBP]
   798 000006AB 03 45 0C                        	ADD	EAX,DWORD [12+EBP]
   799 000006AE 03 45 14                        	ADD	EAX,DWORD [20+EBP]
   800 000006B1 0F B6 D2                        	MOVZX	EDX,DL
   801 000006B4 01 C8                           	ADD	EAX,ECX
   802 000006B6 41                              	INC	ECX
   803 000006B7 66 8B 94 12 [00000000]          	MOV	DX,WORD [_table_16_65536+EDX+EDX*1]
   804 000006BF 83 F9 0F                        	CMP	ECX,15
   805 000006C2 66 89 54 47 E0                  	MOV	WORD [-32+EDI+EAX*2],DX
   806 000006C7 7E BE                           	JLE	L145
   807 000006C9 43                              	INC	EBX
   808 000006CA 83 C6 10                        	ADD	ESI,16
   809 000006CD 83 FB 0D                        	CMP	EBX,13
   810 000006D0 7E B3                           	JLE	L146
   811 000006D2 31 DB                           	XOR	EBX,EBX
   812 000006D4                                 L156:
   813 000006D4 8B 75 14                        	MOV	ESI,DWORD [20+EBP]
   814 000006D7 31 C9                           	XOR	ECX,ECX
   815 000006D9 83 EE 20                        	SUB	ESI,32
   816 000006DC 39 F1                           	CMP	ECX,ESI
   817 000006DE 7D 1F                           	JGE	L168
   818 000006E0                                 L155:
   819 000006E0 66 8B 15 [00000010]             	MOV	DX,WORD [_table_16_65536+16]
   820 000006E7 8B 45 10                        	MOV	EAX,DWORD [16+EBP]
   821 000006EA 01 D8                           	ADD	EAX,EBX
   822 000006EC 0F AF 45 F0                     	IMUL	EAX,DWORD [-16+EBP]
   823 000006F0 03 45 0C                        	ADD	EAX,DWORD [12+EBP]
   824 000006F3 01 C8                           	ADD	EAX,ECX
   825 000006F5 41                              	INC	ECX
   826 000006F6 39 F1                           	CMP	ECX,ESI
   827 000006F8 66 89 54 47 20                  	MOV	WORD [32+EDI+EAX*2],DX
   828 000006FD 7C E1                           	JL	L155
   829 000006FF                                 L168:
   830 000006FF 43                              	INC	EBX
   831 00000700 83 FB 0D                        	CMP	EBX,13
   832 00000703 7E CF                           	JLE	L156
   833 00000705 58                              	POP	EAX
   834 00000706 5A                              	POP	EDX
   835 00000707 5B                              	POP	EBX
   836 00000708 5E                              	POP	ESI
   837 00000709 5F                              	POP	EDI
   838 0000070A 5D                              	POP	EBP
   839 0000070B C3                              	RET
   840 0000070C                                 L172:
   841 0000070C B2 0F                           	MOV	DL,15
   842 0000070E EB 92                           	JMP	L140
   843 00000710                                 L171:
   844 00000710 31 D2                           	XOR	EDX,EDX
   845 00000712 EB 8E                           	JMP	L140
   846 00000714                                 L170:
   847 00000714 B2 0F                           	MOV	DL,15
   848 00000716 E9 FFFFFF27                     	JMP	L124
   849 0000071B                                 L169:
   850 0000071B 31 D2                           	XOR	EDX,EDX
   851 0000071D E9 FFFFFF20                     	JMP	L124
   852                                          [SECTION .data]
   853 00000498                                 _topbtn.6:
   854 00000498 4F 4F 4F 4F 4F 4F 4F 4F 4F 4F   	DB	"OOOOOOOOOOOOOOO@"
       000004A2 4F 4F 4F 4F 4F 40 
   855 000004A8 4F 51 51 51 51 51 51 51 51 51   	DB	"OQQQQQQQQQQQQQ$@"
       000004B2 51 51 51 51 24 40 
   856 000004B8 4F 51 51 51 51 51 51 51 51 51   	DB	"OQQQQQQQQQQQQQ$@"
       000004C2 51 51 51 51 24 40 
   857 000004C8 4F 51 51 51 51 51 51 51 51 51   	DB	"OQQQQQQQQQQQQQ$@"
       000004D2 51 51 51 51 24 40 
   858 000004D8 4F 51 51 51 51 51 51 51 51 51   	DB	"OQQQQQQQQQQQQQ$@"
       000004E2 51 51 51 51 24 40 
   859 000004E8 4F 51 51 51 51 51 51 40 51 51   	DB	"OQQQQQQ@QQQQQQ$@"
       000004F2 51 51 51 51 24 40 
   860 000004F8 4F 51 51 51 51 51 40 40 40 51   	DB	"OQQQQQ@@@QQQQQ$@"
       00000502 51 51 51 51 24 40 
   861 00000508 4F 51 51 51 51 40 40 40 40 40   	DB	"OQQQQ@@@@@QQQQ$@"
       00000512 51 51 51 51 24 40 
   862 00000518 4F 51 51 51 40 40 40 40 40 40   	DB	"OQQQ@@@@@@@QQQ$@"
       00000522 40 51 51 51 24 40 
   863 00000528 4F 51 51 51 51 51 51 51 51 51   	DB	"OQQQQQQQQQQQQQ$@"
       00000532 51 51 51 51 24 40 
   864 00000538 4F 51 51 51 51 51 51 51 51 51   	DB	"OQQQQQQQQQQQQQ$@"
       00000542 51 51 51 51 24 40 
   865 00000548 4F 51 51 51 51 51 51 51 51 51   	DB	"OQQQQQQQQQQQQQ$@"
       00000552 51 51 51 51 24 40 
   866 00000558 4F 24 24 24 24 24 24 24 24 24   	DB	"O$$$$$$$$$$$$$$@"
       00000562 24 24 24 24 24 40 
   867 00000568 40 40 40 40 40 40 40 40 40 40   	DB	"@@@@@@@@@@@@@@@@"
       00000572 40 40 40 40 40 40 
   868 00000578                                 _botbtn.7:
   869 00000578 4F 4F 4F 4F 4F 4F 4F 4F 4F 4F   	DB	"OOOOOOOOOOOOOOO@"
       00000582 4F 4F 4F 4F 4F 40 
   870 00000588 4F 51 51 51 51 51 51 51 51 51   	DB	"OQQQQQQQQQQQQQ$@"
       00000592 51 51 51 51 24 40 
   871 00000598 4F 51 51 51 51 51 51 51 51 51   	DB	"OQQQQQQQQQQQQQ$@"
       000005A2 51 51 51 51 24 40 
   872 000005A8 4F 51 51 51 51 51 51 51 51 51   	DB	"OQQQQQQQQQQQQQ$@"
       000005B2 51 51 51 51 24 40 
   873 000005B8 4F 51 51 51 51 51 51 51 51 51   	DB	"OQQQQQQQQQQQQQ$@"
       000005C2 51 51 51 51 24 40 
   874 000005C8 4F 51 51 51 40 40 40 40 40 40   	DB	"OQQQ@@@@@@@QQQ$@"
       000005D2 40 51 51 51 24 40 
   875 000005D8 4F 51 51 51 51 40 40 40 40 40   	DB	"OQQQQ@@@@@QQQQ$@"
       000005E2 51 51 51 51 24 40 
   876 000005E8 4F 51 51 51 51 51 40 40 40 51   	DB	"OQQQQQ@@@QQQQQ$@"
       000005F2 51 51 51 51 24 40 
   877 000005F8 4F 51 51 51 51 51 51 40 51 51   	DB	"OQQQQQQ@QQQQQQ$@"
       00000602 51 51 51 51 24 40 
   878 00000608 4F 51 51 51 51 51 51 51 51 51   	DB	"OQQQQQQQQQQQQQ$@"
       00000612 51 51 51 51 24 40 
   879 00000618 4F 51 51 51 51 51 51 51 51 51   	DB	"OQQQQQQQQQQQQQ$@"
       00000622 51 51 51 51 24 40 
   880 00000628 4F 51 51 51 51 51 51 51 51 51   	DB	"OQQQQQQQQQQQQQ$@"
       00000632 51 51 51 51 24 40 
   881 00000638 4F 24 24 24 24 24 24 24 24 24   	DB	"O$$$$$$$$$$$$$$@"
       00000642 24 24 24 24 24 40 
   882 00000648 40 40 40 40 40 40 40 40 40 40   	DB	"@@@@@@@@@@@@@@@@"
       00000652 40 40 40 40 40 40 
   883                                          [SECTION .text]
   884 00000722                                 	GLOBAL	_make_v_scroll
   885 00000722                                 _make_v_scroll:
   886 00000722 55                              	PUSH	EBP
   887 00000723 89 E5                           	MOV	EBP,ESP
   888 00000725 57                              	PUSH	EDI
   889 00000726 56                              	PUSH	ESI
   890 00000727 31 F6                           	XOR	ESI,ESI
   891 00000729 53                              	PUSH	EBX
   892 0000072A 83 EC 14                        	SUB	ESP,20
   893 0000072D C7 45 E0 00000000               	MOV	DWORD [-32+EBP],0
   894 00000734                                 L189:
   895 00000734 31 DB                           	XOR	EBX,EBX
   896 00000736                                 L188:
   897 00000736 8B 45 E0                        	MOV	EAX,DWORD [-32+EBP]
   898 00000739 8A 94 03 [00000498]             	MOV	DL,BYTE [_topbtn.6+EBX+EAX*1]
   899 00000740 80 FA 40                        	CMP	DL,64
   900 00000743 0F 84 00000115                  	JE	L228
   901 00000749 80 FA 24                        	CMP	DL,36
   902 0000074C 0F 84 00000105                  	JE	L229
   903 00000752 80 FA 51                        	CMP	DL,81
   904 00000755 B2 08                           	MOV	DL,8
   905 00000757 0F 95 C0                        	SETNE	AL
   906 0000075A 28 C2                           	SUB	DL,AL
   907 0000075C                                 L183:
   908 0000075C 8B 45 08                        	MOV	EAX,DWORD [8+EBP]
   909 0000075F 8B 4D 10                        	MOV	ECX,DWORD [16+EBP]
   910 00000762 01 F1                           	ADD	ECX,ESI
   911 00000764 8B 78 04                        	MOV	EDI,DWORD [4+EAX]
   912 00000767 0F AF CF                        	IMUL	ECX,EDI
   913 0000076A 89 C8                           	MOV	EAX,ECX
   914 0000076C 8B 4D 08                        	MOV	ECX,DWORD [8+EBP]
   915 0000076F 03 45 0C                        	ADD	EAX,DWORD [12+EBP]
   916 00000772 8B 09                           	MOV	ECX,DWORD [ECX]
   917 00000774 0F B6 D2                        	MOVZX	EDX,DL
   918 00000777 01 D8                           	ADD	EAX,EBX
   919 00000779 89 4D F0                        	MOV	DWORD [-16+EBP],ECX
   920 0000077C 66 8B 94 12 [00000000]          	MOV	DX,WORD [_table_16_65536+EDX+EDX*1]
   921 00000784 43                              	INC	EBX
   922 00000785 66 89 14 41                     	MOV	WORD [ECX+EAX*2],DX
   923 00000789 83 FB 0F                        	CMP	EBX,15
   924 0000078C 7E A8                           	JLE	L188
   925 0000078E 46                              	INC	ESI
   926 0000078F 83 45 E0 10                     	ADD	DWORD [-32+EBP],16
   927 00000793 83 FE 0D                        	CMP	ESI,13
   928 00000796 7E 9C                           	JLE	L189
   929 00000798 31 F6                           	XOR	ESI,ESI
   930 0000079A C7 45 E0 00000000               	MOV	DWORD [-32+EBP],0
   931 000007A1                                 L205:
   932 000007A1 31 DB                           	XOR	EBX,EBX
   933 000007A3                                 L204:
   934 000007A3 8B 45 E0                        	MOV	EAX,DWORD [-32+EBP]
   935 000007A6 8A 94 03 [00000578]             	MOV	DL,BYTE [_botbtn.7+EBX+EAX*1]
   936 000007AD 80 FA 40                        	CMP	DL,64
   937 000007B0 0F 84 0000009A                  	JE	L230
   938 000007B6 80 FA 24                        	CMP	DL,36
   939 000007B9 0F 84 0000008A                  	JE	L231
   940 000007BF 80 FA 51                        	CMP	DL,81
   941 000007C2 B2 08                           	MOV	DL,8
   942 000007C4 0F 95 C0                        	SETNE	AL
   943 000007C7 28 C2                           	SUB	DL,AL
   944 000007C9                                 L199:
   945 000007C9 8B 45 10                        	MOV	EAX,DWORD [16+EBP]
   946 000007CC 8B 4D F0                        	MOV	ECX,DWORD [-16+EBP]
   947 000007CF 03 45 14                        	ADD	EAX,DWORD [20+EBP]
   948 000007D2 0F B6 D2                        	MOVZX	EDX,DL
   949 000007D5 8D 44 06 F2                     	LEA	EAX,DWORD [-14+ESI+EAX*1]
   950 000007D9 0F AF C7                        	IMUL	EAX,EDI
   951 000007DC 66 8B 94 12 [00000000]          	MOV	DX,WORD [_table_16_65536+EDX+EDX*1]
   952 000007E4 03 45 0C                        	ADD	EAX,DWORD [12+EBP]
   953 000007E7 01 D8                           	ADD	EAX,EBX
   954 000007E9 43                              	INC	EBX
   955 000007EA 83 FB 0F                        	CMP	EBX,15
   956 000007ED 66 89 14 41                     	MOV	WORD [ECX+EAX*2],DX
   957 000007F1 7E B0                           	JLE	L204
   958 000007F3 46                              	INC	ESI
   959 000007F4 83 45 E0 10                     	ADD	DWORD [-32+EBP],16
   960 000007F8 83 FE 0D                        	CMP	ESI,13
   961 000007FB 7E A4                           	JLE	L205
   962 000007FD 8B 45 14                        	MOV	EAX,DWORD [20+EBP]
   963 00000800 31 F6                           	XOR	ESI,ESI
   964 00000802 83 E8 1C                        	SUB	EAX,28
   965 00000805 39 C6                           	CMP	ESI,EAX
   966 00000807 7D 38                           	JGE	L225
   967 00000809 8B 45 10                        	MOV	EAX,DWORD [16+EBP]
   968 0000080C 83 C0 0E                        	ADD	EAX,14
   969 0000080F 0F AF C7                        	IMUL	EAX,EDI
   970 00000812 03 45 0C                        	ADD	EAX,DWORD [12+EBP]
   971 00000815 89 45 E0                        	MOV	DWORD [-32+EBP],EAX
   972 00000818                                 L215:
   973 00000818 31 DB                           	XOR	EBX,EBX
   974 0000081A                                 L214:
   975 0000081A 66 8B 0D [00000010]             	MOV	CX,WORD [_table_16_65536+16]
   976 00000821 8B 45 E0                        	MOV	EAX,DWORD [-32+EBP]
   977 00000824 01 D8                           	ADD	EAX,EBX
   978 00000826 8B 55 F0                        	MOV	EDX,DWORD [-16+EBP]
   979 00000829 43                              	INC	EBX
   980 0000082A 66 89 0C 42                     	MOV	WORD [EDX+EAX*2],CX
   981 0000082E 83 FB 0F                        	CMP	EBX,15
   982 00000831 7E E7                           	JLE	L214
   983 00000833 8B 45 14                        	MOV	EAX,DWORD [20+EBP]
   984 00000836 46                              	INC	ESI
   985 00000837 83 E8 1C                        	SUB	EAX,28
   986 0000083A 01 7D E0                        	ADD	DWORD [-32+EBP],EDI
   987 0000083D 39 C6                           	CMP	ESI,EAX
   988 0000083F 7C D7                           	JL	L215
   989 00000841                                 L225:
   990 00000841 83 C4 14                        	ADD	ESP,20
   991 00000844 5B                              	POP	EBX
   992 00000845 5E                              	POP	ESI
   993 00000846 5F                              	POP	EDI
   994 00000847 5D                              	POP	EBP
   995 00000848 C3                              	RET
   996 00000849                                 L231:
   997 00000849 B2 0F                           	MOV	DL,15
   998 0000084B E9 FFFFFF79                     	JMP	L199
   999 00000850                                 L230:
  1000 00000850 31 D2                           	XOR	EDX,EDX
  1001 00000852 E9 FFFFFF72                     	JMP	L199
  1002 00000857                                 L229:
  1003 00000857 B2 0F                           	MOV	DL,15
  1004 00000859 E9 FFFFFEFE                     	JMP	L183
  1005 0000085E                                 L228:
  1006 0000085E 31 D2                           	XOR	EDX,EDX
  1007 00000860 E9 FFFFFEF7                     	JMP	L183
  1008                                          [SECTION .data]
  1009 00000658                                 _slidbtn.8:
  1010 00000658 30 30 30 30 30 30 30 30 30 30   	DB	"000000000000000@"
       00000662 30 30 30 30 30 40 
  1011 00000668 30 51 51 51 51 51 51 51 51 51   	DB	"0QQQQQQQQQQQQQQ@"
       00000672 51 51 51 51 51 40 
  1012 00000678 30 24 24 24 24 24 24 24 24 24   	DB	"0$$$$$$$$$$$$$$@"
       00000682 24 24 24 24 24 40 
  1013 00000688 40 40 40 40 40 40 40 40 40 40   	DB	"@@@@@@@@@@@@@@@@"
       00000692 40 40 40 40 40 40 
  1014                                          [SECTION .text]
  1015 00000865                                 	GLOBAL	_make_v_scrollbtn
  1016 00000865                                 _make_v_scrollbtn:
  1017 00000865 55                              	PUSH	EBP
  1018 00000866 89 E5                           	MOV	EBP,ESP
  1019 00000868 57                              	PUSH	EDI
  1020 00000869 56                              	PUSH	ESI
  1021 0000086A 31 F6                           	XOR	ESI,ESI
  1022 0000086C 53                              	PUSH	EBX
  1023 0000086D 83 EC 1C                        	SUB	ESP,28
  1024 00000870 8B 45 10                        	MOV	EAX,DWORD [16+EBP]
  1025 00000873 83 C0 0E                        	ADD	EAX,14
  1026 00000876 89 45 D8                        	MOV	DWORD [-40+EBP],EAX
  1027 00000879 C7 45 E8 00000000               	MOV	DWORD [-24+EBP],0
  1028 00000880                                 L248:
  1029 00000880 31 DB                           	XOR	EBX,EBX
  1030 00000882                                 L247:
  1031 00000882 8B 4D E8                        	MOV	ECX,DWORD [-24+EBP]
  1032 00000885 8A 94 0B [00000658]             	MOV	DL,BYTE [_slidbtn.8+EBX+ECX*1]
  1033 0000088C 80 FA 40                        	CMP	DL,64
  1034 0000088F 0F 84 00000167                  	JE	L293
  1035 00000895 80 FA 24                        	CMP	DL,36
  1036 00000898 0F 84 00000157                  	JE	L294
  1037 0000089E 80 FA 51                        	CMP	DL,81
  1038 000008A1 B2 08                           	MOV	DL,8
  1039 000008A3 0F 95 C0                        	SETNE	AL
  1040 000008A6 28 C2                           	SUB	DL,AL
  1041 000008A8                                 L242:
  1042 000008A8 8B 45 08                        	MOV	EAX,DWORD [8+EBP]
  1043 000008AB 8B 4D 08                        	MOV	ECX,DWORD [8+EBP]
  1044 000008AE 0F B6 D2                        	MOVZX	EDX,DL
  1045 000008B1 8B 78 04                        	MOV	EDI,DWORD [4+EAX]
  1046 000008B4 8B 09                           	MOV	ECX,DWORD [ECX]
  1047 000008B6 66 8B 94 12 [00000000]          	MOV	DX,WORD [_table_16_65536+EDX+EDX*1]
  1048 000008BE 8B 45 D8                        	MOV	EAX,DWORD [-40+EBP]
  1049 000008C1 0F AF C7                        	IMUL	EAX,EDI
  1050 000008C4 03 45 0C                        	ADD	EAX,DWORD [12+EBP]
  1051 000008C7 89 4D F0                        	MOV	DWORD [-16+EBP],ECX
  1052 000008CA 01 D8                           	ADD	EAX,EBX
  1053 000008CC 43                              	INC	EBX
  1054 000008CD 83 FB 0F                        	CMP	EBX,15
  1055 000008D0 66 89 14 41                     	MOV	WORD [ECX+EAX*2],DX
  1056 000008D4 7E AC                           	JLE	L247
  1057 000008D6 46                              	INC	ESI
  1058 000008D7 FF 45 D8                        	INC	DWORD [-40+EBP]
  1059 000008DA 83 45 E8 10                     	ADD	DWORD [-24+EBP],16
  1060 000008DE 85 F6                           	TEST	ESI,ESI
  1061 000008E0 7E 9E                           	JLE	L248
  1062 000008E2 8B 45 18                        	MOV	EAX,DWORD [24+EBP]
  1063 000008E5 BB 00000064                     	MOV	EBX,100
  1064 000008EA 99                              	CDQ
  1065 000008EB F7 FB                           	IDIV	EBX
  1066 000008ED 8B 4D 14                        	MOV	ECX,DWORD [20+EBP]
  1067 000008F0 31 F6                           	XOR	ESI,ESI
  1068 000008F2 83 E9 1C                        	SUB	ECX,28
  1069 000008F5 89 45 E4                        	MOV	DWORD [-28+EBP],EAX
  1070 000008F8 0F AF C8                        	IMUL	ECX,EAX
  1071 000008FB 39 CE                           	CMP	ESI,ECX
  1072 000008FD 7D 75                           	JGE	L286
  1073 000008FF 8B 45 10                        	MOV	EAX,DWORD [16+EBP]
  1074 00000902 83 C0 0E                        	ADD	EAX,14
  1075 00000905 0F AF C7                        	IMUL	EAX,EDI
  1076 00000908 03 45 0C                        	ADD	EAX,DWORD [12+EBP]
  1077 0000090B 89 45 D8                        	MOV	DWORD [-40+EBP],EAX
  1078 0000090E                                 L264:
  1079 0000090E 31 DB                           	XOR	EBX,EBX
  1080 00000910                                 L263:
  1081 00000910 8A 93 [00000668]                	MOV	DL,BYTE [_slidbtn.8+16+EBX]
  1082 00000916 80 FA 40                        	CMP	DL,64
  1083 00000919 0F 84 000000CF                  	JE	L295
  1084 0000091F 80 FA 24                        	CMP	DL,36
  1085 00000922 0F 84 000000BF                  	JE	L296
  1086 00000928 80 FA 51                        	CMP	DL,81
  1087 0000092B B2 08                           	MOV	DL,8
  1088 0000092D 0F 95 C0                        	SETNE	AL
  1089 00000930 28 C2                           	SUB	DL,AL
  1090 00000932                                 L258:
  1091 00000932 8B 4D D8                        	MOV	ECX,DWORD [-40+EBP]
  1092 00000935 8B 45 F0                        	MOV	EAX,DWORD [-16+EBP]
  1093 00000938 0F B6 D2                        	MOVZX	EDX,DL
  1094 0000093B 01 D9                           	ADD	ECX,EBX
  1095 0000093D 43                              	INC	EBX
  1096 0000093E 66 8B 94 12 [00000000]          	MOV	DX,WORD [_table_16_65536+EDX+EDX*1]
  1097 00000946 83 FB 0F                        	CMP	EBX,15
  1098 00000949 66 89 14 48                     	MOV	WORD [EAX+ECX*2],DX
  1099 0000094D 7E C1                           	JLE	L263
  1100 0000094F 8B 55 14                        	MOV	EDX,DWORD [20+EBP]
  1101 00000952 8B 45 18                        	MOV	EAX,DWORD [24+EBP]
  1102 00000955 83 EA 1C                        	SUB	EDX,28
  1103 00000958 B9 00000064                     	MOV	ECX,100
  1104 0000095D 89 55 E0                        	MOV	DWORD [-32+EBP],EDX
  1105 00000960 46                              	INC	ESI
  1106 00000961 99                              	CDQ
  1107 00000962 F7 F9                           	IDIV	ECX
  1108 00000964 8B 5D E0                        	MOV	EBX,DWORD [-32+EBP]
  1109 00000967 89 45 E4                        	MOV	DWORD [-28+EBP],EAX
  1110 0000096A 0F AF D8                        	IMUL	EBX,EAX
  1111 0000096D 01 7D D8                        	ADD	DWORD [-40+EBP],EDI
  1112 00000970 39 DE                           	CMP	ESI,EBX
  1113 00000972 7C 9A                           	JL	L264
  1114 00000974                                 L286:
  1115 00000974 BE 00000002                     	MOV	ESI,2
  1116 00000979 BF 00000020                     	MOV	EDI,32
  1117 0000097E                                 L280:
  1118 0000097E 31 DB                           	XOR	EBX,EBX
  1119 00000980                                 L279:
  1120 00000980 8A 94 3B [00000658]             	MOV	DL,BYTE [_slidbtn.8+EBX+EDI*1]
  1121 00000987 80 FA 40                        	CMP	DL,64
  1122 0000098A 74 57                           	JE	L297
  1123 0000098C 80 FA 24                        	CMP	DL,36
  1124 0000098F 74 4E                           	JE	L298
  1125 00000991 80 FA 51                        	CMP	DL,81
  1126 00000994 B2 08                           	MOV	DL,8
  1127 00000996 0F 95 C0                        	SETNE	AL
  1128 00000999 28 C2                           	SUB	DL,AL
  1129 0000099B                                 L274:
  1130 0000099B 8B 45 10                        	MOV	EAX,DWORD [16+EBP]
  1131 0000099E 8B 4D 08                        	MOV	ECX,DWORD [8+EBP]
  1132 000009A1 03 45 14                        	ADD	EAX,DWORD [20+EBP]
  1133 000009A4 0F B6 D2                        	MOVZX	EDX,DL
  1134 000009A7 8D 44 06 0C                     	LEA	EAX,DWORD [12+ESI+EAX*1]
  1135 000009AB 0F AF 41 04                     	IMUL	EAX,DWORD [4+ECX]
  1136 000009AF 66 8B 94 12 [00000000]          	MOV	DX,WORD [_table_16_65536+EDX+EDX*1]
  1137 000009B7 03 45 0C                        	ADD	EAX,DWORD [12+EBP]
  1138 000009BA 8B 09                           	MOV	ECX,DWORD [ECX]
  1139 000009BC 01 D8                           	ADD	EAX,EBX
  1140 000009BE 43                              	INC	EBX
  1141 000009BF 89 45 E4                        	MOV	DWORD [-28+EBP],EAX
  1142 000009C2 83 FB 0F                        	CMP	EBX,15
  1143 000009C5 8B 45 E4                        	MOV	EAX,DWORD [-28+EBP]
  1144 000009C8 66 89 14 41                     	MOV	WORD [ECX+EAX*2],DX
  1145 000009CC 7E B2                           	JLE	L279
  1146 000009CE 46                              	INC	ESI
  1147 000009CF 83 C7 10                        	ADD	EDI,16
  1148 000009D2 83 FE 03                        	CMP	ESI,3
  1149 000009D5 7E A7                           	JLE	L280
  1150 000009D7 83 C4 1C                        	ADD	ESP,28
  1151 000009DA 5B                              	POP	EBX
  1152 000009DB 5E                              	POP	ESI
  1153 000009DC 5F                              	POP	EDI
  1154 000009DD 5D                              	POP	EBP
  1155 000009DE C3                              	RET
  1156 000009DF                                 L298:
  1157 000009DF B2 0F                           	MOV	DL,15
  1158 000009E1 EB B8                           	JMP	L274
  1159 000009E3                                 L297:
  1160 000009E3 31 D2                           	XOR	EDX,EDX
  1161 000009E5 EB B4                           	JMP	L274
  1162 000009E7                                 L296:
  1163 000009E7 B2 0F                           	MOV	DL,15
  1164 000009E9 E9 FFFFFF44                     	JMP	L258
  1165 000009EE                                 L295:
  1166 000009EE 31 D2                           	XOR	EDX,EDX
  1167 000009F0 E9 FFFFFF3D                     	JMP	L258
  1168 000009F5                                 L294:
  1169 000009F5 B2 0F                           	MOV	DL,15
  1170 000009F7 E9 FFFFFEAC                     	JMP	L242
  1171 000009FC                                 L293:
  1172 000009FC 31 D2                           	XOR	EDX,EDX
  1173 000009FE E9 FFFFFEA5                     	JMP	L242
  1174 00000A03                                 	GLOBAL	_make_progress
  1175 00000A03                                 _make_progress:
  1176 00000A03 55                              	PUSH	EBP
  1177 00000A04 89 E5                           	MOV	EBP,ESP
  1178 00000A06 57                              	PUSH	EDI
  1179 00000A07 56                              	PUSH	ESI
  1180 00000A08 53                              	PUSH	EBX
  1181 00000A09 56                              	PUSH	ESI
  1182 00000A0A 83 7D 1C 01                     	CMP	DWORD [28+EBP],1
  1183 00000A0E C6 45 F3 0F                     	MOV	BYTE [-13+EBP],15
  1184 00000A12 74 48                           	JE	L315
  1185 00000A14                                 L300:
  1186 00000A14 31 DB                           	XOR	EBX,EBX
  1187 00000A16 3B 5D 18                        	CMP	EBX,DWORD [24+EBP]
  1188 00000A19 7D 3B                           	JGE	L312
  1189 00000A1B                                 L310:
  1190 00000A1B 31 C9                           	XOR	ECX,ECX
  1191 00000A1D 3B 4D 14                        	CMP	ECX,DWORD [20+EBP]
  1192 00000A20 7D 2E                           	JGE	L314
  1193 00000A22 8B 45 08                        	MOV	EAX,DWORD [8+EBP]
  1194 00000A25 8B 78 04                        	MOV	EDI,DWORD [4+EAX]
  1195 00000A28 8B 30                           	MOV	ESI,DWORD [EAX]
  1196 00000A2A                                 L309:
  1197 00000A2A 8B 45 10                        	MOV	EAX,DWORD [16+EBP]
  1198 00000A2D 03 45 18                        	ADD	EAX,DWORD [24+EBP]
  1199 00000A30 01 D8                           	ADD	EAX,EBX
  1200 00000A32 0F AF C7                        	IMUL	EAX,EDI
  1201 00000A35 03 45 0C                        	ADD	EAX,DWORD [12+EBP]
  1202 00000A38 0F B6 55 F3                     	MOVZX	EDX,BYTE [-13+EBP]
  1203 00000A3C 01 C8                           	ADD	EAX,ECX
  1204 00000A3E 41                              	INC	ECX
  1205 00000A3F 66 8B 94 12 [00000000]          	MOV	DX,WORD [_table_16_65536+EDX+EDX*1]
  1206 00000A47 3B 4D 14                        	CMP	ECX,DWORD [20+EBP]
  1207 00000A4A 66 89 14 46                     	MOV	WORD [ESI+EAX*2],DX
  1208 00000A4E 7C DA                           	JL	L309
  1209 00000A50                                 L314:
  1210 00000A50 43                              	INC	EBX
  1211 00000A51 3B 5D 18                        	CMP	EBX,DWORD [24+EBP]
  1212 00000A54 7C C5                           	JL	L310
  1213 00000A56                                 L312:
  1214 00000A56 5B                              	POP	EBX
  1215 00000A57 5B                              	POP	EBX
  1216 00000A58 5E                              	POP	ESI
  1217 00000A59 5F                              	POP	EDI
  1218 00000A5A 5D                              	POP	EBP
  1219 00000A5B C3                              	RET
  1220 00000A5C                                 L315:
  1221 00000A5C C6 45 F3 04                     	MOV	BYTE [-13+EBP],4
  1222 00000A60 EB B2                           	JMP	L300
