     1                                                org 0600H
     2                                                cpu 8086
     3                                  [BITS 16]
     4                                            section .data align=16
     5                                  ;label    :    instruction operands     ; comment
     6 00000000 31C0                                   XOR AX,AX                ; AX: 0000
     7 00000002 8ED0                                   MOV SS,AX                ; SS: 0000
     8 00000004 BC007C                                 MOV SP,0X7C00            ; SP: 7C00
     9 00000007 FB                                     STI                      ; 
    10 00000008 50                                     PUSH AX                  ;
    11 00000009 07                                     POP ES                   ; ES: 0000
    12 0000000A 50                                     PUSH AX                  ;
    13 0000000B 1F                                     POP DS                   ; DS: 0000
    14 0000000C FC                                     CLD                      ;
    15 0000000D BE1B7C                                 MOV SI,0X7C1B            ; SI: 7C1B
    16 00000010 BF1B06                                 MOV DI,0X061B            ; DI: 061B
    17 00000013 50                                     PUSH AX                  ;
    18 00000014 57                                     PUSH DI                  ;
    19 00000015 B9E501                                 MOV CX,0X01E5            ; CX: 01E5
    20 00000018 F3A4                                   REP MOVSB                ; CX: 0000
    21 0000001A CB                                     RETF                     ; IP: 061B CS:0000
    22 0000001B BEBE07                                 MOV SI,0X07BE            ; SI: 07BE
    23 0000001E B104                                   MOV CL,0X04              ; CX: 0004
    24                                  CHK_PTE   :                             ;
    25 00000020 382C                                   CMP [SI],CH              ;
    26 00000022 7C09                                   JL SCH_PTE               ; [SI] 80 =>
    27 00000024 7515                                   JNZ INVALIDPT            ; [SI] NOT 00
    28 00000026 83C610                                 ADD SI,BYTE +0X10        ; [SI] 00
    29 00000029 E2F5                                   LOOP CHK_PTE             ; NEXT PARTITION TABLE ENTRY
    30 0000002B CD18                                   INT 0X18                 ; ROM-BASIC 
    31                                  SCH_PTE   :                             ;
    32 0000002D 8B14                                   MOV DX,[SI]              ; DX: 0080
    33 0000002F 89F5                                   MOV BP,SI                ; BP: 07BE
    34                                  NEXT_PTE  :                             ;
    35 00000031 83C610                                 ADD SI,BYTE +0X10        ; SI: 07FE
    36 00000034 49                                     DEC CX                   ;
    37 00000035 7416                                   JZ CHK_SYSID             ; =>
    38 00000037 382C                                   CMP [SI],CH              ; CH: 00 NEED 80 00 00 00
    39 00000039 74F6                                   JZ NEXT_PTE              ;
    40                                  INVALIDPT :                             ;
    41 0000003B BE[1001]                               MOV SI,MSG1 + 1          ; SI: 0710
    42                                  NEXT_CH   :                             ;
    43 0000003E 4E                                     DEC SI                   ;
    44                                  DSP_MSG:                                ; DISPLAY MESSAGE
    45 0000003F AC                                     LODSB                    ; DS:SI -> AL
    46 00000040 3C00                                   CMP AL,0X00              ;
    47 00000042 74FA                                   JZ NEXT_CH               ;
    48 00000044 BB0700                                 MOV BX,0X0007            ;
    49 00000047 B40E                                   MOV AH,0X0E              ;
    50 00000049 CD10                                   INT 0X10                 ;
    51                                  DSP_ERRMSG:                             ; DISPLAY MESSAGE
    52 0000004B EBF2                                   JMP SHORT DSP_MSG        ; DISPLAY MESSAGE
    53                                  ;---------------------------------------;-------------------
    54                                  CHK_SYSID :                             ; ??
    55 0000004D 894625                                 MOV [BP+0X25],AX         ; BP: 07BE AX=?0000?
    56 00000050 96                                     XCHG AX,SI               ; SI: 07FE=>07BE
    57 00000051 8A4604                                 MOV AL,[BP+0X04]         ; SYSTEM ID
    58 00000054 B406                                   MOV AH,0X06              ; AH: 06
    59 00000056 3C0E                                   CMP AL,0X0E              ; 
    60 00000058 7411                                   JZ TST13HEX              ; FAT16(0E)
    61 0000005A B40B                                   MOV AH,0X0B              ; 
    62 0000005C 3C0C                                   CMP AL,0X0C              ; 
    63 0000005E 7405                                   JZ SET_FOR_0C            ; FAT32(0C)
    64 00000060 38E0                                   CMP AL,AH                ; 
    65 00000062 752B                                   JNZ SET_CNT              ; OTHERWISE TO READ
    66 00000064 40                                     INC AX                   ; FAT32(06)
    67                                  SET_FOR_0C:                             ;
    68 00000065 C6462506                               MOV BYTE [BP+0X25],0X06  ; 06
    69 00000069 7524                                   JNZ SET_CNT              ; TO READ
    70                                  TST13HEX  :                             ; 
    71 0000006B BBAA55                                 MOV BX,0X55AA            ; 
    72 0000006E 50                                     PUSH AX                  ; SAVE AX
    73 0000006F B441                                   MOV AH,0X41              ; 
    74 00000071 CD13                                   INT 0X13                 ; 
    75 00000073 58                                     POP AX                   ; RESTORE AX
    76 00000074 7216                                   JC LBL_0000008C          ; CF=1 NG
    77 00000076 81FB55AA                               CMP BX,0XAA55            ;
    78 0000007A 7510                                   JNZ LBL_0000008C         ; BX!=AA55 NG
    79 0000007C F6C101                                 TEST CL,0X01             ; CL=01 first
    80 0000007F 740B                                   JZ LBL_0000008C          ;
    81 00000081 88C4                                   MOV AH,AL                ;
    82 00000083 885624                                 MOV [BP+0X24],DL         ;
    83 00000086 C706A106EB1E                           MOV WORD [0X06A1],0X1EEB ;
    84                                  LBL_0000008C:
    85 0000008C 886604                                 MOV [BP+0X04],AH
    86                                  SET_CNT   :
    87 0000008F BF0A00                                 MOV DI,0X000A            ; DI: 0A
    88                                  READ_VBR  :
    89                                  ;AH:Read Sectors From Drive, AL:Sectors To Read Count
    90                                  ;CH:Cylinder, CL:Sector
    91                                  ;DH:Head, DL:Drive
    92                                  ;ES:BX:Buffer Address Pointer
    93 00000092 B80102                                 MOV AX,0X0201            ; AX: 0201
    94 00000095 89E3                                   MOV BX,SP                ; BX: 7C00, ES: 0000
    95 00000097 31C9                                   XOR CX,CX                ; CX: 0000
    96 00000099 83FF05                                 CMP DI,BYTE +0X05        ; 
    97 0000009C 7F03                                   JG READ_DISK             ; 
    98 0000009E 8B4E25                                 MOV CX,[BP+0X25]         ; CX: 0006
    99                                  READ_DISK :                             ; 
   100 000000A1 034E02                                 ADD CX,[BP+0X02]         ; SEC, CYL
   101 000000A4 CD13                                   INT 0X13                 ; 
   102                                  _LBL000000A6:
   103 000000A6 7229                                   JC RESET_DISK            ; CF=1ERROR
   104 000000A8 BE[4601]                               MOV SI,MSG3              ; MISS OS
   105 000000AB 813EFE7D55AA                           CMP WORD [0X7DFE],0XAA55 ; 
   106 000000B1 745A                                   JZ PRE_RUNVBR            ; RUN
   107 000000B3 83EF05                                 SUB DI,BYTE +0X05        ; 
   108 000000B6 7FDA                                   JG READ_VBR              ; RETRY
   109                                  PRINT_MSG :
   110                                  ;MOV SI, 0X00
   111 000000B8 85F6                                   TEST SI,SI               ; SI == 0
   112 000000BA 7583                                   JNZ DSP_MSG              ; DISPLAY MESSAGE
   113 000000BC BE[2701]                               MOV SI,MSG2              ; ERROR LOAD OS
   114 000000BF EB8A                                   JMP SHORT DSP_ERRMSG     ; DISPLAY MESSAGE
   115                                  
   116 000000C1 98                                     CBW
   117 000000C2 91                                     XCHG AX,CX
   118 000000C3 52                                     PUSH DX
   119 000000C4 99                                     CWD
   120 000000C5 034608                                 ADD AX,[BP+0X08]         ; 
   121 000000C8 13560A                                 ADC DX,[BP+0X0A]         ; 
   122 000000CB E81200                                 CALL WORD _LBL_0XE0
   123 000000CE 5A                                     POP DX
   124 000000CF EBD5                                   JMP SHORT _LBL000000A6
   125                                  RESET_DISK:
   126 000000D1 4F                                     DEC DI                   ;
   127 000000D2 74E4                                   JZ PRINT_MSG             ;
   128 000000D4 31C0                                   XOR AX,AX                ; Reset Disk Drives
   129 000000D6 CD13                                   INT 0X13                 ;
   130 000000D8 EBB8                                   JMP SHORT READ_VBR       ;
   131                                  
   132                                  ;DB 0, 0, 0, 0, 0, 0
   133 000000DA 00<rept>                TIMES 6 DB 0
   134                                  
   135                                  _LBL_0XE0:
   136 000000E0 56                                     PUSH SI
   137 000000E1 31F6                                   XOR SI,SI
   138 000000E3 56                                     PUSH SI
   139 000000E4 56                                     PUSH SI
   140 000000E5 52                                     PUSH DX
   141 000000E6 50                                     PUSH AX
   142 000000E7 06                                     PUSH ES
   143 000000E8 53                                     PUSH BX
   144 000000E9 51                                     PUSH CX                  ; CX =>IP?
   145 000000EA BE1000                                 MOV SI,0X10
   146 000000ED 56                                     PUSH SI                  ; SAVE SI
   147 000000EE 89E6                                   MOV SI,SP
   148 000000F0 50                                     PUSH AX                  ; SAVE AX
   149 000000F1 52                                     PUSH DX                  ; SAVE DX
   150 000000F2 B80042                                 MOV AX,0X4200            ; DL=DRV,DS:DI=
   151 000000F5 8A5624                                 MOV DL,[BP+0X24]         ; DRIVE INDEX
   152 000000F8 CD13                                   INT 0X13                 ; CF=0OK,CF=1NG
   153 000000FA 5A                                     POP DX                   ; RESTORE DX
   154 000000FB 58                                     POP AX                   ; RESTORE AX
   155 000000FC 8D6410                                 LEA SP,[SI+0X10]
   156 000000FF 720A                                   JC _LBL_00000105
   157                                  _LBL_0XFB:
   158 00000101 40                                     INC AX
   159 00000102 7501                                   JNZ _LBL_000000FF
   160 00000104 42                                     INC DX
   161                                  _LBL_000000FF:
   162 00000105 80C702                                 ADD BH,0X2
   163 00000108 E2F7                                   LOOP _LBL_0XFB
   164 0000010A F8                                     CLC
   165                                  _LBL_00000105:
   166 0000010B 5E                                     POP SI                   ; RESTORE SI
   167 0000010C C3                                     RET                      ; IP=, ___CS
   168                                  ;-----------------------------------------------------------
   169                                  
   170                                  
   171                                  PRE_RUNVBR:
   172 0000010D EB74                                   JMP SHORT RUN_VBR
   173                                  
   174 0000010F 496E76616C69642070-     MSG1     DB 'Invalid partition table', 0
   175 00000118 6172746974696F6E20-
   176 00000121 7461626C6500       
   177 00000127 4572726F72206C6F61-     MSG2     DB 'Error loading operating system', 0
   178 00000130 64696E67206F706572-
   179 00000139 6174696E6720737973-
   180 00000142 74656D00           
   181 00000146 4D697373696E67206F-     MSG3     DB 'Missing operating system', 0
   182 0000014F 7065726174696E6720-
   183 00000158 73797374656D00     
   184                                  
   185 0000015F 00<rept>                TIMES 36 DB 0
   186                                  
   187                                  RUN_VBR   :                             ;
   188 00000183 89E7                                   MOV DI,SP                ;
   189 00000185 1E                                     PUSH DS                  ; CS: DS
   190 00000186 57                                     PUSH DI                  ; IP: DI
   191 00000187 89EE                                   MOV SI,BP                ; SI: BP
   192 00000189 CB                                     RETF                     ; IP: 061B CS:0000
